libKF5Plotting.so.5 libkf5plotting5 #MINVER#
 _ZN10KPlotPoint11setBarWidthEd@Base 4.96.0
 _ZN10KPlotPoint11setPositionERK7QPointF@Base 4.96.0
 _ZN10KPlotPoint4setXEd@Base 4.96.0
 _ZN10KPlotPoint4setYEd@Base 4.96.0
 _ZN10KPlotPoint8setLabelERK7QString@Base 4.96.0
 _ZN10KPlotPointC1ERK7QPointFRK7QStringd@Base 4.96.0
 _ZN10KPlotPointC1EddRK7QStringd@Base 4.96.0
 _ZN10KPlotPointC1Ev@Base 4.96.0
 _ZN10KPlotPointC2ERK7QPointFRK7QStringd@Base 4.96.0
 _ZN10KPlotPointC2EddRK7QStringd@Base 4.96.0
 _ZN10KPlotPointC2Ev@Base 4.96.0
 _ZN10KPlotPointD1Ev@Base 4.96.0
 _ZN10KPlotPointD2Ev@Base 4.96.0
 _ZN11KPlotObject10setLinePenERK4QPen@Base 4.96.0
 _ZN11KPlotObject11clearPointsEv@Base 4.96.0
 _ZN11KPlotObject11removePointEi@Base 4.96.0
 _ZN11KPlotObject11setBarBrushERK6QBrush@Base 4.96.0
 _ZN11KPlotObject11setLabelPenERK4QPen@Base 4.96.0
 _ZN11KPlotObject11setShowBarsEb@Base 4.96.0
 _ZN11KPlotObject12setShowLinesEb@Base 4.96.0
 _ZN11KPlotObject13setPointStyleENS_10PointStyleE@Base 4.96.0
 _ZN11KPlotObject13setShowPointsEb@Base 4.96.0
 _ZN11KPlotObject4drawEP8QPainterP11KPlotWidget@Base 4.96.0
 _ZN11KPlotObject6setPenERK4QPen@Base 4.96.0
 _ZN11KPlotObject7setSizeEd@Base 4.96.0
 _ZN11KPlotObject8addPointEP10KPlotPoint@Base 4.96.0
 _ZN11KPlotObject8addPointERK7QPointFRK7QStringd@Base 4.96.0
 _ZN11KPlotObject8addPointEddRK7QStringd@Base 4.96.0
 _ZN11KPlotObject8setBrushERK6QBrush@Base 4.96.0
 _ZN11KPlotObject9setBarPenERK4QPen@Base 4.96.0
 _ZN11KPlotObjectC1ERK6QColorNS_8PlotTypeEdNS_10PointStyleE@Base 4.96.0
 _ZN11KPlotObjectC2ERK6QColorNS_8PlotTypeEdNS_10PointStyleE@Base 4.96.0
 _ZN11KPlotObjectD1Ev@Base 4.96.0
 _ZN11KPlotObjectD2Ev@Base 4.96.0
 _ZN11KPlotWidget10paintEventEP11QPaintEvent@Base 4.96.0
 _ZN11KPlotWidget10placeLabelEP8QPainterP10KPlotPoint@Base 4.96.0
 _ZN11KPlotWidget10setPixRectEv@Base 4.96.0
 _ZN11KPlotWidget11qt_metacallEN11QMetaObject4CallEiPPv@Base 4.96.0
 _ZN11KPlotWidget11qt_metacastEPKc@Base 4.96.0
 _ZN11KPlotWidget11resizeEventEP12QResizeEvent@Base 4.96.0
 _ZN11KPlotWidget11setShowGridEb@Base 4.96.0
 _ZN11KPlotWidget12setGridColorERK6QColor@Base 4.96.0
 _ZN11KPlotWidget13addPlotObjectEP11KPlotObject@Base 4.96.0
 _ZN11KPlotWidget13maskAlongLineERK7QPointFS2_f@Base 4.96.0
 _ZN11KPlotWidget13resetPlotMaskEv@Base 4.96.0
 _ZN11KPlotWidget13setTopPaddingEi@Base 4.96.0
 _ZN11KPlotWidget14addPlotObjectsERK5QListIP11KPlotObjectE@Base 4.96.0
 _ZN11KPlotWidget14setLeftPaddingEi@Base 4.96.0
 _ZN11KPlotWidget15setAntialiasingEb@Base 4.96.0
 _ZN11KPlotWidget15setRightPaddingEi@Base 4.96.0
 _ZN11KPlotWidget16setBottomPaddingEi@Base 4.96.0
 _ZN11KPlotWidget16staticMetaObjectE@Base 4.96.0
 _ZN11KPlotWidget17replacePlotObjectEiP11KPlotObject@Base 4.96.0
 _ZN11KPlotWidget18setBackgroundColorERK6QColor@Base 4.96.0
 _ZN11KPlotWidget18setDefaultPaddingsEv@Base 4.96.0
 _ZN11KPlotWidget18setForegroundColorERK6QColor@Base 4.96.0
 _ZN11KPlotWidget18setSecondaryLimitsEdddd@Base 4.96.0
 _ZN11KPlotWidget20clearSecondaryLimitsEv@Base 4.96.0
 _ZN11KPlotWidget20removeAllPlotObjectsEv@Base 4.96.0
 _ZN11KPlotWidget21setObjectToolTipShownEb@Base 4.96.0
 _ZN11KPlotWidget24setAutoDeletePlotObjectsEb@Base 5.12.0
 _ZN11KPlotWidget4axisENS_4AxisE@Base 4.96.0
 _ZN11KPlotWidget5eventEP6QEvent@Base 4.96.0
 _ZN11KPlotWidget7Private18calcDataRectLimitsEdddd@Base 4.96.0
 _ZN11KPlotWidget8drawAxesEP8QPainter@Base 4.96.0
 _ZN11KPlotWidget8maskRectERK6QRectFf@Base 4.96.0
 _ZN11KPlotWidget9resetPlotEv@Base 4.96.0
 _ZN11KPlotWidget9setLimitsEdddd@Base 4.96.0
 _ZN11KPlotWidgetC1EP7QWidget@Base 4.96.0
 _ZN11KPlotWidgetC2EP7QWidget@Base 4.96.0
 _ZN11KPlotWidgetD0Ev@Base 4.96.0
 _ZN11KPlotWidgetD1Ev@Base 4.96.0
 _ZN11KPlotWidgetD2Ev@Base 4.96.0
 _ZN9KPlotAxis10setVisibleEb@Base 4.96.0
 _ZN9KPlotAxis12setTickMarksEdd@Base 4.96.0
 _ZN9KPlotAxis18setTickLabelFormatEcii@Base 4.96.0
 _ZN9KPlotAxis18setTickLabelsShownEb@Base 4.96.0
 _ZN9KPlotAxis8setLabelERK7QString@Base 4.96.0
 _ZN9KPlotAxisC1ERK7QString@Base 4.96.0
 _ZN9KPlotAxisC2ERK7QString@Base 4.96.0
 _ZN9KPlotAxisD1Ev@Base 4.96.0
 _ZN9KPlotAxisD2Ev@Base 4.96.0
 _ZNK10KPlotPoint1xEv@Base 4.96.0
 _ZNK10KPlotPoint1yEv@Base 4.96.0
 _ZNK10KPlotPoint5labelEv@Base 4.96.0
 _ZNK10KPlotPoint8barWidthEv@Base 4.96.0
 _ZNK10KPlotPoint8positionEv@Base 4.96.0
 _ZNK11KPlotObject10pointStyleEv@Base 4.96.0
 _ZNK11KPlotObject3penEv@Base 4.96.0
 _ZNK11KPlotObject4sizeEv@Base 4.96.0
 _ZNK11KPlotObject5brushEv@Base 4.96.0
 _ZNK11KPlotObject6barPenEv@Base 4.96.0
 _ZNK11KPlotObject6pointsEv@Base 4.96.0
 _ZNK11KPlotObject7linePenEv@Base 4.96.0
 _ZNK11KPlotObject8barBrushEv@Base 4.96.0
 _ZNK11KPlotObject8labelPenEv@Base 4.96.0
 _ZNK11KPlotObject9plotTypesEv@Base 4.96.0
 _ZNK11KPlotWidget10metaObjectEv@Base 4.96.0
 _ZNK11KPlotWidget10topPaddingEv@Base 4.96.0
 _ZNK11KPlotWidget11isGridShownEv@Base 4.96.0
 _ZNK11KPlotWidget11leftPaddingEv@Base 4.96.0
 _ZNK11KPlotWidget11mapToWidgetERK7QPointF@Base 4.96.0
 _ZNK11KPlotWidget11plotObjectsEv@Base 4.96.0
 _ZNK11KPlotWidget12antialiasingEv@Base 4.96.0
 _ZNK11KPlotWidget12rightPaddingEv@Base 4.96.0
 _ZNK11KPlotWidget13bottomPaddingEv@Base 4.96.0
 _ZNK11KPlotWidget15backgroundColorEv@Base 4.96.0
 _ZNK11KPlotWidget15foregroundColorEv@Base 4.96.0
 _ZNK11KPlotWidget15minimumSizeHintEv@Base 4.96.0
 _ZNK11KPlotWidget16pointsUnderPointERK6QPoint@Base 4.96.0
 _ZNK11KPlotWidget17secondaryDataRectEv@Base 4.96.0
 _ZNK11KPlotWidget20isObjectToolTipShownEv@Base 4.96.0
 _ZNK11KPlotWidget4axisENS_4AxisE@Base 4.96.0
 _ZNK11KPlotWidget7Private8rectCostERK6QRectF@Base 4.96.0
 _ZNK11KPlotWidget7pixRectEv@Base 4.96.0
 _ZNK11KPlotWidget8dataRectEv@Base 4.96.0
 _ZNK11KPlotWidget8sizeHintEv@Base 4.96.0
 _ZNK11KPlotWidget9gridColorEv@Base 4.96.0
 _ZNK9KPlotAxis14majorTickMarksEv@Base 4.96.0
 _ZNK9KPlotAxis14minorTickMarksEv@Base 4.96.0
 _ZNK9KPlotAxis14tickLabelWidthEv@Base 4.96.0
 _ZNK9KPlotAxis15tickLabelFormatEv@Base 4.96.0
 _ZNK9KPlotAxis18areTickLabelsShownEv@Base 4.96.0
 _ZNK9KPlotAxis18tickLabelPrecisionEv@Base 4.96.0
 _ZNK9KPlotAxis5labelEv@Base 4.96.0
 _ZNK9KPlotAxis9isVisibleEv@Base 4.96.0
 _ZNK9KPlotAxis9tickLabelEd@Base 4.96.0
 _ZTI11KPlotWidget@Base 4.96.0
 _ZTS11KPlotWidget@Base 4.96.0
 _ZTV11KPlotWidget@Base 4.96.0
 _ZThn16_N11KPlotWidgetD0Ev@Base 4.96.0
 _ZThn16_N11KPlotWidgetD1Ev@Base 4.96.0
