libgdal.so.1 libgdal1i #MINVER#
| libgdal1i #MINVER#, libgdal.so.1-1.11.3
 BSBClose@GDAL_1.8 1.8.0
 BSBCreate@GDAL_1.8 1.8.0
 BSBOpen@GDAL_1.8 1.8.0
 BSBReadScanline@GDAL_1.8 1.8.0
 BSBWritePCT@GDAL_1.8 1.8.0
 BSBWriteScanline@GDAL_1.8 1.8.0
 CPLAcquireMutex@GDAL_1.8 1.8.0
 CPLAddXMLChild@GDAL_1.8 1.8.0
 CPLAddXMLSibling@GDAL_1.8 1.8.0
 CPLAtof@GDAL_1.8 1.8.0
 CPLAtofDelim@GDAL_1.8 1.8.0
 CPLAtofM@GDAL_1.8 1.8.0
 CPLAtomicAdd@GDAL_1.8 1.8.0
 CPLBase64DecodeInPlace@GDAL_1.8 1.8.0
 CPLBase64Encode@GDAL_1.8 1.9.0
 CPLBinaryToHex@GDAL_1.8 1.8.0
 CPLCalloc@GDAL_1.8 1.8.0
 CPLCheckForFile@GDAL_1.8 1.8.0
 CPLCleanTrailingSlash@GDAL_1.8 1.8.0
 CPLCleanXMLElementName@GDAL_1.8 1.8.0
 CPLCleanupErrorMutex@GDAL_1.8 1.10.1
 CPLCleanupMasterMutex@GDAL_1.8 1.10.1
 CPLCleanupSharedFileMutex@GDAL_1.8 1.10.1
 CPLCleanupTLS@GDAL_1.8 1.8.0
 CPLClearRecodeWarningFlags@GDAL_1.8 1.10.1
 CPLCloneXMLTree@GDAL_1.8 1.8.0
 CPLCloseFileInZip@GDAL_1.8 1.8.0
 CPLCloseShared@GDAL_1.8 1.8.0
 CPLCloseZip@GDAL_1.8 1.8.0
 CPLCondBroadcast@GDAL_1.8 1.10.1
 CPLCondSignal@GDAL_1.8 1.10.1
 CPLCondWait@GDAL_1.8 1.10.1
 CPLCopyFile@GDAL_1.8 1.8.0
 CPLCorrespondingPaths@GDAL_1.8 1.8.0
 CPLCreateCond@GDAL_1.8 1.10.1
 CPLCreateFileInZip@GDAL_1.8 1.8.0
 CPLCreateJoinableThread@GDAL_1.8 1.10.1
 CPLCreateMutex@GDAL_1.8 1.8.0
 CPLCreateOrAcquireMutex@GDAL_1.8 1.8.0
 CPLCreateThread@GDAL_1.8 1.8.0
 CPLCreateXMLElementAndValue@GDAL_1.8 1.8.0
 CPLCreateXMLNode@GDAL_1.8 1.8.0
 CPLCreateZip@GDAL_1.8 1.8.0
 CPLDMSToDec@GDAL_1.8 1.8.0
 CPLDebug@GDAL_1.8 1.8.0
 CPLDecToDMS@GDAL_1.8 1.8.0
 CPLDecToPackedDMS@GDAL_1.8 1.8.0
 CPLDefaultErrorHandler@GDAL_1.8 1.8.0
 CPLDefaultFindFile@GDAL_1.8 1.8.0
 CPLDestroyCond@GDAL_1.8 1.10.1
 CPLDestroyMutex@GDAL_1.8 1.8.0
 CPLDestroyXMLNode@GDAL_1.8 1.8.0
 CPLDumpSharedList@GDAL_1.8 1.8.0
 CPLEmergencyError@GDAL_1.8 1.9.0
 CPLEncodingCharSize@GDAL_1.8 1.9.0
 CPLError@GDAL_1.8 1.8.0
 CPLErrorReset@GDAL_1.8 1.8.0
 CPLErrorV@GDAL_1.8 1.8.0
 CPLEscapeString@GDAL_1.8 1.8.0
 CPLExtractRelativePath@GDAL_1.8 1.8.0
 CPLFGets@GDAL_1.8 1.8.0
 CPLFindFile@GDAL_1.8 1.8.0
 CPLFinderClean@GDAL_1.8 1.8.0
 CPLForceToASCII@GDAL_1.8 1.8.0
 CPLFormCIFilename@GDAL_1.8 1.8.0
 CPLFormFilename@GDAL_1.8 1.8.0
 CPLFreeConfig@GDAL_1.8 1.8.0
 CPLGenerateTempFilename@GDAL_1.8 1.8.0
 CPLGetBasename@GDAL_1.8 1.8.0
 CPLGetConfigOption@GDAL_1.8 1.8.0
 CPLGetCurrentDir@GDAL_1.8 1.8.0
 CPLGetDirname@GDAL_1.8 1.8.0
 CPLGetErrorHandlerUserData@GDAL_1.8 1.9.0
 CPLGetExecPath@GDAL_1.8 1.8.0
 CPLGetExtension@GDAL_1.8 1.8.0
 CPLGetFilename@GDAL_1.8 1.8.0
 CPLGetLastErrorMsg@GDAL_1.8 1.8.0
 CPLGetLastErrorNo@GDAL_1.8 1.8.0
 CPLGetLastErrorType@GDAL_1.8 1.8.0
 CPLGetNumCPUs@GDAL_1.8 1.10.1
 CPLGetPID@GDAL_1.8 1.8.0
 CPLGetPageSize@GDAL_1.8 1.11.0
 CPLGetPath@GDAL_1.8 1.8.0
 CPLGetSharedList@GDAL_1.8 1.8.0
 CPLGetSymbol@GDAL_1.8 1.8.0
 CPLGetTLS@GDAL_1.8 1.8.0
 CPLGetThreadingModel@GDAL_1.8 1.8.0
 CPLGetValueType@GDAL_1.8 1.8.0
 CPLGetXMLNode@GDAL_1.8 1.8.0
 CPLGetXMLValue@GDAL_1.8 1.8.0
 CPLHTTPCleanup@GDAL_1.8 1.8.0
 CPLHTTPDestroyResult@GDAL_1.8 1.8.0
 CPLHTTPEnabled@GDAL_1.8 1.8.0
 CPLHTTPFetch@GDAL_1.8 1.8.0
 CPLHTTPParseMultipartMime@GDAL_1.8 1.8.0
 CPLHashSetDestroy@GDAL_1.8 1.8.0
 CPLHashSetEqualPointer@GDAL_1.8 1.8.0
 CPLHashSetEqualStr@GDAL_1.8 1.8.0
 CPLHashSetForeach@GDAL_1.8 1.8.0
 CPLHashSetHashPointer@GDAL_1.8 1.8.0
 CPLHashSetHashStr@GDAL_1.8 1.8.0
 CPLHashSetInsert@GDAL_1.8 1.8.0
 CPLHashSetLookup@GDAL_1.8 1.8.0
 CPLHashSetNew@GDAL_1.8 1.8.0
 CPLHashSetRemove@GDAL_1.8 1.8.0
 CPLHashSetSize@GDAL_1.8 1.8.0
 CPLHexToBinary@GDAL_1.8 1.8.0
 CPLIsFilenameRelative@GDAL_1.8 1.8.0
 CPLIsUTF8@GDAL_1.8 1.8.0
 CPLIsVirtualMemFileMapAvailable@GDAL_1.8 1.11.0
 CPLJoinThread@GDAL_1.8 1.10.1
 CPLListAppend@GDAL_1.8 1.8.0
 CPLListCount@GDAL_1.8 1.8.0
 CPLListDestroy@GDAL_1.8 1.8.0
 CPLListGet@GDAL_1.8 1.8.0
 CPLListGetData@GDAL_1.8 1.8.0
 CPLListGetLast@GDAL_1.8 1.8.0
 CPLListGetNext@GDAL_1.8 1.8.0
 CPLListInsert@GDAL_1.8 1.8.0
 CPLListRemove@GDAL_1.8 1.8.0
 CPLLockFile@GDAL_1.8 1.8.0
 CPLLoggingErrorHandler@GDAL_1.8 1.8.0
 CPLMalloc@GDAL_1.8 1.8.0
 CPLMoveFile@GDAL_1.8 1.8.0
 CPLOpenShared@GDAL_1.8 1.8.0
 CPLPackedDMSToDec@GDAL_1.8 1.8.0
 CPLParseNameValue@GDAL_1.8 1.8.0
 CPLParseXMLFile@GDAL_1.8 1.8.0
 CPLParseXMLString@GDAL_1.8 1.8.0
 CPLPipeRead@GDAL_1.8 1.10.1
 CPLPipeWrite@GDAL_1.8 1.10.1
 CPLPopErrorHandler@GDAL_1.8 1.8.0
 CPLPopFileFinder@GDAL_1.8 1.8.0
 CPLPopFinderLocation@GDAL_1.8 1.8.0
 CPLPrintDouble@GDAL_1.8 1.8.0
 CPLPrintInt32@GDAL_1.8 1.8.0
 CPLPrintPointer@GDAL_1.8 1.8.0
 CPLPrintString@GDAL_1.8 1.8.0
 CPLPrintStringFill@GDAL_1.8 1.8.0
 CPLPrintTime@GDAL_1.8 1.8.0
 CPLPrintUIntBig@GDAL_1.8 1.8.0
 CPLProjectRelativeFilename@GDAL_1.8 1.8.0
 CPLPushErrorHandler@GDAL_1.8 1.8.0
 CPLPushErrorHandlerEx@GDAL_1.8 1.9.0
 CPLPushFileFinder@GDAL_1.8 1.8.0
 CPLPushFinderLocation@GDAL_1.8 1.8.0
 CPLQuadTreeCreate@GDAL_1.8 1.8.0
 CPLQuadTreeDestroy@GDAL_1.8 1.8.0
 CPLQuadTreeDump@GDAL_1.8 1.8.0
 CPLQuadTreeForeach@GDAL_1.8 1.8.0
 CPLQuadTreeGetAdvisedMaxDepth@GDAL_1.8 1.8.0
 CPLQuadTreeGetStats@GDAL_1.8 1.8.0
 CPLQuadTreeInsert@GDAL_1.8 1.8.0
 CPLQuadTreeInsertWithBounds@GDAL_1.8 1.11.0
 CPLQuadTreeSearch@GDAL_1.8 1.8.0
 CPLQuadTreeSetBucketCapacity@GDAL_1.8 1.8.0
 CPLQuadTreeSetMaxDepth@GDAL_1.8 1.8.0
 CPLQuietErrorHandler@GDAL_1.8 1.8.0
 CPLReadDir@GDAL_1.8 1.8.0
 CPLReadLine2L@GDAL_1.8 1.8.0
 CPLReadLine@GDAL_1.8 1.8.0
 CPLReadLineL@GDAL_1.8 1.8.0
 CPLRealloc@GDAL_1.8 1.8.0
 CPLRecode@GDAL_1.8 1.8.0
 CPLRecodeFromWChar@GDAL_1.8 1.8.0
 CPLRecodeToWChar@GDAL_1.8 1.8.0
 CPLReleaseMutex@GDAL_1.8 1.8.0
 CPLRemoveXMLChild@GDAL_1.8 1.8.0
 CPLResetExtension@GDAL_1.8 1.8.0
 CPLSPrintf@GDAL_1.8 1.8.0
 CPLScanDouble@GDAL_1.8 1.8.0
 CPLScanLong@GDAL_1.8 1.8.0
 CPLScanPointer@GDAL_1.8 1.8.0
 CPLScanString@GDAL_1.8 1.8.0
 CPLScanUIntBig@GDAL_1.8 1.8.0
 CPLScanULong@GDAL_1.8 1.8.0
 CPLSearchXMLNode@GDAL_1.8 1.8.0
 CPLSerializeXMLTree@GDAL_1.8 1.8.0
 CPLSerializeXMLTreeToFile@GDAL_1.8 1.8.0
 CPLSetConfigOption@GDAL_1.8 1.8.0
 CPLSetErrorHandler@GDAL_1.8 1.8.0
 CPLSetErrorHandlerEx@GDAL_1.8 1.9.0
 CPLSetTLS@GDAL_1.8 1.8.0
 CPLSetTLSWithFreeFunc@GDAL_1.8 1.8.0
 CPLSetThreadLocalConfigOption@GDAL_1.8 1.8.0
 CPLSetXMLValue@GDAL_1.8 1.8.0
 CPLSleep@GDAL_1.8 1.8.0
 CPLSpawn@GDAL_1.8 1.10.1
 CPLSpawnAsync@GDAL_1.8 1.10.1
 CPLSpawnAsyncCloseErrorFileHandle@GDAL_1.8 1.10.1
 CPLSpawnAsyncCloseInputFileHandle@GDAL_1.8 1.10.1
 CPLSpawnAsyncCloseOutputFileHandle@GDAL_1.8 1.10.1
 CPLSpawnAsyncFinish@GDAL_1.8 1.10.1
 CPLSpawnAsyncGetChildProcessId@GDAL_1.8 1.10.1
 CPLSpawnAsyncGetErrorFileHandle@GDAL_1.8 1.10.1
 CPLSpawnAsyncGetInputFileHandle@GDAL_1.8 1.10.1
 CPLSpawnAsyncGetOutputFileHandle@GDAL_1.8 1.10.1
 CPLStat@GDAL_1.8 1.8.0
 CPLStrdup@GDAL_1.8 1.8.0
 CPLStringToComplex@GDAL_1.8 1.8.0
 CPLStripXMLNamespace@GDAL_1.8 1.8.0
 CPLStrlcat@GDAL_1.8 1.8.0
 CPLStrlcpy@GDAL_1.8 1.8.0
 CPLStrlenUTF8@GDAL_1.8 1.11.0
 CPLStrlwr@GDAL_1.8 1.8.0
 CPLStrnlen@GDAL_1.8 1.8.0
 CPLStrtod@GDAL_1.8 1.8.0
 CPLStrtodDelim@GDAL_1.8 1.8.0
 CPLStrtof@GDAL_1.8 1.8.0
 CPLStrtofDelim@GDAL_1.8 1.8.0
 CPLUnescapeString@GDAL_1.8 1.8.0
 CPLUnlinkTree@GDAL_1.8 1.8.0
 CPLUnlockFile@GDAL_1.8 1.8.0
 CPLVASPrintf@GDAL_1.8 1.8.0
 CPLValidateXML@GDAL_1.8 1.10.1
 CPLVerifyConfiguration@GDAL_1.8 1.8.0
 CPLVirtualMemDeclareThread@GDAL_1.8 1.11.0
 CPLVirtualMemDerivedNew@GDAL_1.8 1.11.0
 CPLVirtualMemFileMapNew@GDAL_1.8 1.11.0
 CPLVirtualMemFree@GDAL_1.8 1.11.0
 CPLVirtualMemGetAccessMode@GDAL_1.8 1.11.0
 CPLVirtualMemGetAddr@GDAL_1.8 1.11.0
 CPLVirtualMemGetPageSize@GDAL_1.8 1.11.0
 CPLVirtualMemGetSize@GDAL_1.8 1.11.0
 CPLVirtualMemIsAccessThreadSafe@GDAL_1.8 1.11.0
 CPLVirtualMemIsFileMapping@GDAL_1.8 1.11.0
 CPLVirtualMemManagerTerminate@GDAL_1.8 1.11.0
 CPLVirtualMemNew@GDAL_1.8 1.11.0
 CPLVirtualMemPin@GDAL_1.8 1.11.0
 CPLVirtualMemUnDeclareThread@GDAL_1.8 1.11.0
 CPLWriteFileInZip@GDAL_1.8 1.8.0
 CPLZLibDeflate@GDAL_1.8 1.10.1
 CPLZLibInflate@GDAL_1.8 1.10.1
 CSLAddNameValue@GDAL_1.8 1.8.0
 CSLAddString@GDAL_1.8 1.8.0
 CSLAppendPrintf@GDAL_1.8 1.8.0
 CSLCount@GDAL_1.8 1.8.0
 CSLDestroy@GDAL_1.8 1.8.0
 CSLDuplicate@GDAL_1.8 1.8.0
 CSLFetchBoolean@GDAL_1.8 1.8.0
 CSLFetchNameValue@GDAL_1.8 1.8.0
 CSLFetchNameValueDef@GDAL_1.8 1.8.0
 CSLFetchNameValueMultiple@GDAL_1.8 1.8.0
 CSLFindName@GDAL_1.8 1.8.0
 CSLFindString@GDAL_1.8 1.8.0
 CSLGetField@GDAL_1.8 1.8.0
 CSLInsertString@GDAL_1.8 1.8.0
 CSLInsertStrings@GDAL_1.8 1.8.0
 CSLLoad2@GDAL_1.8 1.8.0
 CSLLoad@GDAL_1.8 1.8.0
 CSLMerge@GDAL_1.8 1.8.0
 CSLPartialFindString@GDAL_1.8 1.8.0
 CSLPrint@GDAL_1.8 1.8.0
 CSLRemoveStrings@GDAL_1.8 1.8.0
 CSLSave@GDAL_1.8 1.8.0
 CSLSetNameValue@GDAL_1.8 1.8.0
 CSLSetNameValueSeparator@GDAL_1.8 1.8.0
 CSLTestBoolean@GDAL_1.8 1.8.0
 CSLTokenizeString2@GDAL_1.8 1.8.0
 CSLTokenizeString@GDAL_1.8 1.8.0
 CSLTokenizeStringComplex@GDAL_1.8 1.8.0
 CSVDeaccess@GDAL_1.8 1.8.0
 CSVDetectSeperator@GDAL_1.8 1.8.0
 CSVFilename@GDAL_1.8 1.8.0
 CSVGetField@GDAL_1.8 1.8.0
 CSVGetFieldId@GDAL_1.8 1.8.0
 CSVGetFileFieldId@GDAL_1.8 1.8.0
 CSVGetNextLine@GDAL_1.8 1.8.0
 CSVReadParseLine2@GDAL_1.8 1.8.0
 CSVReadParseLine@GDAL_1.8 1.8.0
 CSVScanFile@GDAL_1.8 1.8.0
 CSVScanFileByName@GDAL_1.8 1.8.0
 CSVScanLines@GDAL_1.8 1.8.0
 DBFAddField@GDAL_1.8 1.8.0
 DBFAddNativeFieldType@GDAL_1.8 1.8.0
 DBFAlterFieldDefn@GDAL_1.8 1.9.0
 DBFCloneEmpty@GDAL_1.8 1.8.0
 DBFClose@GDAL_1.8 1.8.0
 DBFCreate@GDAL_1.8 1.8.0
 DBFCreateEx@GDAL_1.8 1.8.0
 DBFCreateLL@GDAL_1.8 1.8.0
 DBFDeleteField@GDAL_1.8 1.8.0
 DBFGetCodePage@GDAL_1.8 1.8.0
 DBFGetFieldCount@GDAL_1.8 1.8.0
 DBFGetFieldIndex@GDAL_1.8 1.8.0
 DBFGetFieldInfo@GDAL_1.8 1.8.0
 DBFGetNativeFieldType@GDAL_1.8 1.8.0
 DBFGetRecordCount@GDAL_1.8 1.8.0
 DBFIsAttributeNULL@GDAL_1.8 1.8.0
 DBFIsRecordDeleted@GDAL_1.8 1.8.0
 DBFMarkRecordDeleted@GDAL_1.8 1.8.0
 DBFOpen@GDAL_1.8 1.8.0
 DBFOpenLL@GDAL_1.8 1.8.0
 DBFReadDoubleAttribute@GDAL_1.8 1.8.0
 DBFReadIntegerAttribute@GDAL_1.8 1.8.0
 DBFReadLogicalAttribute@GDAL_1.8 1.8.0
 DBFReadStringAttribute@GDAL_1.8 1.8.0
 DBFReadTuple@GDAL_1.8 1.8.0
 DBFReorderFields@GDAL_1.8 1.9.0
 DBFUpdateHeader@GDAL_1.8 1.8.0
 DBFWriteAttributeDirectly@GDAL_1.8 1.8.0
 DBFWriteDoubleAttribute@GDAL_1.8 1.8.0
 DBFWriteIntegerAttribute@GDAL_1.8 1.8.0
 DBFWriteLogicalAttribute@GDAL_1.8 1.8.0
 DBFWriteNULLAttribute@GDAL_1.8 1.8.0
 DBFWriteStringAttribute@GDAL_1.8 1.8.0
 DBFWriteTuple@GDAL_1.8 1.8.0
 DGNAddMSLink@GDAL_1.8 1.8.0
 DGNAddRawAttrLink@GDAL_1.8 1.8.0
 DGNAddShapeFillInfo@GDAL_1.8 1.8.0
 DGNCloneElement@GDAL_1.8 1.8.0
 DGNClose@GDAL_1.8 1.8.0
 DGNCreate@GDAL_1.8 1.8.0
 DGNCreateArcElem2D@GDAL_1.8 1.8.0
 DGNCreateArcElem@GDAL_1.8 1.8.0
 DGNCreateCellHeaderElem@GDAL_1.8 1.8.0
 DGNCreateCellHeaderFromGroup@GDAL_1.8 1.8.0
 DGNCreateColorTableElem@GDAL_1.8 1.8.0
 DGNCreateComplexHeaderElem@GDAL_1.8 1.8.0
 DGNCreateComplexHeaderFromGroup@GDAL_1.8 1.8.0
 DGNCreateConeElem@GDAL_1.8 1.8.0
 DGNCreateMultiPointElem@GDAL_1.8 1.8.0
 DGNCreateSolidHeaderElem@GDAL_1.8 1.8.0
 DGNCreateSolidHeaderFromGroup@GDAL_1.8 1.8.0
 DGNCreateTextElem@GDAL_1.8 1.8.0
 DGNDumpElement@GDAL_1.8 1.8.0
 DGNElemTypeHasDispHdr@GDAL_1.8 1.8.0
 DGNFreeElement@GDAL_1.8 1.8.0
 DGNGetAssocID@GDAL_1.8 1.8.0
 DGNGetAttrLinkSize@GDAL_1.8 1.8.0
 DGNGetDimension@GDAL_1.8 1.8.0
 DGNGetElementExtents@GDAL_1.8 1.8.0
 DGNGetElementIndex@GDAL_1.8 1.8.0
 DGNGetExtents@GDAL_1.8 1.8.0
 DGNGetLinkage@GDAL_1.8 1.8.0
 DGNGetShapeFillInfo@GDAL_1.8 1.8.0
 DGNGotoElement@GDAL_1.8 1.8.0
 DGNLoadTCB@GDAL_1.8 1.8.0
 DGNLookupColor@GDAL_1.8 1.8.0
 DGNOpen@GDAL_1.8 1.8.0
 DGNQuaternionToMatrix@GDAL_1.8 1.8.0
 DGNReadElement@GDAL_1.8 1.8.0
 DGNResizeElement@GDAL_1.8 1.8.0
 DGNRewind@GDAL_1.8 1.8.0
 DGNRotationToQuaternion@GDAL_1.8 1.8.0
 DGNSetOptions@GDAL_1.8 1.8.0
 DGNSetSpatialFilter@GDAL_1.8 1.8.0
 DGNStrokeArc@GDAL_1.8 1.8.0
 DGNStrokeCurve@GDAL_1.8 1.8.0
 DGNTestOpen@GDAL_1.8 1.8.0
 DGNTypeToName@GDAL_1.8 1.8.0
 DGNUpdateElemCore@GDAL_1.8 1.8.0
 DGNUpdateElemCoreExtended@GDAL_1.8 1.8.0
 DGNWriteElement@GDAL_1.8 1.8.0
 GDALARGetNextUpdatedRegion@GDAL_1.8 1.8.0
 GDALARLockBuffer@GDAL_1.8 1.8.0
 GDALARUnlockBuffer@GDAL_1.8 1.8.0
 GDALAddBand@GDAL_1.8 1.8.0
 GDALAddDerivedBandPixelFunc@GDAL_1.8 1.8.0
 GDALAllRegister@GDAL_1.8 1.8.0
 GDALApplyGeoTransform@GDAL_1.8 1.8.0
 GDALApproxTransform@GDAL_1.8 1.8.0
 GDALApproxTransformerOwnsSubtransformer@GDAL_1.8 1.8.0
 GDALAutoCreateWarpedVRT@GDAL_1.8 1.8.0
 GDALBandGetBestOverviewLevel@GDAL_1.8 1.8.0
 GDALBeginAsyncReader@GDAL_1.8 1.8.0
 GDALBuildOverviews@GDAL_1.8 1.8.0
 GDALCheckBandCount@GDAL_1.8 1.8.0
 GDALCheckDatasetDimensions@GDAL_1.8 1.8.0
 GDALCheckVersion@GDAL_1.8 1.8.0
 GDALChecksumImage@GDAL_1.8 1.8.0
 GDALChunkAndWarpImage@GDAL_1.8 1.8.0
 GDALChunkAndWarpMulti@GDAL_1.8 1.8.0
 GDALCloneColorTable@GDAL_1.8 1.8.0
 GDALCloneWarpOptions@GDAL_1.8 1.8.0
 GDALClose@GDAL_1.8 1.8.0
 GDALComposeGeoTransforms@GDAL_1.8 1.11.0
 GDALComputeBandStats@GDAL_1.8 1.8.0
 GDALComputeMatchingPoints@GDAL_1.8 1.10.1
 GDALComputeMedianCutPCT@GDAL_1.8 1.8.0
 GDALComputeProximity@GDAL_1.8 1.8.0
 GDALComputeRasterMinMax@GDAL_1.8 1.8.0
 GDALComputeRasterStatistics@GDAL_1.8 1.8.0
 GDALContourGenerate@GDAL_1.8 1.8.0
 GDALCopyBits@GDAL_1.8 1.8.0
 GDALCopyDatasetFiles@GDAL_1.8 1.8.0
 GDALCopyWords@GDAL_1.8 1.8.0
 GDALCreate@GDAL_1.8 1.8.0
 GDALCreateAndReprojectImage@GDAL_1.8 1.8.0
 GDALCreateApproxTransformer@GDAL_1.8 1.8.0
 GDALCreateColorRamp@GDAL_1.8 1.8.0
 GDALCreateColorTable@GDAL_1.8 1.8.0
 GDALCreateCopy@GDAL_1.8 1.8.0
 GDALCreateDatasetMaskBand@GDAL_1.8 1.8.0
 GDALCreateGCPRefineTransformer@GDAL_1.8 1.9.0
 GDALCreateGCPTransformer@GDAL_1.8 1.8.0
 GDALCreateGenImgProjTransformer2@GDAL_1.8 1.8.0
 GDALCreateGenImgProjTransformer3@GDAL_1.8 1.8.0
 GDALCreateGenImgProjTransformer@GDAL_1.8 1.8.0
 GDALCreateGeoLocTransformer@GDAL_1.8 1.8.0
 GDALCreateMaskBand@GDAL_1.8 1.8.0
 GDALCreateRPCTransformer@GDAL_1.8 1.8.0
 GDALCreateRasterAttributeTable@GDAL_1.8 1.8.0
 GDALCreateReprojectionTransformer@GDAL_1.8 1.8.0
 GDALCreateScaledProgress@GDAL_1.8 1.8.0
 GDALCreateTPSTransformer@GDAL_1.8 1.8.0
 GDALCreateWarpOperation@GDAL_1.8 1.8.0
 GDALCreateWarpOptions@GDAL_1.8 1.8.0
 GDALCreateWarpedVRT@GDAL_1.8 1.8.0
 GDALDataTypeIsComplex@GDAL_1.8 1.8.0
 GDALDataTypeUnion@GDAL_1.8 1.8.0
 GDALDatasetAdviseRead@GDAL_1.8 1.8.0
 GDALDatasetCopyWholeRaster@GDAL_1.8 1.8.0
 GDALDatasetGetTiledVirtualMem@GDAL_1.8 1.11.0
 GDALDatasetGetVirtualMem@GDAL_1.8 1.11.0
 GDALDatasetRasterIO@GDAL_1.8 1.8.0
 GDALDecToDMS@GDAL_1.8 1.8.0
 GDALDecToPackedDMS@GDAL_1.8 1.8.0
 GDALDeinitGCPs@GDAL_1.8 1.8.0
 GDALDeleteDataset@GDAL_1.8 1.8.0
 GDALDereferenceDataset@GDAL_1.8 1.8.0
 GDALDeregisterDriver@GDAL_1.8 1.8.0
 GDALDeserializeTransformer@GDAL_1.8 1.8.0
 GDALDeserializeWarpOptions@GDAL_1.8 1.8.0
 GDALDestroyApproxTransformer@GDAL_1.8 1.8.0
 GDALDestroyColorTable@GDAL_1.8 1.8.0
 GDALDestroyDriver@GDAL_1.8 1.8.0
 GDALDestroyDriverManager@GDAL_1.8 1.8.0
 GDALDestroyGCPTransformer@GDAL_1.8 1.8.0
 GDALDestroyGenImgProjTransformer@GDAL_1.8 1.8.0
 GDALDestroyGeoLocTransformer@GDAL_1.8 1.8.0
 GDALDestroyRPCTransformer@GDAL_1.8 1.8.0
 GDALDestroyRasterAttributeTable@GDAL_1.8 1.8.0
 GDALDestroyReprojectionTransformer@GDAL_1.8 1.8.0
 GDALDestroyScaledProgress@GDAL_1.8 1.8.0
 GDALDestroyTPSTransformer@GDAL_1.8 1.8.0
 GDALDestroyTransformer@GDAL_1.8 1.8.0
 GDALDestroyWarpOperation@GDAL_1.8 1.8.0
 GDALDestroyWarpOptions@GDAL_1.8 1.8.0
 GDALDitherRGB2PCT@GDAL_1.8 1.8.0
 GDALDummyProgress@GDAL_1.8 1.8.0
 GDALDumpOpenDatasets@GDAL_1.8 1.8.0
 GDALDuplicateGCPs@GDAL_1.8 1.8.0
 GDALEndAsyncReader@GDAL_1.8 1.8.0
 GDALExtractRPCInfo@GDAL_1.8 1.8.0
 GDALFPolygonize@GDAL_1.8 1.9.0
 GDALFillNodata@GDAL_1.8 1.8.0
 GDALFillRaster@GDAL_1.8 1.8.0
 GDALFindAssociatedAuxFile@GDAL_1.8 1.8.0
 GDALFlushCache@GDAL_1.8 1.8.0
 GDALFlushCacheBlock@GDAL_1.8 1.8.0
 GDALFlushRasterCache@GDAL_1.8 1.8.0
 GDALGCPTransform@GDAL_1.8 1.8.0
 GDALGCPsToGeoTransform@GDAL_1.8 1.8.0
 GDALGenImgProjTransform@GDAL_1.8 1.8.0
 GDALGeneralCmdLineProcessor@GDAL_1.8 1.8.0
 GDALGeoLocTransform@GDAL_1.8 1.8.0
 GDALGetAccess@GDAL_1.8 1.8.0
 GDALGetAsyncStatusTypeByName@GDAL_1.8 1.8.0
 GDALGetAsyncStatusTypeName@GDAL_1.8 1.8.0
 GDALGetBandDataset@GDAL_1.8 1.8.0
 GDALGetBandNumber@GDAL_1.8 1.8.0
 GDALGetBlockSize@GDAL_1.8 1.8.0
 GDALGetCacheMax64@GDAL_1.8 1.8.0
 GDALGetCacheMax@GDAL_1.8 1.8.0
 GDALGetCacheUsed64@GDAL_1.8 1.8.0
 GDALGetCacheUsed@GDAL_1.8 1.8.0
 GDALGetColorEntry@GDAL_1.8 1.8.0
 GDALGetColorEntryAsRGB@GDAL_1.8 1.8.0
 GDALGetColorEntryCount@GDAL_1.8 1.8.0
 GDALGetColorInterpretationByName@GDAL_1.8 1.8.0
 GDALGetColorInterpretationName@GDAL_1.8 1.8.0
 GDALGetDataTypeByName@GDAL_1.8 1.8.0
 GDALGetDataTypeName@GDAL_1.8 1.8.0
 GDALGetDataTypeSize@GDAL_1.8 1.8.0
 GDALGetDatasetDriver@GDAL_1.8 1.8.0
 GDALGetDefaultHistogram@GDAL_1.8 1.8.0
 GDALGetDefaultRAT@GDAL_1.8 1.8.0
 GDALGetDescription@GDAL_1.8 1.8.0
 GDALGetDriver@GDAL_1.8 1.8.0
 GDALGetDriverByName@GDAL_1.8 1.8.0
 GDALGetDriverCount@GDAL_1.8 1.8.0
 GDALGetDriverCreationOptionList@GDAL_1.8 1.8.0
 GDALGetDriverHelpTopic@GDAL_1.8 1.8.0
 GDALGetDriverLongName@GDAL_1.8 1.8.0
 GDALGetDriverShortName@GDAL_1.8 1.8.0
 GDALGetFileList@GDAL_1.8 1.8.0
 GDALGetGCPCount@GDAL_1.8 1.8.0
 GDALGetGCPProjection@GDAL_1.8 1.8.0
 GDALGetGCPs@GDAL_1.8 1.8.0
 GDALGetGeoTransform@GDAL_1.8 1.8.0
 GDALGetInternalHandle@GDAL_1.8 1.8.0
 GDALGetMaskBand@GDAL_1.8 1.8.0
 GDALGetMaskFlags@GDAL_1.8 1.8.0
 GDALGetMetadata@GDAL_1.8 1.8.0
 GDALGetMetadataDomainList@GDAL_1.8 1.11.0
 GDALGetMetadataItem@GDAL_1.8 1.8.0
 GDALGetOpenDatasets@GDAL_1.8 1.8.0
 GDALGetOverview@GDAL_1.8 1.8.0
 GDALGetOverviewCount@GDAL_1.8 1.8.0
 GDALGetPaletteInterpretation@GDAL_1.8 1.8.0
 GDALGetPaletteInterpretationName@GDAL_1.8 1.8.0
 GDALGetProjectionRef@GDAL_1.8 1.8.0
 GDALGetRandomRasterSample@GDAL_1.8 1.8.0
 GDALGetRasterAccess@GDAL_1.8 1.8.0
 GDALGetRasterBand@GDAL_1.8 1.8.0
 GDALGetRasterBandXSize@GDAL_1.8 1.8.0
 GDALGetRasterBandYSize@GDAL_1.8 1.8.0
 GDALGetRasterCategoryNames@GDAL_1.8 1.8.0
 GDALGetRasterColorInterpretation@GDAL_1.8 1.8.0
 GDALGetRasterColorTable@GDAL_1.8 1.8.0
 GDALGetRasterCount@GDAL_1.8 1.8.0
 GDALGetRasterDataType@GDAL_1.8 1.8.0
 GDALGetRasterHistogram@GDAL_1.8 1.8.0
 GDALGetRasterMaximum@GDAL_1.8 1.8.0
 GDALGetRasterMinimum@GDAL_1.8 1.8.0
 GDALGetRasterNoDataValue@GDAL_1.8 1.8.0
 GDALGetRasterOffset@GDAL_1.8 1.8.0
 GDALGetRasterSampleOverview@GDAL_1.8 1.8.0
 GDALGetRasterScale@GDAL_1.8 1.8.0
 GDALGetRasterStatistics@GDAL_1.8 1.8.0
 GDALGetRasterUnitType@GDAL_1.8 1.8.0
 GDALGetRasterXSize@GDAL_1.8 1.8.0
 GDALGetRasterYSize@GDAL_1.8 1.8.0
 GDALGetVirtualMemAuto@GDAL_1.8 1.11.0
 GDALGridCreate@GDAL_1.8 1.8.0
 GDALHasArbitraryOverviews@GDAL_1.8 1.8.0
 GDALIdentifyDriver@GDAL_1.8 1.8.0
 GDALInitGCPs@GDAL_1.8 1.8.0
 GDALInitializeWarpedVRT@GDAL_1.8 1.8.0
 GDALInvGeoTransform@GDAL_1.8 1.8.0
 GDALIsInGlobalDestructor@GDAL_1.8 1.10.1
 GDALLoadIMDFile@GDAL_1.8 1.8.0
 GDALLoadOziMapFile@GDAL_1.8 1.8.0
 GDALLoadRPBFile@GDAL_1.8 1.8.0
 GDALLoadRPCFile@GDAL_1.8 1.8.0
 GDALLoadTabFile@GDAL_1.8 1.8.0
 GDALLoadWorldFile@GDAL_1.8 1.8.0
 GDALOpen@GDAL_1.8 1.8.0
 GDALOpenShared@GDAL_1.8 1.8.0
 GDALOvLevelAdjust@GDAL_1.8 1.8.0
 GDALOverviewMagnitudeCorrection@GDAL_1.8 1.8.0
 GDALPackedDMSToDec@GDAL_1.8 1.8.0
 GDALParseGMLCoverage@GDAL_1.8 1.8.0
 GDALPolygonize@GDAL_1.8 1.8.0
 GDALProxyPoolDatasetAddSrcBandDescription@GDAL_1.8 1.8.0
 GDALProxyPoolDatasetCreate@GDAL_1.8 1.8.0
 GDALProxyPoolDatasetDelete@GDAL_1.8 1.8.0
 GDALRATChangesAreWrittenToFile@GDAL_1.8 1.11.0
 GDALRATClone@GDAL_1.8 1.8.0
 GDALRATCreateColumn@GDAL_1.8 1.8.0
 GDALRATDumpReadable@GDAL_1.8 1.8.0
 GDALRATGetColOfUsage@GDAL_1.8 1.8.0
 GDALRATGetColumnCount@GDAL_1.8 1.8.0
 GDALRATGetLinearBinning@GDAL_1.8 1.8.0
 GDALRATGetNameOfCol@GDAL_1.8 1.8.0
 GDALRATGetRowCount@GDAL_1.8 1.8.0
 GDALRATGetRowOfValue@GDAL_1.8 1.8.0
 GDALRATGetTypeOfCol@GDAL_1.8 1.8.0
 GDALRATGetUsageOfCol@GDAL_1.8 1.8.0
 GDALRATGetValueAsDouble@GDAL_1.8 1.8.0
 GDALRATGetValueAsInt@GDAL_1.8 1.8.0
 GDALRATGetValueAsString@GDAL_1.8 1.8.0
 GDALRATInitializeFromColorTable@GDAL_1.8 1.8.0
 GDALRATSetLinearBinning@GDAL_1.8 1.8.0
 GDALRATSetRowCount@GDAL_1.8 1.8.0
 GDALRATSetValueAsDouble@GDAL_1.8 1.8.0
 GDALRATSetValueAsInt@GDAL_1.8 1.8.0
 GDALRATSetValueAsString@GDAL_1.8 1.8.0
 GDALRATTranslateToColorTable@GDAL_1.8 1.8.0
 GDALRATValuesIOAsDouble@GDAL_1.8 1.11.0
 GDALRATValuesIOAsInteger@GDAL_1.8 1.11.0
 GDALRATValuesIOAsString@GDAL_1.8 1.11.0
 GDALRPCTransform@GDAL_1.8 1.8.0
 GDALRasterAdviseRead@GDAL_1.8 1.8.0
 GDALRasterBandCopyWholeRaster@GDAL_1.8 1.8.0
 GDALRasterBandGetTiledVirtualMem@GDAL_1.8 1.11.0
 GDALRasterBandGetVirtualMem@GDAL_1.8 1.11.0
 GDALRasterIO@GDAL_1.8 1.8.0
 GDALRasterizeGeometries@GDAL_1.8 1.8.0
 GDALRasterizeLayers@GDAL_1.8 1.8.0
 GDALRasterizeLayersBuf@GDAL_1.8 1.8.0
 GDALReadBlock@GDAL_1.8 1.8.0
 GDALReadOziMapFile@GDAL_1.8 1.8.0
 GDALReadTabFile@GDAL_1.8 1.8.0
 GDALReadWorldFile2@GDAL_1.8 1.9.0
 GDALReadWorldFile@GDAL_1.8 1.8.0
 GDALReferenceDataset@GDAL_1.8 1.8.0
 GDALRegenerateOverviews@GDAL_1.8 1.8.0
 GDALRegisterDriver@GDAL_1.8 1.8.0
 GDALRegister_AAIGrid@GDAL_1.8 1.8.0
 GDALRegister_ACE2@GDAL_1.8 1.9.0
 GDALRegister_ADRG@GDAL_1.8 1.8.0
 GDALRegister_AIGrid@GDAL_1.8 1.8.0
 GDALRegister_ARG@GDAL_1.8 1.10.1
 GDALRegister_AirSAR@GDAL_1.8 1.8.0
 GDALRegister_BAG@GDAL_1.8 1.8.0
 GDALRegister_BIGGIF@GDAL_1.8 1.8.0
 GDALRegister_BLX@GDAL_1.8 1.8.0
 GDALRegister_BMP@GDAL_1.8 1.8.0
 GDALRegister_BSB@GDAL_1.8 1.8.0
 GDALRegister_BT@GDAL_1.8 1.8.0
 GDALRegister_CEOS@GDAL_1.8 1.8.0
 GDALRegister_COASP@GDAL_1.8 1.8.0
 GDALRegister_COSAR@GDAL_1.8 1.8.0
 GDALRegister_CPG@GDAL_1.8 1.8.0
 GDALRegister_CTG@GDAL_1.8 1.9.0
 GDALRegister_CTable2@GDAL_1.8 1.10.1
 GDALRegister_DIMAP@GDAL_1.8 1.8.0
 GDALRegister_DIPEx@GDAL_1.8 1.8.0
 GDALRegister_DODS@GDAL_1.8 1.8.0
 GDALRegister_DOQ1@GDAL_1.8 1.8.0
 GDALRegister_DOQ2@GDAL_1.8 1.8.0
 GDALRegister_DTED@GDAL_1.8 1.8.0
 GDALRegister_E00GRID@GDAL_1.8 1.9.0
 GDALRegister_ECRGTOC@GDAL_1.8 1.9.0
 GDALRegister_EHdr@GDAL_1.8 1.8.0
 GDALRegister_EIR@GDAL_1.8 1.8.0
 GDALRegister_ELAS@GDAL_1.8 1.8.0
 GDALRegister_ENVI@GDAL_1.8 1.8.0
 GDALRegister_EPSILON@GDAL_1.8 1.8.0
 GDALRegister_ERS@GDAL_1.8 1.8.0
 GDALRegister_Envisat@GDAL_1.8 1.8.0
 GDALRegister_FAST@GDAL_1.8 1.8.0
 GDALRegister_FIT@GDAL_1.8 1.8.0
 GDALRegister_FujiBAS@GDAL_1.8 1.8.0
 GDALRegister_GFF@GDAL_1.8 1.8.0
 GDALRegister_GIF@GDAL_1.8 1.8.0
 GDALRegister_GMT@GDAL_1.8 1.8.0
 GDALRegister_GRASSASCIIGrid@GDAL_1.8 1.9.0
 GDALRegister_GRIB@GDAL_1.8 1.8.0
 GDALRegister_GS7BG@GDAL_1.8 1.8.0
 GDALRegister_GSAG@GDAL_1.8 1.8.0
 GDALRegister_GSBG@GDAL_1.8 1.8.0
 GDALRegister_GSC@GDAL_1.8 1.8.0
 GDALRegister_GTX@GDAL_1.8 1.8.0
 GDALRegister_GTiff@GDAL_1.8 1.8.0
 GDALRegister_GXF@GDAL_1.8 1.8.0
 GDALRegister_GenBin@GDAL_1.8 1.8.0
 GDALRegister_HDF4@GDAL_1.8 1.8.0
 GDALRegister_HDF4Image@GDAL_1.8 1.8.0
 GDALRegister_HDF5@GDAL_1.8 1.8.0
 GDALRegister_HDF5Image@GDAL_1.8 1.8.0
 GDALRegister_HF2@GDAL_1.8 1.8.0
 GDALRegister_HFA@GDAL_1.8 1.8.0
 GDALRegister_HKV@GDAL_1.8 1.8.0
 GDALRegister_HTTP@GDAL_1.8 1.8.0
 GDALRegister_IDA@GDAL_1.8 1.8.0
 GDALRegister_IDRISI@GDAL_1.8 1.8.0
 GDALRegister_ILWIS@GDAL_1.8 1.8.0
 GDALRegister_INGR@GDAL_1.8 1.8.0
 GDALRegister_IRIS@GDAL_1.8 1.10.1
 GDALRegister_ISIS2@GDAL_1.8 1.8.0
 GDALRegister_ISIS3@GDAL_1.8 1.8.0
 GDALRegister_JDEM@GDAL_1.8 1.8.0
 GDALRegister_JP2OpenJPEG@GDAL_1.8 1.11.2
 GDALRegister_JPEG2000@GDAL_1.8 1.8.0
 GDALRegister_JPEG@GDAL_1.8 1.8.0
 GDALRegister_KMLSUPEROVERLAY@GDAL_1.8 1.8.0
 GDALRegister_KRO@GDAL_1.8 1.11.0
 GDALRegister_L1B@GDAL_1.8 1.8.0
 GDALRegister_LAN@GDAL_1.8 1.8.0
 GDALRegister_LCP@GDAL_1.8 1.8.0
 GDALRegister_LOSLAS@GDAL_1.8 1.8.0
 GDALRegister_Leveller@GDAL_1.8 1.8.0
 GDALRegister_MAP@GDAL_1.8 1.10.1
 GDALRegister_MBTiles@GDAL_1.8 1.10.1
 GDALRegister_MEM@GDAL_1.8 1.8.0
 GDALRegister_MFF@GDAL_1.8 1.8.0
 GDALRegister_MSGN@GDAL_1.8 1.8.0
 GDALRegister_NDF@GDAL_1.8 1.8.0
 GDALRegister_NGSGEOID@GDAL_1.8 1.9.0
 GDALRegister_NITF@GDAL_1.8 1.8.0
 GDALRegister_NTv2@GDAL_1.8 1.8.0
 GDALRegister_NWT_GRC@GDAL_1.8 1.8.0
 GDALRegister_NWT_GRD@GDAL_1.8 1.8.0
 GDALRegister_OGDI@GDAL_1.8 1.8.0
 GDALRegister_OZI@GDAL_1.8 1.8.0
 GDALRegister_PALSARJaxa@GDAL_1.8 1.8.0
 GDALRegister_PAux@GDAL_1.8 1.8.0
 GDALRegister_PCIDSK@GDAL_1.8 1.8.0
 GDALRegister_PCRaster@GDAL_1.8 1.8.0
 GDALRegister_PDF@GDAL_1.8 1.9.0
 GDALRegister_PDS@GDAL_1.8 1.8.0
 GDALRegister_PNG@GDAL_1.8 1.8.0
 GDALRegister_PNM@GDAL_1.8 1.8.0
 GDALRegister_PostGISRaster@GDAL_1.8 1.8.0
 GDALRegister_R@GDAL_1.8 1.8.0
 GDALRegister_RIK@GDAL_1.8 1.8.0
 GDALRegister_RMF@GDAL_1.8 1.8.0
 GDALRegister_RPFTOC@GDAL_1.8 1.8.0
 GDALRegister_RS2@GDAL_1.8 1.8.0
 GDALRegister_Rasterlite@GDAL_1.8 1.8.0
 GDALRegister_SAGA@GDAL_1.8 1.8.0
 GDALRegister_SAR_CEOS@GDAL_1.8 1.8.0
 GDALRegister_SDTS@GDAL_1.8 1.8.0
 GDALRegister_SGI@GDAL_1.8 1.8.0
 GDALRegister_SNODAS@GDAL_1.8 1.9.0
 GDALRegister_SRP@GDAL_1.8 1.8.0
 GDALRegister_SRTMHGT@GDAL_1.8 1.8.0
 GDALRegister_TIL@GDAL_1.8 1.8.0
 GDALRegister_TSX@GDAL_1.8 1.8.0
 GDALRegister_Terragen@GDAL_1.8 1.8.0
 GDALRegister_USGSDEM@GDAL_1.8 1.8.0
 GDALRegister_VRT@GDAL_1.8 1.8.0
 GDALRegister_WCS@GDAL_1.8 1.8.0
 GDALRegister_WEBP@GDAL_1.8 1.10.1
 GDALRegister_WMS@GDAL_1.8 1.8.0
 GDALRegister_XPM@GDAL_1.8 1.8.0
 GDALRegister_XYZ@GDAL_1.8 1.8.0
 GDALRegister_ZMap@GDAL_1.8 1.9.0
 GDALRegister_netCDF@GDAL_1.8 1.8.0
 GDALRenameDataset@GDAL_1.8 1.8.0
 GDALReprojectImage@GDAL_1.8 1.8.0
 GDALReprojectionTransform@GDAL_1.8 1.8.0
 GDALScaledProgress@GDAL_1.8 1.8.0
 GDALSerializeTransformer@GDAL_1.8 1.8.0
 GDALSerializeWarpOptions@GDAL_1.8 1.8.0
 GDALServerLoop@GDAL_1.8 1.10.1
 GDALServerLoopSocket@GDAL_1.8 1.10.1
 GDALSetCacheMax64@GDAL_1.8 1.8.0
 GDALSetCacheMax@GDAL_1.8 1.8.0
 GDALSetColorEntry@GDAL_1.8 1.8.0
 GDALSetDefaultHistogram@GDAL_1.8 1.8.0
 GDALSetDefaultRAT@GDAL_1.8 1.8.0
 GDALSetDescription@GDAL_1.8 1.8.0
 GDALSetGCPs@GDAL_1.8 1.8.0
 GDALSetGenImgProjTransformerDstGeoTransform@GDAL_1.8 1.8.0
 GDALSetGeoTransform@GDAL_1.8 1.8.0
 GDALSetMetadata@GDAL_1.8 1.8.0
 GDALSetMetadataItem@GDAL_1.8 1.8.0
 GDALSetProjection@GDAL_1.8 1.8.0
 GDALSetRasterCategoryNames@GDAL_1.8 1.8.0
 GDALSetRasterColorInterpretation@GDAL_1.8 1.8.0
 GDALSetRasterColorTable@GDAL_1.8 1.8.0
 GDALSetRasterNoDataValue@GDAL_1.8 1.8.0
 GDALSetRasterOffset@GDAL_1.8 1.8.0
 GDALSetRasterScale@GDAL_1.8 1.8.0
 GDALSetRasterStatistics@GDAL_1.8 1.8.0
 GDALSetRasterUnitType@GDAL_1.8 1.8.0
 GDALSieveFilter@GDAL_1.8 1.8.0
 GDALSimpleImageWarp@GDAL_1.8 1.8.0
 GDALSuggestedWarpOutput2@GDAL_1.8 1.8.0
 GDALSuggestedWarpOutput@GDAL_1.8 1.8.0
 GDALSwapWords@GDAL_1.8 1.8.0
 GDALTPSTransform@GDAL_1.8 1.8.0
 GDALTermProgress@GDAL_1.8 1.8.0
 GDALTransformGeolocations@GDAL_1.8 1.10.1
 GDALUseTransformer@GDAL_1.8 1.8.0
 GDALValidateCreationOptions@GDAL_1.8 1.8.0
 GDALVersionInfo@GDAL_1.8 1.8.0
 GDALWarpCutlineMasker@GDAL_1.8 1.8.0
 GDALWarpDstAlphaMasker@GDAL_1.8 1.8.0
 GDALWarpNoDataMasker@GDAL_1.8 1.8.0
 GDALWarpRegion@GDAL_1.8 1.8.0
 GDALWarpRegionToBuffer@GDAL_1.8 1.8.0
 GDALWarpSrcAlphaMasker@GDAL_1.8 1.8.0
 GDALWarpSrcMaskMasker@GDAL_1.8 1.8.0
 GDALWriteBlock@GDAL_1.8 1.8.0
 GDALWriteIMDFile@GDAL_1.8 1.8.0
 GDALWriteRPBFile@GDAL_1.8 1.8.0
 GDALWriteWorldFile@GDAL_1.8 1.8.0
 GDAL_1.8@GDAL_1.8 1.8.0
 GDAL_CG_Create@GDAL_1.8 1.8.0
 GDAL_CG_Destroy@GDAL_1.8 1.8.0
 GDAL_CG_FeedLine@GDAL_1.8 1.8.0
 GOA2GetAccessToken@GDAL_1.8 1.10.1
 GOA2GetAuthorizationURL@GDAL_1.8 1.10.1
 GOA2GetRefreshToken@GDAL_1.8 1.10.1
 GTIFFBuildOverviews@GDAL_1.8 1.8.0
 GTIFGetOGISDefn@GDAL_1.8 1.8.0
 GTIFMemBufFromWkt@GDAL_1.8 1.8.0
 GTIFSetFromOGISDefn@GDAL_1.8 1.8.0
 GTIFWktFromMemBuf@GDAL_1.8 1.8.0
 GetGDALDriverManager@GDAL_1.8 1.8.0
 HFAAuxBuildOverviews@GDAL_1.8 1.8.0
 HFAClose@GDAL_1.8 1.8.0
 HFACreate@GDAL_1.8 1.8.0
 HFACreateLL@GDAL_1.8 1.8.0
 HFACreateLayer@GDAL_1.8 1.8.0
 HFACreateOverview@GDAL_1.8 1.8.0
 HFADumpDictionary@GDAL_1.8 1.8.0
 HFADumpTree@GDAL_1.8 1.8.0
 HFAEvaluateXFormStack@GDAL_1.8 1.8.0
 HFAFlush@GDAL_1.8 1.8.0
 HFAGetBandInfo@GDAL_1.8 1.8.0
 HFAGetBandNoData@GDAL_1.8 1.8.0
 HFAGetDataRange@GDAL_1.8 1.8.0
 HFAGetDataTypeBits@GDAL_1.8 1.8.0
 HFAGetDataTypeName@GDAL_1.8 1.8.0
 HFAGetDatum@GDAL_1.8 1.8.0
 HFAGetGeoTransform@GDAL_1.8 1.8.0
 HFAGetIGEFilename@GDAL_1.8 1.8.0
 HFAGetMapInfo@GDAL_1.8 1.8.0
 HFAGetMetadata@GDAL_1.8 1.8.0
 HFAGetOverviewCount@GDAL_1.8 1.8.0
 HFAGetOverviewInfo@GDAL_1.8 1.8.0
 HFAGetOverviewRasterBlock@GDAL_1.8 1.8.0
 HFAGetOverviewRasterBlockEx@GDAL_1.8 1.8.0
 HFAGetPCT@GDAL_1.8 1.8.0
 HFAGetPEString@GDAL_1.8 1.8.0
 HFAGetProParameters@GDAL_1.8 1.8.0
 HFAGetRasterBlock@GDAL_1.8 1.8.0
 HFAGetRasterBlockEx@GDAL_1.8 1.8.0
 HFAGetRasterInfo@GDAL_1.8 1.8.0
 HFAOpen@GDAL_1.8 1.8.0
 HFAReadCameraModel@GDAL_1.8 1.8.0
 HFAReadXFormStack@GDAL_1.8 1.8.0
 HFASetBandNoData@GDAL_1.8 1.8.0
 HFASetDatum@GDAL_1.8 1.8.0
 HFASetGeoTransform@GDAL_1.8 1.8.0
 HFASetMapInfo@GDAL_1.8 1.8.0
 HFASetMetadata@GDAL_1.8 1.8.0
 HFASetOverviewRasterBlock@GDAL_1.8 1.8.0
 HFASetPCT@GDAL_1.8 1.8.0
 HFASetPEString@GDAL_1.8 1.8.0
 HFASetProParameters@GDAL_1.8 1.8.0
 HFASetRasterBlock@GDAL_1.8 1.8.0
 HFAWriteXFormStack@GDAL_1.8 1.8.0
 LibgeotiffOneTimeInit@GDAL_1.8 1.10.1
 MEMCreateRasterBand@GDAL_1.8 1.8.0
 NITFClose@GDAL_1.8 1.8.0
 NITFCollectAttachments@GDAL_1.8 1.8.0
 NITFCreate@GDAL_1.8 1.8.0
 NITFDESAccess@GDAL_1.8 1.8.0
 NITFDESDeaccess@GDAL_1.8 1.8.0
 NITFDESExtractShapefile@GDAL_1.8 1.8.0
 NITFDESFreeTREData@GDAL_1.8 1.8.0
 NITFDESGetTRE@GDAL_1.8 1.8.0
 NITFFindTRE@GDAL_1.8 1.8.0
 NITFFindTREByIndex@GDAL_1.8 1.8.0
 NITFGetSeriesInfo@GDAL_1.8 1.8.0
 NITFIHFieldOffset@GDAL_1.8 1.8.0
 NITFImageAccess@GDAL_1.8 1.8.0
 NITFImageDeaccess@GDAL_1.8 1.8.0
 NITFOpen@GDAL_1.8 1.8.0
 NITFRPCGeoToImage@GDAL_1.8 1.8.0
 NITFReadBLOCKA@GDAL_1.8 1.8.0
 NITFReadCSEXRA@GDAL_1.8 1.9.0
 NITFReadICHIPB@GDAL_1.8 1.8.0
 NITFReadImageBlock@GDAL_1.8 1.8.0
 NITFReadImageLine@GDAL_1.8 1.8.0
 NITFReadPIAIMC@GDAL_1.8 1.9.0
 NITFReadRPC00B@GDAL_1.8 1.8.0
 NITFReadSTDIDC@GDAL_1.8 1.8.0
 NITFReadUSE00A@GDAL_1.8 1.8.0
 NITFReconcileAttachments@GDAL_1.8 1.8.0
 NITFWriteIGEOLO@GDAL_1.8 1.8.0
 NITFWriteImageBlock@GDAL_1.8 1.8.0
 NITFWriteImageLine@GDAL_1.8 1.8.0
 NITFWriteLUT@GDAL_1.8 1.8.0
 NITF_WGS84_Geocentric_Latitude_To_Geodetic_Latitude@GDAL_1.8 1.8.0
 OCTDestroyCoordinateTransformation@GDAL_1.8 1.8.0
 OCTNewCoordinateTransformation@GDAL_1.8 1.8.0
 OCTTransform@GDAL_1.8 1.8.0
 OCTTransformEx@GDAL_1.8 1.8.0
 OGR2SQLITE_static_register@GDAL_1.8 1.10.1
 OGRBuildPolygonFromEdges@GDAL_1.8 1.8.0
 OGRCalloc@GDAL_1.8 1.8.0
 OGRCleanupAll@GDAL_1.8 1.8.0
 OGRContourWriter@GDAL_1.8 1.8.0
 OGRDeregisterDriver@GDAL_1.8 1.8.0
 OGRFree@GDAL_1.8 1.8.0
 OGRGeocode@GDAL_1.8 1.10.1
 OGRGeocodeCreateSession@GDAL_1.8 1.10.1
 OGRGeocodeDestroySession@GDAL_1.8 1.10.1
 OGRGeocodeFreeResult@GDAL_1.8 1.10.1
 OGRGeocodeReverse@GDAL_1.8 1.10.1
 OGRGeometryTypeToName@GDAL_1.8 1.8.0
 OGRGetDriver@GDAL_1.8 1.8.0
 OGRGetDriverByName@GDAL_1.8 1.8.0
 OGRGetDriverCount@GDAL_1.8 1.8.0
 OGRGetGenerate_DB2_V72_BYTE_ORDER@GDAL_1.8 1.8.0
 OGRGetOpenDS@GDAL_1.8 1.8.0
 OGRGetOpenDSCount@GDAL_1.8 1.8.0
 OGRMalloc@GDAL_1.8 1.8.0
 OGRMergeGeometryTypes@GDAL_1.8 1.8.0
 OGROpen@GDAL_1.8 1.8.0
 OGROpenShared@GDAL_1.8 1.8.0
 OGRParseDate@GDAL_1.8 1.8.0
 OGRRealloc@GDAL_1.8 1.8.0
 OGRRegisterAll@GDAL_1.8 1.8.0
 OGRRegisterDriver@GDAL_1.8 1.8.0
 OGRReleaseDataSource@GDAL_1.8 1.8.0
 OGRSetGenerate_DB2_V72_BYTE_ORDER@GDAL_1.8 1.8.0
 OGR_DS_CopyLayer@GDAL_1.8 1.8.0
 OGR_DS_CreateLayer@GDAL_1.8 1.8.0
 OGR_DS_DeleteLayer@GDAL_1.8 1.8.0
 OGR_DS_Dereference@GDAL_1.8 1.8.0
 OGR_DS_Destroy@GDAL_1.8 1.8.0
 OGR_DS_ExecuteSQL@GDAL_1.8 1.8.0
 OGR_DS_GetDriver@GDAL_1.8 1.8.0
 OGR_DS_GetLayer@GDAL_1.8 1.8.0
 OGR_DS_GetLayerByName@GDAL_1.8 1.8.0
 OGR_DS_GetLayerCount@GDAL_1.8 1.8.0
 OGR_DS_GetName@GDAL_1.8 1.8.0
 OGR_DS_GetRefCount@GDAL_1.8 1.8.0
 OGR_DS_GetStyleTable@GDAL_1.8 1.8.0
 OGR_DS_GetSummaryRefCount@GDAL_1.8 1.8.0
 OGR_DS_Reference@GDAL_1.8 1.8.0
 OGR_DS_ReleaseResultSet@GDAL_1.8 1.8.0
 OGR_DS_SetStyleTable@GDAL_1.8 1.8.0
 OGR_DS_SetStyleTableDirectly@GDAL_1.8 1.8.0
 OGR_DS_SyncToDisk@GDAL_1.8 1.8.0
 OGR_DS_TestCapability@GDAL_1.8 1.8.0
 OGR_Dr_CopyDataSource@GDAL_1.8 1.8.0
 OGR_Dr_CreateDataSource@GDAL_1.8 1.8.0
 OGR_Dr_DeleteDataSource@GDAL_1.8 1.8.0
 OGR_Dr_GetName@GDAL_1.8 1.8.0
 OGR_Dr_Open@GDAL_1.8 1.8.0
 OGR_Dr_TestCapability@GDAL_1.8 1.8.0
 OGR_FD_AddFieldDefn@GDAL_1.8 1.8.0
 OGR_FD_AddGeomFieldDefn@GDAL_1.8 1.11.0
 OGR_FD_Create@GDAL_1.8 1.8.0
 OGR_FD_DeleteFieldDefn@GDAL_1.8 1.9.0
 OGR_FD_DeleteGeomFieldDefn@GDAL_1.8 1.11.0
 OGR_FD_Dereference@GDAL_1.8 1.8.0
 OGR_FD_Destroy@GDAL_1.8 1.8.0
 OGR_FD_GetFieldCount@GDAL_1.8 1.8.0
 OGR_FD_GetFieldDefn@GDAL_1.8 1.8.0
 OGR_FD_GetFieldIndex@GDAL_1.8 1.8.0
 OGR_FD_GetGeomFieldCount@GDAL_1.8 1.11.0
 OGR_FD_GetGeomFieldDefn@GDAL_1.8 1.11.0
 OGR_FD_GetGeomFieldIndex@GDAL_1.8 1.11.0
 OGR_FD_GetGeomType@GDAL_1.8 1.8.0
 OGR_FD_GetName@GDAL_1.8 1.8.0
 OGR_FD_GetReferenceCount@GDAL_1.8 1.8.0
 OGR_FD_IsGeometryIgnored@GDAL_1.8 1.8.0
 OGR_FD_IsSame@GDAL_1.8 1.11.0
 OGR_FD_IsStyleIgnored@GDAL_1.8 1.8.0
 OGR_FD_Reference@GDAL_1.8 1.8.0
 OGR_FD_Release@GDAL_1.8 1.8.0
 OGR_FD_SetGeomType@GDAL_1.8 1.8.0
 OGR_FD_SetGeometryIgnored@GDAL_1.8 1.8.0
 OGR_FD_SetStyleIgnored@GDAL_1.8 1.8.0
 OGR_F_Clone@GDAL_1.8 1.8.0
 OGR_F_Create@GDAL_1.8 1.8.0
 OGR_F_Destroy@GDAL_1.8 1.8.0
 OGR_F_DumpReadable@GDAL_1.8 1.8.0
 OGR_F_Equal@GDAL_1.8 1.8.0
 OGR_F_GetDefnRef@GDAL_1.8 1.8.0
 OGR_F_GetFID@GDAL_1.8 1.8.0
 OGR_F_GetFieldAsBinary@GDAL_1.8 1.8.0
 OGR_F_GetFieldAsDateTime@GDAL_1.8 1.8.0
 OGR_F_GetFieldAsDouble@GDAL_1.8 1.8.0
 OGR_F_GetFieldAsDoubleList@GDAL_1.8 1.8.0
 OGR_F_GetFieldAsInteger@GDAL_1.8 1.8.0
 OGR_F_GetFieldAsIntegerList@GDAL_1.8 1.8.0
 OGR_F_GetFieldAsString@GDAL_1.8 1.8.0
 OGR_F_GetFieldAsStringList@GDAL_1.8 1.8.0
 OGR_F_GetFieldCount@GDAL_1.8 1.8.0
 OGR_F_GetFieldDefnRef@GDAL_1.8 1.8.0
 OGR_F_GetFieldIndex@GDAL_1.8 1.8.0
 OGR_F_GetGeomFieldCount@GDAL_1.8 1.11.0
 OGR_F_GetGeomFieldDefnRef@GDAL_1.8 1.11.0
 OGR_F_GetGeomFieldIndex@GDAL_1.8 1.11.0
 OGR_F_GetGeomFieldRef@GDAL_1.8 1.11.0
 OGR_F_GetGeometryRef@GDAL_1.8 1.8.0
 OGR_F_GetRawFieldRef@GDAL_1.8 1.8.0
 OGR_F_GetStyleString@GDAL_1.8 1.8.0
 OGR_F_GetStyleTable@GDAL_1.8 1.8.0
 OGR_F_IsFieldSet@GDAL_1.8 1.8.0
 OGR_F_SetFID@GDAL_1.8 1.8.0
 OGR_F_SetFieldBinary@GDAL_1.8 1.8.0
 OGR_F_SetFieldDateTime@GDAL_1.8 1.8.0
 OGR_F_SetFieldDouble@GDAL_1.8 1.8.0
 OGR_F_SetFieldDoubleList@GDAL_1.8 1.8.0
 OGR_F_SetFieldInteger@GDAL_1.8 1.8.0
 OGR_F_SetFieldIntegerList@GDAL_1.8 1.8.0
 OGR_F_SetFieldRaw@GDAL_1.8 1.8.0
 OGR_F_SetFieldString@GDAL_1.8 1.8.0
 OGR_F_SetFieldStringList@GDAL_1.8 1.8.0
 OGR_F_SetFrom@GDAL_1.8 1.8.0
 OGR_F_SetFromWithMap@GDAL_1.8 1.8.0
 OGR_F_SetGeomField@GDAL_1.8 1.11.0
 OGR_F_SetGeomFieldDirectly@GDAL_1.8 1.11.0
 OGR_F_SetGeometry@GDAL_1.8 1.8.0
 OGR_F_SetGeometryDirectly@GDAL_1.8 1.8.0
 OGR_F_SetStyleString@GDAL_1.8 1.8.0
 OGR_F_SetStyleStringDirectly@GDAL_1.8 1.8.0
 OGR_F_SetStyleTable@GDAL_1.8 1.8.0
 OGR_F_SetStyleTableDirectly@GDAL_1.8 1.8.0
 OGR_F_StealGeometry@GDAL_1.8 1.8.0
 OGR_F_UnsetField@GDAL_1.8 1.8.0
 OGR_Fld_Create@GDAL_1.8 1.8.0
 OGR_Fld_Destroy@GDAL_1.8 1.8.0
 OGR_Fld_GetJustify@GDAL_1.8 1.8.0
 OGR_Fld_GetNameRef@GDAL_1.8 1.8.0
 OGR_Fld_GetPrecision@GDAL_1.8 1.8.0
 OGR_Fld_GetType@GDAL_1.8 1.8.0
 OGR_Fld_GetWidth@GDAL_1.8 1.8.0
 OGR_Fld_IsIgnored@GDAL_1.8 1.8.0
 OGR_Fld_Set@GDAL_1.8 1.8.0
 OGR_Fld_SetIgnored@GDAL_1.8 1.8.0
 OGR_Fld_SetJustify@GDAL_1.8 1.8.0
 OGR_Fld_SetName@GDAL_1.8 1.8.0
 OGR_Fld_SetPrecision@GDAL_1.8 1.8.0
 OGR_Fld_SetType@GDAL_1.8 1.8.0
 OGR_Fld_SetWidth@GDAL_1.8 1.8.0
 OGR_GFld_Create@GDAL_1.8 1.11.0
 OGR_GFld_Destroy@GDAL_1.8 1.11.0
 OGR_GFld_GetNameRef@GDAL_1.8 1.11.0
 OGR_GFld_GetSpatialRef@GDAL_1.8 1.11.0
 OGR_GFld_GetType@GDAL_1.8 1.11.0
 OGR_GFld_IsIgnored@GDAL_1.8 1.11.0
 OGR_GFld_SetIgnored@GDAL_1.8 1.11.0
 OGR_GFld_SetName@GDAL_1.8 1.11.0
 OGR_GFld_SetSpatialRef@GDAL_1.8 1.11.0
 OGR_GFld_SetType@GDAL_1.8 1.11.0
 OGR_G_AddGeometry@GDAL_1.8 1.8.0
 OGR_G_AddGeometryDirectly@GDAL_1.8 1.8.0
 OGR_G_AddPoint@GDAL_1.8 1.8.0
 OGR_G_AddPoint_2D@GDAL_1.8 1.8.0
 OGR_G_ApproximateArcAngles@GDAL_1.8 1.8.0
 OGR_G_Area@GDAL_1.8 1.8.0
 OGR_G_AssignSpatialReference@GDAL_1.8 1.8.0
 OGR_G_Boundary@GDAL_1.8 1.8.0
 OGR_G_Buffer@GDAL_1.8 1.8.0
 OGR_G_Centroid@GDAL_1.8 1.8.0
 OGR_G_Clone@GDAL_1.8 1.8.0
 OGR_G_CloseRings@GDAL_1.8 1.8.0
 OGR_G_Contains@GDAL_1.8 1.8.0
 OGR_G_ConvexHull@GDAL_1.8 1.8.0
 OGR_G_CreateFromFgf@GDAL_1.8 1.8.0
 OGR_G_CreateFromGML@GDAL_1.8 1.8.0
 OGR_G_CreateFromGMLTree@GDAL_1.8 1.8.0
 OGR_G_CreateFromWkb@GDAL_1.8 1.8.0
 OGR_G_CreateFromWkt@GDAL_1.8 1.8.0
 OGR_G_CreateGeometry@GDAL_1.8 1.8.0
 OGR_G_CreateGeometryFromJson@GDAL_1.8 1.8.0
 OGR_G_Crosses@GDAL_1.8 1.8.0
 OGR_G_DestroyGeometry@GDAL_1.8 1.8.0
 OGR_G_Difference@GDAL_1.8 1.8.0
 OGR_G_Disjoint@GDAL_1.8 1.8.0
 OGR_G_Distance@GDAL_1.8 1.8.0
 OGR_G_DumpReadable@GDAL_1.8 1.8.0
 OGR_G_Empty@GDAL_1.8 1.8.0
 OGR_G_Equal@GDAL_1.8 1.8.0
 OGR_G_Equals@GDAL_1.8 1.8.0
 OGR_G_ExportEnvelopeToGMLTree@GDAL_1.8 1.8.0
 OGR_G_ExportToGML@GDAL_1.8 1.8.0
 OGR_G_ExportToGMLEx@GDAL_1.8 1.8.0
 OGR_G_ExportToGMLTree@GDAL_1.8 1.8.0
 OGR_G_ExportToJson@GDAL_1.8 1.8.0
 OGR_G_ExportToJsonEx@GDAL_1.8 1.9.0
 OGR_G_ExportToKML@GDAL_1.8 1.8.0
 OGR_G_ExportToWkb@GDAL_1.8 1.8.0
 OGR_G_ExportToWkt@GDAL_1.8 1.8.0
 OGR_G_FlattenTo2D@GDAL_1.8 1.8.0
 OGR_G_ForceToLineString@GDAL_1.8 1.10.1
 OGR_G_ForceToMultiLineString@GDAL_1.8 1.8.0
 OGR_G_ForceToMultiPoint@GDAL_1.8 1.8.0
 OGR_G_ForceToMultiPolygon@GDAL_1.8 1.8.0
 OGR_G_ForceToPolygon@GDAL_1.8 1.8.0
 OGR_G_GetArea@GDAL_1.8 1.8.0
 OGR_G_GetBoundary@GDAL_1.8 1.8.0
 OGR_G_GetCoordinateDimension@GDAL_1.8 1.8.0
 OGR_G_GetDimension@GDAL_1.8 1.8.0
 OGR_G_GetEnvelope3D@GDAL_1.8 1.9.0
 OGR_G_GetEnvelope@GDAL_1.8 1.8.0
 OGR_G_GetGeometryCount@GDAL_1.8 1.8.0
 OGR_G_GetGeometryName@GDAL_1.8 1.8.0
 OGR_G_GetGeometryRef@GDAL_1.8 1.8.0
 OGR_G_GetGeometryType@GDAL_1.8 1.8.0
 OGR_G_GetPoint@GDAL_1.8 1.8.0
 OGR_G_GetPointCount@GDAL_1.8 1.8.0
 OGR_G_GetPoints@GDAL_1.8 1.9.0
 OGR_G_GetSpatialReference@GDAL_1.8 1.8.0
 OGR_G_GetX@GDAL_1.8 1.8.0
 OGR_G_GetY@GDAL_1.8 1.8.0
 OGR_G_GetZ@GDAL_1.8 1.8.0
 OGR_G_ImportFromWkb@GDAL_1.8 1.8.0
 OGR_G_ImportFromWkt@GDAL_1.8 1.8.0
 OGR_G_Intersect@GDAL_1.8 1.8.0
 OGR_G_Intersection@GDAL_1.8 1.8.0
 OGR_G_Intersects@GDAL_1.8 1.8.0
 OGR_G_IsEmpty@GDAL_1.8 1.8.0
 OGR_G_IsRing@GDAL_1.8 1.8.0
 OGR_G_IsSimple@GDAL_1.8 1.8.0
 OGR_G_IsValid@GDAL_1.8 1.8.0
 OGR_G_Length@GDAL_1.8 1.8.0
 OGR_G_Overlaps@GDAL_1.8 1.8.0
 OGR_G_PointOnSurface@GDAL_1.8 1.10.1
 OGR_G_Polygonize@GDAL_1.8 1.9.0
 OGR_G_RemoveGeometry@GDAL_1.8 1.8.0
 OGR_G_Segmentize@GDAL_1.8 1.8.0
 OGR_G_SetCoordinateDimension@GDAL_1.8 1.8.0
 OGR_G_SetPoint@GDAL_1.8 1.8.0
 OGR_G_SetPointCount@GDAL_1.8 1.11.0
 OGR_G_SetPoint_2D@GDAL_1.8 1.8.0
 OGR_G_SetPoints@GDAL_1.8 1.11.0
 OGR_G_Simplify@GDAL_1.8 1.8.0
 OGR_G_SimplifyPreserveTopology@GDAL_1.8 1.9.0
 OGR_G_SymDifference@GDAL_1.8 1.8.0
 OGR_G_SymmetricDifference@GDAL_1.8 1.8.0
 OGR_G_Touches@GDAL_1.8 1.8.0
 OGR_G_Transform@GDAL_1.8 1.8.0
 OGR_G_TransformTo@GDAL_1.8 1.8.0
 OGR_G_Union@GDAL_1.8 1.8.0
 OGR_G_UnionCascaded@GDAL_1.8 1.8.0
 OGR_G_Within@GDAL_1.8 1.8.0
 OGR_G_WkbSize@GDAL_1.8 1.8.0
 OGR_GetFieldTypeName@GDAL_1.8 1.8.0
 OGR_L_AlterFieldDefn@GDAL_1.8 1.9.0
 OGR_L_Clip@GDAL_1.8 1.10.1
 OGR_L_CommitTransaction@GDAL_1.8 1.8.0
 OGR_L_CreateFeature@GDAL_1.8 1.8.0
 OGR_L_CreateField@GDAL_1.8 1.8.0
 OGR_L_CreateGeomField@GDAL_1.8 1.11.0
 OGR_L_DeleteFeature@GDAL_1.8 1.8.0
 OGR_L_DeleteField@GDAL_1.8 1.9.0
 OGR_L_Dereference@GDAL_1.8 1.8.0
 OGR_L_Erase@GDAL_1.8 1.10.1
 OGR_L_FindFieldIndex@GDAL_1.8 1.11.0
 OGR_L_GetExtent@GDAL_1.8 1.8.0
 OGR_L_GetExtentEx@GDAL_1.8 1.11.0
 OGR_L_GetFIDColumn@GDAL_1.8 1.8.0
 OGR_L_GetFeature@GDAL_1.8 1.8.0
 OGR_L_GetFeatureCount@GDAL_1.8 1.8.0
 OGR_L_GetFeaturesRead@GDAL_1.8 1.8.0
 OGR_L_GetGeomType@GDAL_1.8 1.8.0
 OGR_L_GetGeometryColumn@GDAL_1.8 1.8.0
 OGR_L_GetLayerDefn@GDAL_1.8 1.8.0
 OGR_L_GetName@GDAL_1.8 1.8.0
 OGR_L_GetNextFeature@GDAL_1.8 1.8.0
 OGR_L_GetRefCount@GDAL_1.8 1.8.0
 OGR_L_GetSpatialFilter@GDAL_1.8 1.8.0
 OGR_L_GetSpatialRef@GDAL_1.8 1.8.0
 OGR_L_GetStyleTable@GDAL_1.8 1.8.0
 OGR_L_Identity@GDAL_1.8 1.10.1
 OGR_L_Intersection@GDAL_1.8 1.10.1
 OGR_L_Reference@GDAL_1.8 1.8.0
 OGR_L_ReorderField@GDAL_1.8 1.9.0
 OGR_L_ReorderFields@GDAL_1.8 1.9.0
 OGR_L_ResetReading@GDAL_1.8 1.8.0
 OGR_L_RollbackTransaction@GDAL_1.8 1.8.0
 OGR_L_SetAttributeFilter@GDAL_1.8 1.8.0
 OGR_L_SetFeature@GDAL_1.8 1.8.0
 OGR_L_SetIgnoredFields@GDAL_1.8 1.8.0
 OGR_L_SetNextByIndex@GDAL_1.8 1.8.0
 OGR_L_SetSpatialFilter@GDAL_1.8 1.8.0
 OGR_L_SetSpatialFilterEx@GDAL_1.8 1.11.0
 OGR_L_SetSpatialFilterRect@GDAL_1.8 1.8.0
 OGR_L_SetSpatialFilterRectEx@GDAL_1.8 1.11.0
 OGR_L_SetStyleTable@GDAL_1.8 1.8.0
 OGR_L_SetStyleTableDirectly@GDAL_1.8 1.8.0
 OGR_L_StartTransaction@GDAL_1.8 1.8.0
 OGR_L_SymDifference@GDAL_1.8 1.10.1
 OGR_L_SyncToDisk@GDAL_1.8 1.8.0
 OGR_L_TestCapability@GDAL_1.8 1.8.0
 OGR_L_Union@GDAL_1.8 1.10.1
 OGR_L_Update@GDAL_1.8 1.10.1
 OGR_SM_AddPart@GDAL_1.8 1.8.0
 OGR_SM_AddStyle@GDAL_1.8 1.8.0
 OGR_SM_Create@GDAL_1.8 1.8.0
 OGR_SM_Destroy@GDAL_1.8 1.8.0
 OGR_SM_GetPart@GDAL_1.8 1.8.0
 OGR_SM_GetPartCount@GDAL_1.8 1.8.0
 OGR_SM_InitFromFeature@GDAL_1.8 1.8.0
 OGR_SM_InitStyleString@GDAL_1.8 1.8.0
 OGR_STBL_AddStyle@GDAL_1.8 1.11.0
 OGR_STBL_Create@GDAL_1.8 1.8.0
 OGR_STBL_Destroy@GDAL_1.8 1.8.0
 OGR_STBL_Find@GDAL_1.8 1.8.0
 OGR_STBL_GetLastStyleName@GDAL_1.8 1.8.0
 OGR_STBL_GetNextStyle@GDAL_1.8 1.8.0
 OGR_STBL_LoadStyleTable@GDAL_1.8 1.8.0
 OGR_STBL_ResetStyleStringReading@GDAL_1.8 1.8.0
 OGR_STBL_SaveStyleTable@GDAL_1.8 1.8.0
 OGR_ST_Create@GDAL_1.8 1.8.0
 OGR_ST_Destroy@GDAL_1.8 1.8.0
 OGR_ST_GetParamDbl@GDAL_1.8 1.8.0
 OGR_ST_GetParamNum@GDAL_1.8 1.8.0
 OGR_ST_GetParamStr@GDAL_1.8 1.8.0
 OGR_ST_GetRGBFromString@GDAL_1.8 1.8.0
 OGR_ST_GetStyleString@GDAL_1.8 1.8.0
 OGR_ST_GetType@GDAL_1.8 1.8.0
 OGR_ST_GetUnit@GDAL_1.8 1.8.0
 OGR_ST_SetParamDbl@GDAL_1.8 1.8.0
 OGR_ST_SetParamNum@GDAL_1.8 1.8.0
 OGR_ST_SetParamStr@GDAL_1.8 1.8.0
 OGR_ST_SetUnit@GDAL_1.8 1.8.0
 OPTGetParameterInfo@GDAL_1.8 1.8.0
 OPTGetParameterList@GDAL_1.8 1.8.0
 OPTGetProjectionMethods@GDAL_1.8 1.8.0
 OSRAutoIdentifyEPSG@GDAL_1.8 1.8.0
 OSRAxisEnumToName@GDAL_1.8 1.8.0
 OSRCleanup@GDAL_1.8 1.8.0
 OSRClone@GDAL_1.8 1.8.0
 OSRCloneGeogCS@GDAL_1.8 1.8.0
 OSRCopyGeogCSFrom@GDAL_1.8 1.8.0
 OSRDereference@GDAL_1.8 1.8.0
 OSRDestroySpatialReference@GDAL_1.8 1.8.0
 OSREPSGTreatsAsLatLong@GDAL_1.8 1.8.0
 OSREPSGTreatsAsNorthingEasting@GDAL_1.8 1.10.1
 OSRExportToERM@GDAL_1.8 1.8.0
 OSRExportToMICoordSys@GDAL_1.8 1.8.0
 OSRExportToPCI@GDAL_1.8 1.8.0
 OSRExportToPanorama@GDAL_1.8 1.8.0
 OSRExportToPrettyWkt@GDAL_1.8 1.8.0
 OSRExportToProj4@GDAL_1.8 1.8.0
 OSRExportToUSGS@GDAL_1.8 1.8.0
 OSRExportToWkt@GDAL_1.8 1.8.0
 OSRExportToXML@GDAL_1.8 1.8.0
 OSRFixup@GDAL_1.8 1.8.0
 OSRFixupOrdering@GDAL_1.8 1.8.0
 OSRGetAngularUnits@GDAL_1.8 1.8.0
 OSRGetAttrValue@GDAL_1.8 1.8.0
 OSRGetAuthorityCode@GDAL_1.8 1.8.0
 OSRGetAuthorityName@GDAL_1.8 1.8.0
 OSRGetAxis@GDAL_1.8 1.8.0
 OSRGetInvFlattening@GDAL_1.8 1.8.0
 OSRGetLinearUnits@GDAL_1.8 1.8.0
 OSRGetNormProjParm@GDAL_1.8 1.8.0
 OSRGetPrimeMeridian@GDAL_1.8 1.8.0
 OSRGetProjParm@GDAL_1.8 1.8.0
 OSRGetSemiMajor@GDAL_1.8 1.8.0
 OSRGetSemiMinor@GDAL_1.8 1.8.0
 OSRGetTOWGS84@GDAL_1.8 1.8.0
 OSRGetTargetLinearUnits@GDAL_1.8 1.9.0
 OSRGetUTMZone@GDAL_1.8 1.8.0
 OSRImportFromDict@GDAL_1.8 1.8.0
 OSRImportFromEPSG@GDAL_1.8 1.8.0
 OSRImportFromEPSGA@GDAL_1.8 1.8.0
 OSRImportFromERM@GDAL_1.8 1.8.0
 OSRImportFromESRI@GDAL_1.8 1.8.0
 OSRImportFromMICoordSys@GDAL_1.8 1.8.0
 OSRImportFromOzi@GDAL_1.8 1.8.0
 OSRImportFromPCI@GDAL_1.8 1.8.0
 OSRImportFromPanorama@GDAL_1.8 1.8.0
 OSRImportFromProj4@GDAL_1.8 1.8.0
 OSRImportFromUSGS@GDAL_1.8 1.8.0
 OSRImportFromUrl@GDAL_1.8 1.8.0
 OSRImportFromWkt@GDAL_1.8 1.8.0
 OSRImportFromXML@GDAL_1.8 1.8.0
 OSRIsCompound@GDAL_1.8 1.9.0
 OSRIsGeocentric@GDAL_1.8 1.9.0
 OSRIsGeographic@GDAL_1.8 1.8.0
 OSRIsLocal@GDAL_1.8 1.8.0
 OSRIsProjected@GDAL_1.8 1.8.0
 OSRIsSame@GDAL_1.8 1.8.0
 OSRIsSameGeogCS@GDAL_1.8 1.8.0
 OSRIsSameVertCS@GDAL_1.8 1.9.0
 OSRIsVertical@GDAL_1.8 1.8.0
 OSRMorphFromESRI@GDAL_1.8 1.8.0
 OSRMorphToESRI@GDAL_1.8 1.8.0
 OSRNewSpatialReference@GDAL_1.8 1.8.0
 OSRReference@GDAL_1.8 1.8.0
 OSRRelease@GDAL_1.8 1.8.0
 OSRSetACEA@GDAL_1.8 1.8.0
 OSRSetAE@GDAL_1.8 1.8.0
 OSRSetAngularUnits@GDAL_1.8 1.8.0
 OSRSetAttrValue@GDAL_1.8 1.8.0
 OSRSetAuthority@GDAL_1.8 1.8.0
 OSRSetBonne@GDAL_1.8 1.8.0
 OSRSetCEA@GDAL_1.8 1.8.0
 OSRSetCS@GDAL_1.8 1.8.0
 OSRSetCompoundCS@GDAL_1.8 1.9.0
 OSRSetEC@GDAL_1.8 1.8.0
 OSRSetEckert@GDAL_1.8 1.8.0
 OSRSetEckertIV@GDAL_1.8 1.8.0
 OSRSetEckertVI@GDAL_1.8 1.8.0
 OSRSetEquirectangular2@GDAL_1.8 1.8.0
 OSRSetEquirectangular@GDAL_1.8 1.8.0
 OSRSetFromUserInput@GDAL_1.8 1.8.0
 OSRSetGEOS@GDAL_1.8 1.8.0
 OSRSetGH@GDAL_1.8 1.8.0
 OSRSetGS@GDAL_1.8 1.8.0
 OSRSetGaussSchreiberTMercator@GDAL_1.8 1.8.0
 OSRSetGeocCS@GDAL_1.8 1.9.0
 OSRSetGeogCS@GDAL_1.8 1.8.0
 OSRSetGnomonic@GDAL_1.8 1.8.0
 OSRSetHOM2PNO@GDAL_1.8 1.8.0
 OSRSetHOM@GDAL_1.8 1.8.0
 OSRSetIGH@GDAL_1.8 1.9.0
 OSRSetIWMPolyconic@GDAL_1.8 1.8.0
 OSRSetKrovak@GDAL_1.8 1.8.0
 OSRSetLAEA@GDAL_1.8 1.8.0
 OSRSetLCC1SP@GDAL_1.8 1.8.0
 OSRSetLCC@GDAL_1.8 1.8.0
 OSRSetLCCB@GDAL_1.8 1.8.0
 OSRSetLinearUnits@GDAL_1.8 1.8.0
 OSRSetLinearUnitsAndUpdateParameters@GDAL_1.8 1.8.0
 OSRSetLocalCS@GDAL_1.8 1.8.0
 OSRSetMC@GDAL_1.8 1.8.0
 OSRSetMercator@GDAL_1.8 1.8.0
 OSRSetMollweide@GDAL_1.8 1.8.0
 OSRSetNZMG@GDAL_1.8 1.8.0
 OSRSetNormProjParm@GDAL_1.8 1.8.0
 OSRSetOS@GDAL_1.8 1.8.0
 OSRSetOrthographic@GDAL_1.8 1.8.0
 OSRSetPS@GDAL_1.8 1.8.0
 OSRSetPolyconic@GDAL_1.8 1.8.0
 OSRSetProjCS@GDAL_1.8 1.8.0
 OSRSetProjParm@GDAL_1.8 1.8.0
 OSRSetProjection@GDAL_1.8 1.8.0
 OSRSetRobinson@GDAL_1.8 1.8.0
 OSRSetSOC@GDAL_1.8 1.8.0
 OSRSetSinusoidal@GDAL_1.8 1.8.0
 OSRSetStatePlane@GDAL_1.8 1.8.0
 OSRSetStatePlaneWithUnits@GDAL_1.8 1.8.0
 OSRSetStereographic@GDAL_1.8 1.8.0
 OSRSetTM@GDAL_1.8 1.8.0
 OSRSetTMG@GDAL_1.8 1.8.0
 OSRSetTMSO@GDAL_1.8 1.8.0
 OSRSetTMVariant@GDAL_1.8 1.8.0
 OSRSetTOWGS84@GDAL_1.8 1.8.0
 OSRSetTargetLinearUnits@GDAL_1.8 1.9.0
 OSRSetUTM@GDAL_1.8 1.8.0
 OSRSetVDG@GDAL_1.8 1.8.0
 OSRSetVertCS@GDAL_1.8 1.9.0
 OSRSetWellKnownGeogCS@GDAL_1.8 1.8.0
 OSRStripCTParms@GDAL_1.8 1.8.0
 OSRValidate@GDAL_1.8 1.8.0
 ParseAlgorithmAndOptions@GDAL_1.8 1.8.0
 RECGetField@GDAL_1.8 1.8.0
 RECGetFieldCount@GDAL_1.8 1.8.0
 RECGetFieldDefinition@GDAL_1.8 1.8.0
 RECReadRecord@GDAL_1.8 1.8.0
 RPCInfoToMD@GDAL_1.8 1.10.1
 RPFTOCFree@GDAL_1.8 1.8.0
 RPFTOCRead@GDAL_1.8 1.8.0
 RPFTOCReadFromBuffer@GDAL_1.8 1.8.0
 RegisterOGRARCGEN@GDAL_1.8 1.9.0
 RegisterOGRAVCBin@GDAL_1.8 1.8.0
 RegisterOGRAVCE00@GDAL_1.8 1.8.0
 RegisterOGRAeronavFAA@GDAL_1.8 1.8.0
 RegisterOGRBNA@GDAL_1.8 1.8.0
 RegisterOGRCSV@GDAL_1.8 1.8.0
 RegisterOGRCartoDB@GDAL_1.8 1.11.0
 RegisterOGRCouchDB@GDAL_1.8 1.9.0
 RegisterOGRDGN@GDAL_1.8 1.8.0
 RegisterOGRDODS@GDAL_1.8 1.8.0
 RegisterOGRDXF@GDAL_1.8 1.8.0
 RegisterOGREDIGEO@GDAL_1.8 1.9.0
 RegisterOGRElastic@GDAL_1.8 1.10.1
 RegisterOGRGFT@GDAL_1.8 1.9.0
 RegisterOGRGME@GDAL_1.8 1.11.0
 RegisterOGRGML@GDAL_1.8 1.8.0
 RegisterOGRGMT@GDAL_1.8 1.8.0
 RegisterOGRGPSBabel@GDAL_1.8 1.8.0
 RegisterOGRGPX@GDAL_1.8 1.8.0
 RegisterOGRGTM@GDAL_1.8 1.8.0
 RegisterOGRGeoJSON@GDAL_1.8 1.8.0
 RegisterOGRGeoPackage@GDAL_1.8 1.11.0
 RegisterOGRGeoRSS@GDAL_1.8 1.8.0
 RegisterOGRGeoconcept@GDAL_1.8 1.8.0
 RegisterOGRGeomedia@GDAL_1.8 1.9.0
 RegisterOGRHTF@GDAL_1.8 1.8.0
 RegisterOGRILI1@GDAL_1.8 1.8.0
 RegisterOGRILI2@GDAL_1.8 1.8.0
 RegisterOGRIdrisi@GDAL_1.8 1.9.0
 RegisterOGRKML@GDAL_1.8 1.8.0
 RegisterOGRLIBKML@GDAL_1.8 1.9.0
 RegisterOGRMEM@GDAL_1.8 1.8.0
 RegisterOGRMSSQLSpatial@GDAL_1.8 1.8.0
 RegisterOGRMySQL@GDAL_1.8 1.8.0
 RegisterOGRNAS@GDAL_1.8 1.8.0
 RegisterOGRNTF@GDAL_1.8 1.8.0
 RegisterOGRODBC@GDAL_1.8 1.8.0
 RegisterOGRODS@GDAL_1.8 1.10.1
 RegisterOGROGDI@GDAL_1.8 1.8.0
 RegisterOGROSM@GDAL_1.8 1.10.1
 RegisterOGROpenAir@GDAL_1.8 1.8.0
 RegisterOGROpenFileGDB@GDAL_1.8 1.11.0
 RegisterOGRPCIDSK@GDAL_1.8 1.8.0
 RegisterOGRPDF@GDAL_1.8 1.10.1
 RegisterOGRPDS@GDAL_1.8 1.8.0
 RegisterOGRPG@GDAL_1.8 1.8.0
 RegisterOGRPGDump@GDAL_1.8 1.8.0
 RegisterOGRPGeo@GDAL_1.8 1.8.0
 RegisterOGRREC@GDAL_1.8 1.8.0
 RegisterOGRS57@GDAL_1.8 1.8.0
 RegisterOGRSDTS@GDAL_1.8 1.8.0
 RegisterOGRSEGUKOOA@GDAL_1.8 1.9.0
 RegisterOGRSEGY@GDAL_1.8 1.9.0
 RegisterOGRSQLite@GDAL_1.8 1.8.0
 RegisterOGRSUA@GDAL_1.8 1.8.0
 RegisterOGRSVG@GDAL_1.8 1.9.0
 RegisterOGRSXF@GDAL_1.8 1.11.0
 RegisterOGRShape@GDAL_1.8 1.8.0
 RegisterOGRTAB@GDAL_1.8 1.8.0
 RegisterOGRTiger@GDAL_1.8 1.8.0
 RegisterOGRVFK@GDAL_1.8 1.8.0
 RegisterOGRVRT@GDAL_1.8 1.8.0
 RegisterOGRWAsP@GDAL_1.8 1.11.0
 RegisterOGRWFS@GDAL_1.8 1.8.0
 RegisterOGRWalk@GDAL_1.8 1.11.0
 RegisterOGRXLS@GDAL_1.8 1.9.0
 RegisterOGRXLSX@GDAL_1.8 1.10.1
 RegisterOGRXPlane@GDAL_1.8 1.8.0
 SASetupDefaultHooks@GDAL_1.8 1.8.0
 SBNCloseDiskTree@GDAL_1.8 1.10.1
 SBNOpenDiskTree@GDAL_1.8 1.10.1
 SBNSearchDiskTree@GDAL_1.8 1.10.1
 SBNSearchDiskTreeInteger@GDAL_1.8 1.10.1
 SBNSearchFreeIds@GDAL_1.8 1.10.1
 SHPCheckBoundsOverlap@GDAL_1.8 1.8.0
 SHPClose@GDAL_1.8 1.8.0
 SHPCloseDiskTree@GDAL_1.8 1.9.0
 SHPComputeExtents@GDAL_1.8 1.8.0
 SHPCreate@GDAL_1.8 1.8.0
 SHPCreateLL@GDAL_1.8 1.8.0
 SHPCreateObject@GDAL_1.8 1.8.0
 SHPCreateSimpleObject@GDAL_1.8 1.8.0
 SHPCreateTree@GDAL_1.8 1.8.0
 SHPDestroyObject@GDAL_1.8 1.8.0
 SHPDestroyTree@GDAL_1.8 1.8.0
 SHPGetInfo@GDAL_1.8 1.8.0
 SHPOpen@GDAL_1.8 1.8.0
 SHPOpenDiskTree@GDAL_1.8 1.9.0
 SHPOpenLL@GDAL_1.8 1.8.0
 SHPPartTypeName@GDAL_1.8 1.8.0
 SHPReadObject@GDAL_1.8 1.8.0
 SHPRewindObject@GDAL_1.8 1.8.0
 SHPSearchDiskTree@GDAL_1.8 1.8.0
 SHPSearchDiskTreeEx@GDAL_1.8 1.9.0
 SHPSetFastModeReadObject@GDAL_1.8 1.11.0
 SHPTreeAddShapeId@GDAL_1.8 1.8.0
 SHPTreeCollectShapeIds@GDAL_1.8 1.8.0
 SHPTreeFindLikelyShapes@GDAL_1.8 1.8.0
 SHPTreeSplitBounds@GDAL_1.8 1.8.0
 SHPTreeTrimExtraNodes@GDAL_1.8 1.8.0
 SHPTypeName@GDAL_1.8 1.8.0
 SHPWriteHeader@GDAL_1.8 1.8.0
 SHPWriteObject@GDAL_1.8 1.8.0
 SHPWriteTree@GDAL_1.8 1.8.0
 SHPWriteTreeLL@GDAL_1.8 1.9.0
 SetCSVFilenameHook@GDAL_1.8 1.8.0
 VRTAddBand@GDAL_1.8 1.8.0
 VRTAddComplexSource@GDAL_1.8 1.8.0
 VRTAddFuncSource@GDAL_1.8 1.8.0
 VRTAddSimpleSource@GDAL_1.8 1.8.0
 VRTCreate@GDAL_1.8 1.8.0
 VRTFlushCache@GDAL_1.8 1.8.0
 VRTSerializeToXML@GDAL_1.8 1.8.0
 VSICTime@GDAL_1.8 1.8.0
 VSICalloc@GDAL_1.8 1.8.0
 VSICleanupFileManager@GDAL_1.8 1.8.0
 VSIFClose@GDAL_1.8 1.8.0
 VSIFCloseL@GDAL_1.8 1.8.0
 VSIFEof@GDAL_1.8 1.8.0
 VSIFEofL@GDAL_1.8 1.8.0
 VSIFFlush@GDAL_1.8 1.8.0
 VSIFFlushL@GDAL_1.8 1.8.0
 VSIFGetNativeFileDescriptorL@GDAL_1.8 1.11.0
 VSIFGetc@GDAL_1.8 1.8.0
 VSIFGets@GDAL_1.8 1.8.0
 VSIFOpen@GDAL_1.8 1.8.0
 VSIFOpenL@GDAL_1.8 1.8.0
 VSIFPrintf@GDAL_1.8 1.8.0
 VSIFPrintfL@GDAL_1.8 1.8.0
 VSIFPutc@GDAL_1.8 1.8.0
 VSIFPutcL@GDAL_1.8 1.8.0
 VSIFPuts@GDAL_1.8 1.8.0
 VSIFRead@GDAL_1.8 1.8.0
 VSIFReadL@GDAL_1.8 1.8.0
 VSIFReadMultiRangeL@GDAL_1.8 1.9.0
 VSIFSeek@GDAL_1.8 1.8.0
 VSIFSeekL@GDAL_1.8 1.8.0
 VSIFTell@GDAL_1.8 1.8.0
 VSIFTellL@GDAL_1.8 1.8.0
 VSIFTruncateL@GDAL_1.8 1.9.0
 VSIFWrite@GDAL_1.8 1.8.0
 VSIFWriteL@GDAL_1.8 1.8.0
 VSIFileFromMemBuffer@GDAL_1.8 1.8.0
 VSIFree@GDAL_1.8 1.8.0
 VSIGMTime@GDAL_1.8 1.8.0
 VSIGetMemFileBuffer@GDAL_1.8 1.8.0
 VSIIngestFile@GDAL_1.8 1.11.0
 VSIInstallLargeFileHandler@GDAL_1.8 1.8.0
 VSIInstallMemFileHandler@GDAL_1.8 1.8.0
 VSIInstallSparseFileHandler@GDAL_1.8 1.8.0
 VSIInstallSubFileHandler@GDAL_1.8 1.8.0
 VSIIsCaseSensitiveFS@GDAL_1.8 1.8.0
 VSILocalTime@GDAL_1.8 1.8.0
 VSIMalloc2@GDAL_1.8 1.8.0
 VSIMalloc3@GDAL_1.8 1.8.0
 VSIMalloc@GDAL_1.8 1.8.0
 VSIMkdir@GDAL_1.8 1.8.0
 VSIReadDir@GDAL_1.8 1.8.0
 VSIReadDirRecursive@GDAL_1.8 1.10.1
 VSIRealloc@GDAL_1.8 1.8.0
 VSIRename@GDAL_1.8 1.8.0
 VSIRewind@GDAL_1.8 1.8.0
 VSIRewindL@GDAL_1.8 1.8.0
 VSIRmdir@GDAL_1.8 1.8.0
 VSIStat@GDAL_1.8 1.8.0
 VSIStatExL@GDAL_1.8 1.8.0
 VSIStatL@GDAL_1.8 1.8.0
 VSIStrdup@GDAL_1.8 1.8.0
 VSIStrerror@GDAL_1.8 1.8.0
 VSITime@GDAL_1.8 1.8.0
 VSIUngetc@GDAL_1.8 1.8.0
 VSIUnlink@GDAL_1.8 1.8.0
 _CPLAssert@GDAL_1.8 1.8.0
 _Z11PamGetProxyPKc@GDAL_1.8 1.8.0 1
 _Z12CPLURLAddKVPPKcS0_S0_@GDAL_1.8 1.9.0 1
 _Z14CPLURLGetValuePKcS0_@GDAL_1.8 1.9.0 1
 _Z15OGRGetDayOfWeekiii@GDAL_1.8 1.8.0 1
 _Z15OGRWktReadTokenPKcPc@GDAL_1.8 1.8.0 1
 _Z15PamCleanProxyDBv@GDAL_1.8 1.8.0 1
 _Z16OGRToOGCGeomType18OGRwkbGeometryType@GDAL_1.8 1.8.0 1
 _Z16OGRWktReadPointsPKcPP11OGRRawPointPPdPiS6_@GDAL_1.8 1.8.0 1
 _Z16PamAllocateProxyPKc@GDAL_1.8 1.8.0 1
 _Z17CPLHTTPFetchMultiP14CPLHTTPRequestiPKPKc@GDAL_1.8 1.8.0 1
 _Z17OGRGetXMLDateTimeiiiiiii@GDAL_1.8 1.8.0 1
 _Z17PamParseHistogramP10CPLXMLNodePdS1_PiPS2_S2_S2_@GDAL_1.8 1.8.0 1
 _Z18OGRFromOGCGeomTypePKc@GDAL_1.8 1.8.0 1
 _Z18OGRWriteToShapeBinP11OGRGeometryPPhPi@GDAL_1.8 1.9.0 1
 _Z19CPLUnixTimeToYMDHMSxP2tm@GDAL_1.8 1.8.0 1
 _Z19CPLYMDHMSToUnixTimePK2tm@GDAL_1.8 1.8.0 1
 _Z19OGRCheckPermutationPii@GDAL_1.8 1.9.0 1
 _Z19OGRGeometryFromEWKBPhiPi@GDAL_1.8 1.11.0 1
 _Z19OGRParseXMLDateTimePKcPiS1_S1_S1_S1_PfS1_@GDAL_1.8 1.8.0 1
 _Z19OSRGetEllipsoidInfoiPPcPdS1_@GDAL_1.8 1.8.0 1
 _Z20GDALCloneTransformerPv@GDAL_1.8 1.10.1 1
 _Z20OGRGeometryToHexEWKBP11OGRGeometryi@GDAL_1.8 1.11.0 1
 _Z20OGRGetRFC822DateTimeiiiiiii@GDAL_1.8 1.8.0 1
 _Z20OGRMakeWktCoordinatePcdddi@GDAL_1.8 1.8.0 1
 _Z21CPLHTTPCleanupRequestP14CPLHTTPRequest@GDAL_1.8 1.8.0 1
 _Z21OGRCreateFromShapeBinPhPP11OGRGeometryi@GDAL_1.8 1.9.0 1
 _Z21PamHistogramToXMLTreeddiPiii@GDAL_1.8 1.8.0 1
 _Z22OGRGeometryFromHexEWKBPKcPi@GDAL_1.8 1.11.0 1
 _Z22OGRParseRFC822DateTimePKcPiS1_S1_S1_S1_S1_S1_@GDAL_1.8 1.8.0 1
 _Z23OGRCreateExpatXMLParserv@GDAL_1.8 1.8.0 1
 _Z24CPLHTTPInitializeRequestP14CPLHTTPRequestPKcPKS2_@GDAL_1.8 1.8.0 1
 _Z24MITABCoordSys2SpatialRefPKc@GDAL_1.8 1.8.0 1
 _Z24MITABSpatialRef2CoordSysP19OGRSpatialReference@GDAL_1.8 1.8.0 1
 _Z24PamFindMatchingHistogramP10CPLXMLNodeddiii@GDAL_1.8 1.8.0 1
 _Z26OGRCreateDefaultLayerIndexv@GDAL_1.8 1.8.0 1
 _Z26OGRGeneralCmdLineProcessoriPPPci@GDAL_1.8 1.8.0 1
 _Z26S57GenerateDSIDFeatureDefnv@GDAL_1.8 1.8.0 1
 _Z26S57GenerateGeomFeatureDefn18OGRwkbGeometryTypei@GDAL_1.8 1.8.0 1
 _Z26S57GenerateObjectClassDefnP17S57ClassRegistrarP23S57ClassContentExplorerii@GDAL_1.8 1.11.0 1
 _Z28OGRGetXML_UTF8_EscapedStringPKc@GDAL_1.8 1.8.0 1
 _Z28OGRWriteMultiPatchToShapeBinP11OGRGeometryPPhPi@GDAL_1.8 1.11.0 1
 _Z29S57GenerateStandardAttributesP14OGRFeatureDefni@GDAL_1.8 1.8.0 1
 _Z33OGRCreateCoordinateTransformationP19OGRSpatialReferenceS0_@GDAL_1.8 1.8.0 1
 _Z37S57GenerateVectorPrimitiveFeatureDefnii@GDAL_1.8 1.8.0 1
 _ZN10AIGDataset11GetFileListEv@GDAL_1.8 1.8.0 1
 _ZN10AIGDataset15GetGeoTransformEPd@GDAL_1.8 1.8.0 1
 _ZN10AIGDataset16GetProjectionRefEv@GDAL_1.8 1.8.0 1
 _ZN10AIGDataset19TranslateColorTableEPKc@GDAL_1.8 1.8.0 1
 _ZN10AIGDataset4OpenEP12GDALOpenInfo@GDAL_1.8 1.8.0 1
 _ZN10AIGDataset7ReadRATEv@GDAL_1.8 1.8.0 1
 _ZN10AIGDatasetC1Ev@GDAL_1.8 1.8.0 1
 _ZN10AIGDatasetC2Ev@GDAL_1.8 1.8.0 1
 _ZN10AIGDatasetD0Ev@GDAL_1.8 1.8.0 1
 _ZN10AIGDatasetD1Ev@GDAL_1.8 1.8.0 1
 _ZN10AIGDatasetD2Ev@GDAL_1.8 1.8.0 1
 _ZN10CPLLocaleCC1Ev@GDAL_1.8 1.8.0 1
 _ZN10CPLLocaleCC2Ev@GDAL_1.8 1.8.0 1
 _ZN10CPLLocaleCD1Ev@GDAL_1.8 1.8.0 1
 _ZN10CPLLocaleCD2Ev@GDAL_1.8 1.8.0 1
 _ZN10GDALDriver10CreateCopyEPKcP11GDALDatasetiPPcPFidS1_PvES6_@GDAL_1.8 1.8.0 1
 _ZN10GDALDriver11QuietDeleteEPKc@GDAL_1.8 1.8.0 1
 _ZN10GDALDriver13DefaultRenameEPKcS1_@GDAL_1.8 1.8.0 1
 _ZN10GDALDriver16DefaultCopyFilesEPKcS1_@GDAL_1.8 1.8.0 1
 _ZN10GDALDriver16DefaultCopyMasksEP11GDALDatasetS1_i@GDAL_1.8 1.8.0 1
 _ZN10GDALDriver17DefaultCreateCopyEPKcP11GDALDatasetiPPcPFidS1_PvES6_@GDAL_1.8 1.8.0 1
 _ZN10GDALDriver6CreateEPKciii12GDALDataTypePPc@GDAL_1.8 1.8.0 1
 _ZN10GDALDriver6DeleteEPKc@GDAL_1.8 1.8.0 1
 _ZN10GDALDriver6RenameEPKcS1_@GDAL_1.8 1.8.0 1
 _ZN10GDALDriver9CopyFilesEPKcS1_@GDAL_1.8 1.8.0 1
 _ZN10GDALDriverC1Ev@GDAL_1.8 1.8.0 1
 _ZN10GDALDriverC2Ev@GDAL_1.8 1.8.0 1
 _ZN10GDALDriverD0Ev@GDAL_1.8 1.8.0 1
 _ZN10GDALDriverD1Ev@GDAL_1.8 1.8.0 1
 _ZN10GDALDriverD2Ev@GDAL_1.8 1.8.0 1
 _ZN10GDALJP2Box10IsSuperBoxEv@GDAL_1.8 1.8.0 1
 _ZN10GDALJP2Box11ReadBoxDataEv@GDAL_1.8 1.8.0 1
 _ZN10GDALJP2Box12CreateLblBoxEPKc@GDAL_1.8 1.8.0 1
 _ZN10GDALJP2Box12DumpReadableEP8_IO_FILEi@GDAL_1.8 1.10.1 1
 _ZN10GDALJP2Box13CreateAsocBoxEiPPS_@GDAL_1.8 1.8.0 1
 _ZN10GDALJP2Box13CreateUUIDBoxEPKhiPh@GDAL_1.8 1.8.0 1
 _ZN10GDALJP2Box13GetDataLengthEv@GDAL_1.8 1.8.0 1
 _ZN10GDALJP2Box13ReadNextChildEPS_@GDAL_1.8 1.8.0 1
 _ZN10GDALJP2Box14ReadFirstChildEPS_@GDAL_1.8 1.8.0 1
 _ZN10GDALJP2Box15SetWritableDataEiPKh@GDAL_1.8 1.8.0 1
 _ZN10GDALJP2Box22CreateLabelledXMLAssocEPKcS1_@GDAL_1.8 1.8.0 1
 _ZN10GDALJP2Box7ReadBoxEv@GDAL_1.8 1.8.0 1
 _ZN10GDALJP2Box7SetTypeEPKc@GDAL_1.8 1.8.0 1
 _ZN10GDALJP2Box8ReadNextEv@GDAL_1.8 1.8.0 1
 _ZN10GDALJP2Box9ReadFirstEv@GDAL_1.8 1.8.0 1
 _ZN10GDALJP2Box9SetOffsetEx@GDAL_1.8 1.8.0 1
 _ZN10GDALJP2BoxC1EP8_IO_FILE@GDAL_1.8 1.8.0 1
 _ZN10GDALJP2BoxC2EP8_IO_FILE@GDAL_1.8 1.8.0 1
 _ZN10GDALJP2BoxD1Ev@GDAL_1.8 1.8.0 1
 _ZN10GDALJP2BoxD2Ev@GDAL_1.8 1.8.0 1
 _ZN10GMLFeature11AddGeometryEP10CPLXMLNode@GDAL_1.8 1.9.0 1
 _ZN10GMLFeature13AddOBPropertyEPKcS1_@GDAL_1.8 1.8.0 1
 _ZN10GMLFeature13GetOBPropertyEPKc@GDAL_1.8 1.8.0 1
 _ZN10GMLFeature15GetOBPropertiesEv@GDAL_1.8 1.8.0 1
 _ZN10GMLFeature19SetGeometryDirectlyEP10CPLXMLNode@GDAL_1.8 1.9.0 1
 _ZN10GMLFeature19SetGeometryDirectlyEiP10CPLXMLNode@GDAL_1.8 1.11.0 1
 _ZN10GMLFeature19SetPropertyDirectlyEiPc@GDAL_1.8 1.9.0 1
 _ZN10GMLFeature4DumpEP8_IO_FILE@GDAL_1.8 1.8.0 1
 _ZN10GMLFeature6SetFIDEPKc@GDAL_1.8 1.8.0 1
 _ZN10GMLFeatureC1EP15GMLFeatureClass@GDAL_1.8 1.8.0 1
 _ZN10GMLFeatureC2EP15GMLFeatureClass@GDAL_1.8 1.8.0 1
 _ZN10GMLFeatureD1Ev@GDAL_1.8 1.8.0 1
 _ZN10GMLFeatureD2Ev@GDAL_1.8 1.8.0 1
 _ZN10HFADataset10CreateCopyEPKcP11GDALDatasetiPPcPFidS1_PvES6_@GDAL_1.8 1.8.0 1
 _ZN10HFADataset10FlushCacheEv@GDAL_1.8 1.8.0 1
 _ZN10HFADataset11GetFileListEv@GDAL_1.8 1.8.0 1
 _ZN10HFADataset11GetGCPCountEv@GDAL_1.8 1.8.0 1
 _ZN10HFADataset11SetMetadataEPPcPKc@GDAL_1.8 1.8.0 1
 _ZN10HFADataset13SetProjectionEPKc@GDAL_1.8 1.8.0 1
 _ZN10HFADataset13UseXFormStackEiP15Efga_PolynomialS1_@GDAL_1.8 1.8.0 1
 _ZN10HFADataset14ReadProjectionEv@GDAL_1.8 1.8.0 1
 _ZN10HFADataset15GetGeoTransformEPd@GDAL_1.8 1.8.0 1
 _ZN10HFADataset15IBuildOverviewsEPKciPiiS2_PFidS1_PvES3_@GDAL_1.8 1.8.0 1
 _ZN10HFADataset15SetGeoTransformEPd@GDAL_1.8 1.8.0 1
 _ZN10HFADataset15SetMetadataItemEPKcS1_S1_@GDAL_1.8 1.8.0 1
 _ZN10HFADataset15WriteProjectionEv@GDAL_1.8 1.8.0 1
 _ZN10HFADataset16GetGCPProjectionEv@GDAL_1.8 1.8.0 1
 _ZN10HFADataset16GetProjectionRefEv@GDAL_1.8 1.8.0 1
 _ZN10HFADataset4OpenEP12GDALOpenInfo@GDAL_1.8 1.8.0 1
 _ZN10HFADataset6CreateEPKciii12GDALDataTypePPc@GDAL_1.8 1.8.0 1
 _ZN10HFADataset6RenameEPKcS1_@GDAL_1.8 1.8.0 1
 _ZN10HFADataset7GetGCPsEv@GDAL_1.8 1.8.0 1
 _ZN10HFADataset8IdentifyEP12GDALOpenInfo@GDAL_1.8 1.8.0 1
 _ZN10HFADataset9CopyFilesEPKcS1_@GDAL_1.8 1.8.0 1
 _ZN10HFADataset9IRasterIOE10GDALRWFlagiiiiPvii12GDALDataTypeiPiiii@GDAL_1.8 1.8.0 1
 _ZN10HFADatasetC1Ev@GDAL_1.8 1.8.0 1
 _ZN10HFADatasetC2Ev@GDAL_1.8 1.8.0 1
 _ZN10HFADatasetD0Ev@GDAL_1.8 1.8.0 1
 _ZN10HFADatasetD1Ev@GDAL_1.8 1.8.0 1
 _ZN10HFADatasetD2Ev@GDAL_1.8 1.8.0 1
 _ZN10IGMLReader16SetGlobalSRSNameEPKc@GDAL_1.8 1.10.1 1
 _ZN10IGMLReader5SetFPEP8_IO_FILE@GDAL_1.8 1.10.1 1
 _ZN10IGMLReaderD0Ev@GDAL_1.8 1.8.0 1
 _ZN10IGMLReaderD1Ev@GDAL_1.8 1.8.0 1
 _ZN10IGMLReaderD2Ev@GDAL_1.8 1.8.0 1
 _ZN10IVFKReaderD0Ev@GDAL_1.8 1.8.0 1
 _ZN10IVFKReaderD1Ev@GDAL_1.8 1.8.0 1
 _ZN10IVFKReaderD2Ev@GDAL_1.8 1.8.0 1
 _ZN10MAPDataset11GetFileListEv@GDAL_1.8 1.10.1 1
 _ZN10MAPDataset11GetGCPCountEv@GDAL_1.8 1.10.1 1
 _ZN10MAPDataset15GetGeoTransformEPd@GDAL_1.8 1.10.1 1
 _ZN10MAPDataset16GetGCPProjectionEv@GDAL_1.8 1.10.1 1
 _ZN10MAPDataset16GetProjectionRefEv@GDAL_1.8 1.10.1 1
 _ZN10MAPDataset22CloseDependentDatasetsEv@GDAL_1.8 1.10.1 1
 _ZN10MAPDataset4OpenEP12GDALOpenInfo@GDAL_1.8 1.10.1 1
 _ZN10MAPDataset7GetGCPsEv@GDAL_1.8 1.10.1 1
 _ZN10MAPDataset8IdentifyEP12GDALOpenInfo@GDAL_1.8 1.10.1 1
 _ZN10MAPDatasetC1Ev@GDAL_1.8 1.10.1 1
 _ZN10MAPDatasetC2Ev@GDAL_1.8 1.10.1 1
 _ZN10MAPDatasetD0Ev@GDAL_1.8 1.10.1 1
 _ZN10MAPDatasetD1Ev@GDAL_1.8 1.10.1 1
 _ZN10MAPDatasetD2Ev@GDAL_1.8 1.10.1 1
 _ZN10MEMDataset11GetGCPCountEv@GDAL_1.8 1.8.0 1
 _ZN10MEMDataset13SetProjectionEPKc@GDAL_1.8 1.8.0 1
 _ZN10MEMDataset15GetGeoTransformEPd@GDAL_1.8 1.8.0 1
 _ZN10MEMDataset15SetGeoTransformEPd@GDAL_1.8 1.8.0 1
 _ZN10MEMDataset16GetGCPProjectionEv@GDAL_1.8 1.8.0 1
 _ZN10MEMDataset16GetProjectionRefEv@GDAL_1.8 1.8.0 1
 _ZN10MEMDataset17GetInternalHandleEPKc@GDAL_1.8 1.8.0 1
 _ZN10MEMDataset4OpenEP12GDALOpenInfo@GDAL_1.8 1.8.0 1
 _ZN10MEMDataset6CreateEPKciii12GDALDataTypePPc@GDAL_1.8 1.8.0 1
 _ZN10MEMDataset7AddBandE12GDALDataTypePPc@GDAL_1.8 1.8.0 1
 _ZN10MEMDataset7GetGCPsEv@GDAL_1.8 1.8.0 1
 _ZN10MEMDataset7SetGCPsEiPK8GDAL_GCPPKc@GDAL_1.8 1.8.0 1
 _ZN10MEMDatasetC1Ev@GDAL_1.8 1.8.0 1
 _ZN10MEMDatasetC2Ev@GDAL_1.8 1.8.0 1
 _ZN10MEMDatasetD0Ev@GDAL_1.8 1.8.0 1
 _ZN10MEMDatasetD1Ev@GDAL_1.8 1.8.0 1
 _ZN10MEMDatasetD2Ev@GDAL_1.8 1.8.0 1
 _ZN10OGRFeature10IsFieldSetEi@GDAL_1.8 1.11.0 1
 _ZN10OGRFeature10UnsetFieldEi@GDAL_1.8 1.8.0 1
 _ZN10OGRFeature11RemapFieldsEP14OGRFeatureDefnPi@GDAL_1.8 1.8.0 1
 _ZN10OGRFeature11SetGeometryEP11OGRGeometry@GDAL_1.8 1.8.0 1
 _ZN10OGRFeature12DumpReadableEP8_IO_FILEPPc@GDAL_1.8 1.8.0 1
 _ZN10OGRFeature12SetGeomFieldEiP11OGRGeometry@GDAL_1.8 1.11.0 1
 _ZN10OGRFeature13CreateFeatureEP14OGRFeatureDefn@GDAL_1.8 1.8.0 1
 _ZN10OGRFeature13GetStyleTableEv@GDAL_1.8 1.8.0 1
 _ZN10OGRFeature13SetFieldsFromEPS_Pii@GDAL_1.8 1.10.1 1
 _ZN10OGRFeature13SetStyleTableEP13OGRStyleTable@GDAL_1.8 1.8.0 1
 _ZN10OGRFeature13StealGeometryEi@GDAL_1.8 1.11.0 1
 _ZN10OGRFeature13StealGeometryEv@GDAL_1.8 1.8.0 1
 _ZN10OGRFeature14DestroyFeatureEPS_@GDAL_1.8 1.8.0 1
 _ZN10OGRFeature14GetGeometryRefEv@GDAL_1.8 1.11.0 1
 _ZN10OGRFeature14GetStyleStringEv@GDAL_1.8 1.8.0 1
 _ZN10OGRFeature14SetStyleStringEPKc@GDAL_1.8 1.8.0 1
 _ZN10OGRFeature15GetGeomFieldRefEPKc@GDAL_1.8 1.11.0 1
 _ZN10OGRFeature15GetGeomFieldRefEi@GDAL_1.8 1.11.0 1
 _ZN10OGRFeature15RemapGeomFieldsEP14OGRFeatureDefnPi@GDAL_1.8 1.11.0 1
 _ZN10OGRFeature16GetFieldAsBinaryEiPi@GDAL_1.8 1.8.0 1
 _ZN10OGRFeature16GetFieldAsDoubleEi@GDAL_1.8 1.8.0 1
 _ZN10OGRFeature16GetFieldAsStringEi@GDAL_1.8 1.8.0 1
 _ZN10OGRFeature17GetFieldAsIntegerEi@GDAL_1.8 1.8.0 1
 _ZN10OGRFeature18GetFieldAsDateTimeEiPiS0_S0_S0_S0_S0_S0_@GDAL_1.8 1.8.0 1
 _ZN10OGRFeature19SetGeometryDirectlyEP11OGRGeometry@GDAL_1.8 1.8.0 1
 _ZN10OGRFeature20GetFieldAsDoubleListEiPi@GDAL_1.8 1.8.0 1
 _ZN10OGRFeature20GetFieldAsStringListEi@GDAL_1.8 1.11.0 1
 _ZN10OGRFeature20SetGeomFieldDirectlyEiP11OGRGeometry@GDAL_1.8 1.11.0 1
 _ZN10OGRFeature21GetFieldAsIntegerListEiPi@GDAL_1.8 1.8.0 1
 _ZN10OGRFeature21SetStyleTableDirectlyEP13OGRStyleTable@GDAL_1.8 1.8.0 1
 _ZN10OGRFeature22SetStyleStringDirectlyEPc@GDAL_1.8 1.8.0 1
 _ZN10OGRFeature5CloneEv@GDAL_1.8 1.8.0 1
 _ZN10OGRFeature5EqualEPS_@GDAL_1.8 1.8.0 1
 _ZN10OGRFeature6SetFIDEl@GDAL_1.8 1.8.0 1
 _ZN10OGRFeature7SetFromEPS_Pii@GDAL_1.8 1.8.0 1
 _ZN10OGRFeature7SetFromEPS_i@GDAL_1.8 1.8.0 1
 _ZN10OGRFeature8SetFieldEPKcS1_@GDAL_1.8 1.11.0 1
 _ZN10OGRFeature8SetFieldEiP8OGRField@GDAL_1.8 1.8.0 1
 _ZN10OGRFeature8SetFieldEiPKc@GDAL_1.8 1.8.0 1
 _ZN10OGRFeature8SetFieldEiPPc@GDAL_1.8 1.8.0 1
 _ZN10OGRFeature8SetFieldEid@GDAL_1.8 1.8.0 1
 _ZN10OGRFeature8SetFieldEii@GDAL_1.8 1.8.0 1
 _ZN10OGRFeature8SetFieldEiiPd@GDAL_1.8 1.8.0 1
 _ZN10OGRFeature8SetFieldEiiPh@GDAL_1.8 1.8.0 1
 _ZN10OGRFeature8SetFieldEiiPi@GDAL_1.8 1.8.0 1
 _ZN10OGRFeature8SetFieldEiiiiiiii@GDAL_1.8 1.8.0 1
 _ZN10OGRFeatureC1EP14OGRFeatureDefn@GDAL_1.8 1.8.0 1
 _ZN10OGRFeatureC2EP14OGRFeatureDefn@GDAL_1.8 1.8.0 1
 _ZN10OGRFeatureD0Ev@GDAL_1.8 1.8.0 1
 _ZN10OGRFeatureD1Ev@GDAL_1.8 1.8.0 1
 _ZN10OGRFeatureD2Ev@GDAL_1.8 1.8.0 1
 _ZN10OGRPolygon10closeRingsEv@GDAL_1.8 1.8.0 1
 _ZN10OGRPolygon10segmentizeEd@GDAL_1.8 1.8.0 1
 _ZN10OGRPolygon11flattenTo2DEv@GDAL_1.8 1.8.0 1
 _ZN10OGRPolygon13importFromWkbEPhi@GDAL_1.8 1.8.0 1
 _ZN10OGRPolygon13importFromWktEPPc@GDAL_1.8 1.8.0 1
 _ZN10OGRPolygon15addRingDirectlyEP13OGRLinearRing@GDAL_1.8 1.8.0 1
 _ZN10OGRPolygon15getExteriorRingEv@GDAL_1.8 1.8.0 1
 _ZN10OGRPolygon15getInteriorRingEi@GDAL_1.8 1.8.0 1
 _ZN10OGRPolygon17stealExteriorRingEv@GDAL_1.8 1.11.0 1
 _ZN10OGRPolygon17stealInteriorRingEi@GDAL_1.8 1.11.0 1
 _ZN10OGRPolygon22setCoordinateDimensionEi@GDAL_1.8 1.8.0 1
 _ZN10OGRPolygon5emptyEv@GDAL_1.8 1.8.0 1
 _ZN10OGRPolygon6swapXYEv@GDAL_1.8 1.8.0 1
 _ZN10OGRPolygon7addRingEP13OGRLinearRing@GDAL_1.8 1.8.0 1
 _ZN10OGRPolygon9transformEP27OGRCoordinateTransformation@GDAL_1.8 1.8.0 1
 _ZN10OGRPolygonC1Ev@GDAL_1.8 1.8.0 1
 _ZN10OGRPolygonC2Ev@GDAL_1.8 1.8.0 1
 _ZN10OGRPolygonD0Ev@GDAL_1.8 1.8.0 1
 _ZN10OGRPolygonD1Ev@GDAL_1.8 1.8.0 1
 _ZN10OGRPolygonD2Ev@GDAL_1.8 1.8.0 1
 _ZN10RawDataset9IRasterIOE10GDALRWFlagiiiiPvii12GDALDataTypeiPiiii@GDAL_1.8 1.8.0 1
 _ZN10RawDatasetC1Ev@GDAL_1.8 1.8.0 1
 _ZN10RawDatasetC2Ev@GDAL_1.8 1.8.0 1
 _ZN10RawDatasetD0Ev@GDAL_1.8 1.8.0 1
 _ZN10RawDatasetD1Ev@GDAL_1.8 1.8.0 1
 _ZN10RawDatasetD2Ev@GDAL_1.8 1.8.0 1
 _ZN10TILDataset11GetFileListEv@GDAL_1.8 1.9.0 1
 _ZN10TILDataset22CloseDependentDatasetsEv@GDAL_1.8 1.9.0 1
 _ZN10TILDataset4OpenEP12GDALOpenInfo@GDAL_1.8 1.8.0 1
 _ZN10TILDataset8IdentifyEP12GDALOpenInfo@GDAL_1.8 1.8.0 1
 _ZN10TILDatasetC1Ev@GDAL_1.8 1.8.0 1
 _ZN10TILDatasetC2Ev@GDAL_1.8 1.8.0 1
 _ZN10TILDatasetD0Ev@GDAL_1.8 1.8.0 1
 _ZN10TILDatasetD1Ev@GDAL_1.8 1.8.0 1
 _ZN10TILDatasetD2Ev@GDAL_1.8 1.8.0 1
 _ZN10VFKFeature11SetPropertyEiPKc@GDAL_1.8 1.8.0 1
 _ZN10VFKFeature13SetPropertiesEPKc@GDAL_1.8 1.10.1 1
 _ZN10VFKFeature14LoadPropertiesEP10OGRFeature@GDAL_1.8 1.10.1 1
 _ZN10VFKFeature17LoadGeometryPointEv@GDAL_1.8 1.10.1 1
 _ZN10VFKFeature19LoadGeometryPolygonEv@GDAL_1.8 1.10.1 1
 _ZN10VFKFeature24LoadGeometryLineStringHPEv@GDAL_1.8 1.10.1 1
 _ZN10VFKFeature25LoadGeometryLineStringSBPEv@GDAL_1.8 1.10.1 1
 _ZN10VFKFeatureC1EP13IVFKDataBlockl@GDAL_1.8 1.10.1 1
 _ZN10VFKFeatureC2EP13IVFKDataBlockl@GDAL_1.8 1.10.1 1
 _ZN10VFKFeatureD0Ev@GDAL_1.8 1.8.0 1
 _ZN10VFKFeatureD1Ev@GDAL_1.8 1.8.0 1
 _ZN10VFKFeatureD2Ev@GDAL_1.8 1.8.0 1
 _ZN10VRTDataset10FlushCacheEv@GDAL_1.8 1.8.0 1
 _ZN10VRTDataset11GetFileListEv@GDAL_1.8 1.8.0 1
 _ZN10VRTDataset11GetGCPCountEv@GDAL_1.8 1.8.0 1
 _ZN10VRTDataset11SetMaskBandEP13VRTRasterBand@GDAL_1.8 1.8.0 1
 _ZN10VRTDataset11SetMetadataEPPcPKc@GDAL_1.8 1.8.0 1
 _ZN10VRTDataset13SetProjectionEPKc@GDAL_1.8 1.8.0 1
 _ZN10VRTDataset14CreateMaskBandEi@GDAL_1.8 1.8.0 1
 _ZN10VRTDataset14SerializeToXMLEPKc@GDAL_1.8 1.8.0 1
 _ZN10VRTDataset15GetGeoTransformEPd@GDAL_1.8 1.8.0 1
 _ZN10VRTDataset15SetGeoTransformEPd@GDAL_1.8 1.8.0 1
 _ZN10VRTDataset15SetMetadataItemEPKcS1_S1_@GDAL_1.8 1.8.0 1
 _ZN10VRTDataset16GetGCPProjectionEv@GDAL_1.8 1.8.0 1
 _ZN10VRTDataset16GetProjectionRefEv@GDAL_1.8 1.8.0 1
 _ZN10VRTDataset21GetSingleSimpleSourceEv@GDAL_1.8 1.10.1 1
 _ZN10VRTDataset22CloseDependentDatasetsEv@GDAL_1.8 1.9.0 1
 _ZN10VRTDataset27CheckCompatibleForDatasetIOEv@GDAL_1.8 1.9.0 1
 _ZN10VRTDataset4OpenEP12GDALOpenInfo@GDAL_1.8 1.8.0 1
 _ZN10VRTDataset6CreateEPKciii12GDALDataTypePPc@GDAL_1.8 1.8.0 1
 _ZN10VRTDataset6DeleteEPKc@GDAL_1.8 1.8.0 1
 _ZN10VRTDataset7AddBandE12GDALDataTypePPc@GDAL_1.8 1.8.0 1
 _ZN10VRTDataset7GetGCPsEv@GDAL_1.8 1.8.0 1
 _ZN10VRTDataset7OpenXMLEPKcS1_10GDALAccess@GDAL_1.8 1.8.0 1
 _ZN10VRTDataset7SetGCPsEiPK8GDAL_GCPPKc@GDAL_1.8 1.8.0 1
 _ZN10VRTDataset7XMLInitEP10CPLXMLNodePKc@GDAL_1.8 1.8.0 1
 _ZN10VRTDataset8IdentifyEP12GDALOpenInfo@GDAL_1.8 1.8.0 1
 _ZN10VRTDataset9IRasterIOE10GDALRWFlagiiiiPvii12GDALDataTypeiPiiii@GDAL_1.8 1.9.0 1
 _ZN10VRTDatasetC1Eii@GDAL_1.8 1.8.0 1
 _ZN10VRTDatasetC2Eii@GDAL_1.8 1.8.0 1
 _ZN10VRTDatasetD0Ev@GDAL_1.8 1.8.0 1
 _ZN10VRTDatasetD1Ev@GDAL_1.8 1.8.0 1
 _ZN10VRTDatasetD2Ev@GDAL_1.8 1.8.0 1
 _ZN10WCSDataset11GetCoverageEiiiiiiiPiPP13CPLHTTPResult@GDAL_1.8 1.8.0 1
 _ZN10WCSDataset11GetFileListEv@GDAL_1.8 1.9.0 1
 _ZN10WCSDataset11GetMetadataEPKc@GDAL_1.8 1.9.0 1
 _ZN10WCSDataset12ProcessErrorEP13CPLHTTPResult@GDAL_1.8 1.8.0 1
 _ZN10WCSDataset14DirectRasterIOE10GDALRWFlagiiiiPvii12GDALDataTypeiPiiii@GDAL_1.8 1.8.0 1
 _ZN10WCSDataset14GDALOpenResultEP13CPLHTTPResult@GDAL_1.8 1.8.0 1
 _ZN10WCSDataset14TestUseBlockIOEiiiiii@GDAL_1.8 1.8.0 1
 _ZN10WCSDataset15ExtractGridInfoEv@GDAL_1.8 1.8.0 1
 _ZN10WCSDataset15GetGeoTransformEPd@GDAL_1.8 1.8.0 1
 _ZN10WCSDataset16DescribeCoverageEv@GDAL_1.8 1.8.0 1
 _ZN10WCSDataset16GetProjectionRefEv@GDAL_1.8 1.8.0 1
 _ZN10WCSDataset17FlushMemoryResultEv@GDAL_1.8 1.8.0 1
 _ZN10WCSDataset18ExtractGridInfo100Ev@GDAL_1.8 1.8.0 1
 _ZN10WCSDataset21GetMetadataDomainListEv@GDAL_1.8 1.11.0 1
 _ZN10WCSDataset22EstablishRasterDetailsEv@GDAL_1.8 1.8.0 1
 _ZN10WCSDataset4OpenEP12GDALOpenInfo@GDAL_1.8 1.8.0 1
 _ZN10WCSDataset8IdentifyEP12GDALOpenInfo@GDAL_1.8 1.9.0 1
 _ZN10WCSDataset9IRasterIOE10GDALRWFlagiiiiPvii12GDALDataTypeiPiiii@GDAL_1.8 1.8.0 1
 _ZN10WCSDatasetC1Ev@GDAL_1.8 1.8.0 1
 _ZN10WCSDatasetC2Ev@GDAL_1.8 1.8.0 1
 _ZN10WCSDatasetD0Ev@GDAL_1.8 1.8.0 1
 _ZN10WCSDatasetD1Ev@GDAL_1.8 1.8.0 1
 _ZN10WCSDatasetD2Ev@GDAL_1.8 1.8.0 1
 _ZN11AAIGDataset10CommonOpenEP12GDALOpenInfo10GridFormat@GDAL_1.8 1.9.0 1
 _ZN11AAIGDataset10CreateCopyEPKcP11GDALDatasetiPPcPFidS1_PvES6_@GDAL_1.8 1.9.0 1
 _ZN11AAIGDataset11GetFileListEv@GDAL_1.8 1.8.0 1
 _ZN11AAIGDataset11ParseHeaderEPKcS1_@GDAL_1.8 1.9.0 1
 _ZN11AAIGDataset15GetGeoTransformEPd@GDAL_1.8 1.8.0 1
 _ZN11AAIGDataset16GetProjectionRefEv@GDAL_1.8 1.8.0 1
 _ZN11AAIGDataset4GetcEv@GDAL_1.8 1.8.0 1
 _ZN11AAIGDataset4OpenEP12GDALOpenInfo@GDAL_1.8 1.8.0 1
 _ZN11AAIGDataset4SeekEy@GDAL_1.8 1.8.0 1
 _ZN11AAIGDataset4TellEv@GDAL_1.8 1.8.0 1
 _ZN11AAIGDataset8IdentifyEP12GDALOpenInfo@GDAL_1.8 1.9.0 1
 _ZN11AAIGDatasetC1Ev@GDAL_1.8 1.8.0 1
 _ZN11AAIGDatasetC2Ev@GDAL_1.8 1.8.0 1
 _ZN11AAIGDatasetD0Ev@GDAL_1.8 1.8.0 1
 _ZN11AAIGDatasetD1Ev@GDAL_1.8 1.8.0 1
 _ZN11AAIGDatasetD2Ev@GDAL_1.8 1.8.0 1
 _ZN11GDALDataset10AdviseReadEiiiiii12GDALDataTypeiPiPPc@GDAL_1.8 1.8.0 1
 _ZN11GDALDataset10FlushCacheEv@GDAL_1.8 1.8.0 1
 _ZN11GDALDataset11DereferenceEv@GDAL_1.8 1.8.0 1
 _ZN11GDALDataset11GetFileListEv@GDAL_1.8 1.8.0 1
 _ZN11GDALDataset11GetGCPCountEv@GDAL_1.8 1.8.0 1
 _ZN11GDALDataset11ReportErrorE6CPLErriPKcz@GDAL_1.8 1.9.0 1
 _ZN11GDALDataset12MarkAsSharedEv@GDAL_1.8 1.8.0 1
 _ZN11GDALDataset13GetRasterBandEi@GDAL_1.8 1.8.0 1
 _ZN11GDALDataset13SetProjectionEPKc@GDAL_1.8 1.8.0 1
 _ZN11GDALDataset14BuildOverviewsEPKciPiiS2_PFidS1_PvES3_@GDAL_1.8 1.8.0 1
 _ZN11GDALDataset14CreateMaskBandEi@GDAL_1.8 1.8.0 1
 _ZN11GDALDataset14EndAsyncReaderEP15GDALAsyncReader@GDAL_1.8 1.8.0 1
 _ZN11GDALDataset14GetRasterCountEv@GDAL_1.8 1.8.0 1
 _ZN11GDALDataset14GetRasterXSizeEv@GDAL_1.8 1.8.0 1
 _ZN11GDALDataset14GetRasterYSizeEv@GDAL_1.8 1.8.0 1
 _ZN11GDALDataset15GetGeoTransformEPd@GDAL_1.8 1.8.0 1
 _ZN11GDALDataset15GetOpenDatasetsEPi@GDAL_1.8 1.8.0 1
 _ZN11GDALDataset15IBuildOverviewsEPKciPiiS2_PFidS1_PvES3_@GDAL_1.8 1.8.0 1
 _ZN11GDALDataset15SetGeoTransformEPd@GDAL_1.8 1.8.0 1
 _ZN11GDALDataset16BeginAsyncReaderEiiiiPvii12GDALDataTypeiPiiiiPPc@GDAL_1.8 1.8.0 1
 _ZN11GDALDataset16GetGCPProjectionEv@GDAL_1.8 1.8.0 1
 _ZN11GDALDataset16GetProjectionRefEv@GDAL_1.8 1.8.0 1
 _ZN11GDALDataset16RasterInitializeEii@GDAL_1.8 1.8.0 1
 _ZN11GDALDataset17GetInternalHandleEPKc@GDAL_1.8 1.8.0 1
 _ZN11GDALDataset18BlockBasedRasterIOE10GDALRWFlagiiiiPvii12GDALDataTypeiPiiii@GDAL_1.8 1.8.0 1
 _ZN11GDALDataset20BlockBasedFlushCacheEv@GDAL_1.8 1.8.0 1
 _ZN11GDALDataset22CloseDependentDatasetsEv@GDAL_1.8 1.9.0 1
 _ZN11GDALDataset38ValidateRasterIOOrAdviseReadParametersEPKcPiiiiiiiiS2_@GDAL_1.8 1.11.0 1
 _ZN11GDALDataset7AddBandE12GDALDataTypePPc@GDAL_1.8 1.8.0 1
 _ZN11GDALDataset7GetGCPsEv@GDAL_1.8 1.8.0 1
 _ZN11GDALDataset7SetBandEiP14GDALRasterBand@GDAL_1.8 1.8.0 1
 _ZN11GDALDataset7SetGCPsEiPK8GDAL_GCPPKc@GDAL_1.8 1.8.0 1
 _ZN11GDALDataset8RasterIOE10GDALRWFlagiiiiPvii12GDALDataTypeiPiiii@GDAL_1.8 1.8.0 1
 _ZN11GDALDataset9GetDriverEv@GDAL_1.8 1.8.0 1
 _ZN11GDALDataset9GetSharedEv@GDAL_1.8 1.8.0 1
 _ZN11GDALDataset9IRasterIOE10GDALRWFlagiiiiPvii12GDALDataTypeiPiiii@GDAL_1.8 1.8.0 1
 _ZN11GDALDataset9ReferenceEv@GDAL_1.8 1.8.0 1
 _ZN11GDALDatasetC1Ev@GDAL_1.8 1.8.0 1
 _ZN11GDALDatasetC2Ev@GDAL_1.8 1.8.0 1
 _ZN11GDALDatasetD0Ev@GDAL_1.8 1.8.0 1
 _ZN11GDALDatasetD1Ev@GDAL_1.8 1.8.0 1
 _ZN11GDALDatasetD2Ev@GDAL_1.8 1.8.0 1
 _ZN11IILI1ReaderD0Ev@GDAL_1.8 1.8.0 1
 _ZN11IILI1ReaderD1Ev@GDAL_1.8 1.8.0 1
 _ZN11IILI1ReaderD2Ev@GDAL_1.8 1.8.0 1
 _ZN11IILI2ReaderD0Ev@GDAL_1.8 1.8.0 1
 _ZN11IILI2ReaderD1Ev@GDAL_1.8 1.8.0 1
 _ZN11IILI2ReaderD2Ev@GDAL_1.8 1.8.0 1
 _ZN11IVFKFeature11GetGeometryEv@GDAL_1.8 1.10.1 1
 _ZN11IVFKFeature11SetGeometryEP11OGRGeometry@GDAL_1.8 1.10.1 1
 _ZN11IVFKFeature12LoadGeometryEv@GDAL_1.8 1.10.1 1
 _ZN11IVFKFeature15SetGeometryTypeE18OGRwkbGeometryType@GDAL_1.8 1.10.1 1
 _ZN11IVFKFeature6SetFIDEl@GDAL_1.8 1.10.1 1
 _ZN11IVFKFeatureC1EP13IVFKDataBlock@GDAL_1.8 1.10.1 1
 _ZN11IVFKFeatureC2EP13IVFKDataBlock@GDAL_1.8 1.10.1 1
 _ZN11IVFKFeatureD0Ev@GDAL_1.8 1.10.1 1
 _ZN11IVFKFeatureD1Ev@GDAL_1.8 1.10.1 1
 _ZN11IVFKFeatureD2Ev@GDAL_1.8 1.10.1 1
 _ZN11OGDIDataset11GetMetadataEPKc@GDAL_1.8 1.8.0 1
 _ZN11OGDIDataset13AddSubDatasetEPKcS1_@GDAL_1.8 1.8.0 1
 _ZN11OGDIDataset13CollectLayersEiPPPcS2_@GDAL_1.8 1.8.0 1
 _ZN11OGDIDataset15GetGeoTransformEPd@GDAL_1.8 1.8.0 1
 _ZN11OGDIDataset16GetProjectionRefEv@GDAL_1.8 1.8.0 1
 _ZN11OGDIDataset17GetInternalHandleEPKc@GDAL_1.8 1.8.0 1
 _ZN11OGDIDataset18OverrideGlobalInfoEPS_PKc@GDAL_1.8 1.8.0 1
 _ZN11OGDIDataset21GetMetadataDomainListEv@GDAL_1.8 1.11.0 1
 _ZN11OGDIDataset4OpenEP12GDALOpenInfo@GDAL_1.8 1.8.0 1
 _ZN11OGDIDatasetC1Ev@GDAL_1.8 1.8.0 1
 _ZN11OGDIDatasetC2Ev@GDAL_1.8 1.8.0 1
 _ZN11OGDIDatasetD0Ev@GDAL_1.8 1.8.0 1
 _ZN11OGDIDatasetD1Ev@GDAL_1.8 1.8.0 1
 _ZN11OGDIDatasetD2Ev@GDAL_1.8 1.8.0 1
 _ZN11OGRGeometry10closeRingsEv@GDAL_1.8 1.8.0 1
 _ZN11OGRGeometry10segmentizeEd@GDAL_1.8 1.8.0 1
 _ZN11OGRGeometry11transformToEP19OGRSpatialReference@GDAL_1.8 1.8.0 1
 _ZN11OGRGeometry15freeGEOSContextEP20GEOSContextHandle_HS@GDAL_1.8 1.11.0 1
 _ZN11OGRGeometry17createGEOSContextEv@GDAL_1.8 1.11.0 1
 _ZN11OGRGeometry22assignSpatialReferenceEP19OGRSpatialReference@GDAL_1.8 1.8.0 1
 _ZN11OGRGeometry22setCoordinateDimensionEi@GDAL_1.8 1.8.0 1
 _ZN11OGRGeometry28bGenerate_DB2_V72_BYTE_ORDERE@GDAL_1.8 1.8.0 1
 _ZN11OGRGeometry6swapXYEv@GDAL_1.8 1.8.0 1
 _ZN11OGRGeometryC1Ev@GDAL_1.8 1.8.0 1
 _ZN11OGRGeometryC2Ev@GDAL_1.8 1.8.0 1
 _ZN11OGRGeometryD0Ev@GDAL_1.8 1.8.0 1
 _ZN11OGRGeometryD1Ev@GDAL_1.8 1.8.0 1
 _ZN11OGRGeometryD2Ev@GDAL_1.8 1.8.0 1
 _ZN11OGRSFDriver14CopyDataSourceEP13OGRDataSourcePKcPPc@GDAL_1.8 1.8.0 1
 _ZN11OGRSFDriver16CreateDataSourceEPKcPPc@GDAL_1.8 1.8.0 1
 _ZN11OGRSFDriver16DeleteDataSourceEPKc@GDAL_1.8 1.8.0 1
 _ZN11OGRSFDriverD0Ev@GDAL_1.8 1.8.0 1
 _ZN11OGRSFDriverD1Ev@GDAL_1.8 1.8.0 1
 _ZN11OGRSFDriverD2Ev@GDAL_1.8 1.8.0 1
 _ZN11OGRStyleMgr12GetPartCountEPKc@GDAL_1.8 1.8.0 1
 _ZN11OGRStyleMgr12GetStyleNameEPKc@GDAL_1.8 1.8.0 1
 _ZN11OGRStyleMgr14GetStyleByNameEPKc@GDAL_1.8 1.8.0 1
 _ZN11OGRStyleMgr14GetStyleStringEP10OGRFeature@GDAL_1.8 1.8.0 1
 _ZN11OGRStyleMgr15InitFromFeatureEP10OGRFeature@GDAL_1.8 1.8.0 1
 _ZN11OGRStyleMgr15InitStyleStringEPKc@GDAL_1.8 1.8.0 1
 _ZN11OGRStyleMgr21SetFeatureStyleStringEP10OGRFeaturePKci@GDAL_1.8 1.8.0 1
 _ZN11OGRStyleMgr30CreateStyleToolFromStyleStringEPKc@GDAL_1.8 1.8.0 1
 _ZN11OGRStyleMgr7AddPartEP12OGRStyleTool@GDAL_1.8 1.8.0 1
 _ZN11OGRStyleMgr7AddPartEPKc@GDAL_1.8 1.8.0 1
 _ZN11OGRStyleMgr7GetPartEiPKc@GDAL_1.8 1.8.0 1
 _ZN11OGRStyleMgr8AddStyleEPKcS1_@GDAL_1.8 1.8.0 1
 _ZN11OGRStyleMgrC1EP13OGRStyleTable@GDAL_1.8 1.8.0 1
 _ZN11OGRStyleMgrC2EP13OGRStyleTable@GDAL_1.8 1.8.0 1
 _ZN11OGRStyleMgrD1Ev@GDAL_1.8 1.8.0 1
 _ZN11OGRStyleMgrD2Ev@GDAL_1.8 1.8.0 1
 _ZN11OGRStylePen11GetParamDblE27ogr_style_tool_param_pen_idRi@GDAL_1.8 1.8.0 1
 _ZN11OGRStylePen11GetParamNumE27ogr_style_tool_param_pen_idRi@GDAL_1.8 1.8.0 1
 _ZN11OGRStylePen11GetParamStrE27ogr_style_tool_param_pen_idRi@GDAL_1.8 1.8.0 1
 _ZN11OGRStylePen11SetParamDblE27ogr_style_tool_param_pen_idd@GDAL_1.8 1.8.0 1
 _ZN11OGRStylePen11SetParamNumE27ogr_style_tool_param_pen_idi@GDAL_1.8 1.8.0 1
 _ZN11OGRStylePen11SetParamStrE27ogr_style_tool_param_pen_idPKc@GDAL_1.8 1.8.0 1
 _ZN11OGRStylePen14GetStyleStringEv@GDAL_1.8 1.8.0 1
 _ZN11OGRStylePen5ParseEv@GDAL_1.8 1.8.0 1
 _ZN11OGRStylePenC1Ev@GDAL_1.8 1.8.0 1
 _ZN11OGRStylePenC2Ev@GDAL_1.8 1.8.0 1
 _ZN11OGRStylePenD0Ev@GDAL_1.8 1.8.0 1
 _ZN11OGRStylePenD1Ev@GDAL_1.8 1.8.0 1
 _ZN11OGRStylePenD2Ev@GDAL_1.8 1.8.0 1
 _ZN11OGR_SRSNode10StripNodesEPKc@GDAL_1.8 1.8.0 1
 _ZN11OGR_SRSNode11InsertChildEPS_i@GDAL_1.8 1.8.0 1
 _ZN11OGR_SRSNode12DestroyChildEi@GDAL_1.8 1.8.0 1
 _ZN11OGR_SRSNode13ClearChildrenEv@GDAL_1.8 1.8.0 1
 _ZN11OGR_SRSNode13FixupOrderingEv@GDAL_1.8 1.8.0 1
 _ZN11OGR_SRSNode13MakeValueSafeEv@GDAL_1.8 1.8.0 1
 _ZN11OGR_SRSNode13applyRemapperEPKcPPcS3_ii@GDAL_1.8 1.8.0 1
 _ZN11OGR_SRSNode13importFromWktEPPc@GDAL_1.8 1.8.0 1
 _ZN11OGR_SRSNode13importFromWktEPPciPi@GDAL_1.8 1.10.1 1
 _ZN11OGR_SRSNode7GetNodeEPKc@GDAL_1.8 1.8.0 1
 _ZN11OGR_SRSNode8AddChildEPS_@GDAL_1.8 1.8.0 1
 _ZN11OGR_SRSNode8GetChildEi@GDAL_1.8 1.8.0 1
 _ZN11OGR_SRSNode8SetValueEPKc@GDAL_1.8 1.8.0 1
 _ZN11OGR_SRSNodeC1EPKc@GDAL_1.8 1.8.0 1
 _ZN11OGR_SRSNodeC2EPKc@GDAL_1.8 1.8.0 1
 _ZN11OGR_SRSNodeD1Ev@GDAL_1.8 1.8.0 1
 _ZN11OGR_SRSNodeD2Ev@GDAL_1.8 1.8.0 1
 _ZN11VFKPropertyC1EPKc@GDAL_1.8 1.8.0 1
 _ZN11VFKPropertyC1ERK9CPLString@GDAL_1.8 1.10.1 1
 _ZN11VFKPropertyC1ERKS_@GDAL_1.8 1.8.0 1
 _ZN11VFKPropertyC1Ed@GDAL_1.8 1.8.0 1
 _ZN11VFKPropertyC1Ei@GDAL_1.8 1.8.0 1
 _ZN11VFKPropertyC1Ev@GDAL_1.8 1.8.0 1
 _ZN11VFKPropertyC2EPKc@GDAL_1.8 1.8.0 1
 _ZN11VFKPropertyC2ERK9CPLString@GDAL_1.8 1.10.1 1
 _ZN11VFKPropertyC2ERKS_@GDAL_1.8 1.8.0 1
 _ZN11VFKPropertyC2Ed@GDAL_1.8 1.8.0 1
 _ZN11VFKPropertyC2Ei@GDAL_1.8 1.8.0 1
 _ZN11VFKPropertyC2Ev@GDAL_1.8 1.8.0 1
 _ZN11VFKPropertyD0Ev@GDAL_1.8 1.8.0 1
 _ZN11VFKPropertyD1Ev@GDAL_1.8 1.8.0 1
 _ZN11VFKPropertyD2Ev@GDAL_1.8 1.8.0 1
 _ZN11VFKPropertyaSERKS_@GDAL_1.8 1.8.0 1
 _ZN12GDALOpenInfoC1EPKc10GDALAccessPPc@GDAL_1.8 1.8.0 1
 _ZN12GDALOpenInfoC2EPKc10GDALAccessPPc@GDAL_1.8 1.8.0 1
 _ZN12GDALOpenInfoD1Ev@GDAL_1.8 1.8.0 1
 _ZN12GDALOpenInfoD2Ev@GDAL_1.8 1.8.0 1
 _ZN12OGRAttrIndexC1Ev@GDAL_1.8 1.8.0 1
 _ZN12OGRAttrIndexC2Ev@GDAL_1.8 1.8.0 1
 _ZN12OGRAttrIndexD0Ev@GDAL_1.8 1.8.0 1
 _ZN12OGRAttrIndexD1Ev@GDAL_1.8 1.8.0 1
 _ZN12OGRAttrIndexD2Ev@GDAL_1.8 1.8.0 1
 _ZN12OGRFieldDefn10InitializeEPKc12OGRFieldType@GDAL_1.8 1.8.0 1
 _ZN12OGRFieldDefn10SetDefaultEPK8OGRField@GDAL_1.8 1.8.0 1
 _ZN12OGRFieldDefn16GetFieldTypeNameE12OGRFieldType@GDAL_1.8 1.8.0 1
 _ZN12OGRFieldDefn3SetEPKc12OGRFieldTypeii16OGRJustification@GDAL_1.8 1.8.0 1
 _ZN12OGRFieldDefn7SetNameEPKc@GDAL_1.8 1.8.0 1
 _ZN12OGRFieldDefnC1EPKc12OGRFieldType@GDAL_1.8 1.8.0 1
 _ZN12OGRFieldDefnC1EPS_@GDAL_1.8 1.8.0 1
 _ZN12OGRFieldDefnC2EPKc12OGRFieldType@GDAL_1.8 1.8.0 1
 _ZN12OGRFieldDefnC2EPS_@GDAL_1.8 1.8.0 1
 _ZN12OGRFieldDefnD1Ev@GDAL_1.8 1.8.0 1
 _ZN12OGRFieldDefnD2Ev@GDAL_1.8 1.8.0 1
 _ZN12OGRStyleTool11GetParamDblERK15ogr_style_paramR15ogr_style_valueRi@GDAL_1.8 1.8.0 1
 _ZN12OGRStyleTool11GetParamNumERK15ogr_style_paramR15ogr_style_valueRi@GDAL_1.8 1.8.0 1
 _ZN12OGRStyleTool11GetParamStrERK15ogr_style_paramR15ogr_style_valueRi@GDAL_1.8 1.8.0 1
 _ZN12OGRStyleTool11SetParamDblERK15ogr_style_paramR15ogr_style_valued@GDAL_1.8 1.8.0 1
 _ZN12OGRStyleTool11SetParamNumERK15ogr_style_paramR15ogr_style_valuei@GDAL_1.8 1.8.0 1
 _ZN12OGRStyleTool11SetParamStrERK15ogr_style_paramR15ogr_style_valuePKc@GDAL_1.8 1.8.0 1
 _ZN12OGRStyleTool13GetSpecificIdEPKcS1_@GDAL_1.8 1.8.0 1
 _ZN12OGRStyleTool14GetStyleStringEPK15ogr_style_paramP15ogr_style_valuei@GDAL_1.8 1.8.0 1
 _ZN12OGRStyleTool14SetStyleStringEPKc@GDAL_1.8 1.8.0 1
 _ZN12OGRStyleTool15ComputeWithUnitEd23ogr_style_tool_units_id@GDAL_1.8 1.8.0 1
 _ZN12OGRStyleTool15ComputeWithUnitEi23ogr_style_tool_units_id@GDAL_1.8 1.8.0 1
 _ZN12OGRStyleTool16GetRGBFromStringEPKcRiS2_S2_S2_@GDAL_1.8 1.8.0 1
 _ZN12OGRStyleTool29SetInternalInputUnitFromParamEPc@GDAL_1.8 1.8.0 1
 _ZN12OGRStyleTool5ParseEPK15ogr_style_paramP15ogr_style_valuei@GDAL_1.8 1.8.0 1
 _ZN12OGRStyleTool7GetTypeEv@GDAL_1.8 1.8.0 1
 _ZN12OGRStyleTool7SetUnitE23ogr_style_tool_units_idd@GDAL_1.8 1.8.0 1
 _ZN12OGRStyleToolC1E23ogr_style_tool_class_id@GDAL_1.8 1.8.0 1
 _ZN12OGRStyleToolC2E23ogr_style_tool_class_id@GDAL_1.8 1.8.0 1
 _ZN12OGRStyleToolD0Ev@GDAL_1.8 1.8.0 1
 _ZN12OGRStyleToolD1Ev@GDAL_1.8 1.8.0 1
 _ZN12OGRStyleToolD2Ev@GDAL_1.8 1.8.0 1
 _ZN12VFKDataBlock10GetFeatureEiyPSt6vectorIP10VFKFeatureSaIS2_EE@GDAL_1.8 1.10.1 1
 _ZN12VFKDataBlock11GetFeaturesEiiy@GDAL_1.8 1.10.1 1
 _ZN12VFKDataBlock11GetFeaturesEiy@GDAL_1.8 1.10.1 1
 _ZN12VFKDataBlock15GetFeatureCountEPKcS1_@GDAL_1.8 1.8.0 1
 _ZN12VFKDataBlock17LoadGeometryPointEv@GDAL_1.8 1.10.1 1
 _ZN12VFKDataBlock19LoadGeometryPolygonEv@GDAL_1.8 1.10.1 1
 _ZN12VFKDataBlock24LoadGeometryLineStringHPEv@GDAL_1.8 1.10.1 1
 _ZN12VFKDataBlock25LoadGeometryLineStringSBPEv@GDAL_1.8 1.10.1 1
 _ZN12VFKDataBlockD0Ev@GDAL_1.8 1.8.0 1
 _ZN12VFKDataBlockD1Ev@GDAL_1.8 1.8.0 1
 _ZN12VFKDataBlockD2Ev@GDAL_1.8 1.8.0 1
 _ZN13CPLStringList10InitializeEv@GDAL_1.8 1.9.0 1
 _ZN13CPLStringList12AddNameValueEPKcS1_@GDAL_1.8 1.9.0 1
 _ZN13CPLStringList12SetNameValueEPKcS1_@GDAL_1.8 1.9.0 1
 _ZN13CPLStringList14MakeOurOwnCopyEv@GDAL_1.8 1.9.0 1
 _ZN13CPLStringList16EnsureAllocationEi@GDAL_1.8 1.9.0 1
 _ZN13CPLStringList17AddStringDirectlyEPc@GDAL_1.8 1.9.0 1
 _ZN13CPLStringList20InsertStringDirectlyEiPc@GDAL_1.8 1.9.0 1
 _ZN13CPLStringList24FindSortedInsertionPointEPKc@GDAL_1.8 1.9.0 1
 _ZN13CPLStringList4SortEv@GDAL_1.8 1.9.0 1
 _ZN13CPLStringList5ClearEv@GDAL_1.8 1.9.0 1
 _ZN13CPLStringList6AssignEPPci@GDAL_1.8 1.9.0 1
 _ZN13CPLStringList9AddStringEPKc@GDAL_1.8 1.9.0 1
 _ZN13CPLStringList9StealListEv@GDAL_1.8 1.9.0 1
 _ZN13CPLStringListC1EPPci@GDAL_1.8 1.9.0 1
 _ZN13CPLStringListC1ERKS_@GDAL_1.8 1.9.0 1
 _ZN13CPLStringListC1Ev@GDAL_1.8 1.9.0 1
 _ZN13CPLStringListC2EPPci@GDAL_1.8 1.9.0 1
 _ZN13CPLStringListC2ERKS_@GDAL_1.8 1.9.0 1
 _ZN13CPLStringListC2Ev@GDAL_1.8 1.9.0 1
 _ZN13CPLStringListD1Ev@GDAL_1.8 1.9.0 1
 _ZN13CPLStringListD2Ev@GDAL_1.8 1.9.0 1
 _ZN13CPLStringListaSERKS_@GDAL_1.8 1.9.0 1
 _ZN13CPLStringListixEi@GDAL_1.8 1.9.0 1
 _ZN13IVFKDataBlock10AddFeatureEP11IVFKFeature@GDAL_1.8 1.10.1 1
 _ZN13IVFKDataBlock10GetFeatureEl@GDAL_1.8 1.10.1 1
 _ZN13IVFKDataBlock11AddPropertyEPKcS1_@GDAL_1.8 1.10.1 1
 _ZN13IVFKDataBlock12LoadGeometryEv@GDAL_1.8 1.10.1 1
 _ZN13IVFKDataBlock12ResetReadingEi@GDAL_1.8 1.10.1 1
 _ZN13IVFKDataBlock13SetPropertiesEPKc@GDAL_1.8 1.10.1 1
 _ZN13IVFKDataBlock14GetLastFeatureEv@GDAL_1.8 1.10.1 1
 _ZN13IVFKDataBlock14GetNextFeatureEv@GDAL_1.8 1.10.1 1
 _ZN13IVFKDataBlock14SetNextFeatureEPK11IVFKFeature@GDAL_1.8 1.10.1 1
 _ZN13IVFKDataBlock15GetFeatureCountEv@GDAL_1.8 1.10.1 1
 _ZN13IVFKDataBlock15GetFirstFeatureEv@GDAL_1.8 1.10.1 1
 _ZN13IVFKDataBlock15SetFeatureCountEib@GDAL_1.8 1.10.1 1
 _ZN13IVFKDataBlock15SetGeometryTypeEv@GDAL_1.8 1.10.1 1
 _ZN13IVFKDataBlock16AppendLineToRingEPSt6vectorIPS0_I8OGRPointSaIS1_EESaIS4_EEPK13OGRLineStringbb@GDAL_1.8 1.10.1 1
 _ZN13IVFKDataBlock17SetIncRecordCountE10RecordType@GDAL_1.8 1.11.0 1
 _ZN13IVFKDataBlock18GetPreviousFeatureEv@GDAL_1.8 1.10.1 1
 _ZN13IVFKDataBlockC1EPKcPK10IVFKReader@GDAL_1.8 1.10.1 1
 _ZN13IVFKDataBlockC2EPKcPK10IVFKReader@GDAL_1.8 1.10.1 1
 _ZN13IVFKDataBlockD0Ev@GDAL_1.8 1.10.1 1
 _ZN13IVFKDataBlockD1Ev@GDAL_1.8 1.10.1 1
 _ZN13IVFKDataBlockD2Ev@GDAL_1.8 1.10.1 1
 _ZN13MEMRasterBand10IReadBlockEiiPv@GDAL_1.8 1.8.0 1
 _ZN13MEMRasterBand11GetUnitTypeEv@GDAL_1.8 1.8.0 1
 _ZN13MEMRasterBand11IWriteBlockEiiPv@GDAL_1.8 1.8.0 1
 _ZN13MEMRasterBand11SetUnitTypeEPKc@GDAL_1.8 1.8.0 1
 _ZN13MEMRasterBand13GetColorTableEv@GDAL_1.8 1.8.0 1
 _ZN13MEMRasterBand13SetColorTableEP14GDALColorTable@GDAL_1.8 1.8.0 1
 _ZN13MEMRasterBand14GetNoDataValueEPi@GDAL_1.8 1.8.0 1
 _ZN13MEMRasterBand14SetNoDataValueEd@GDAL_1.8 1.8.0 1
 _ZN13MEMRasterBand16GetCategoryNamesEv@GDAL_1.8 1.8.0 1
 _ZN13MEMRasterBand16SetCategoryNamesEPPc@GDAL_1.8 1.8.0 1
 _ZN13MEMRasterBand19GetDefaultHistogramEPdS0_PiPS1_iPFidPKcPvES5_@GDAL_1.8 1.9.0 1
 _ZN13MEMRasterBand19SetDefaultHistogramEddiPi@GDAL_1.8 1.9.0 1
 _ZN13MEMRasterBand22GetColorInterpretationEv@GDAL_1.8 1.8.0 1
 _ZN13MEMRasterBand22SetColorInterpretationE15GDALColorInterp@GDAL_1.8 1.8.0 1
 _ZN13MEMRasterBand8GetScaleEPi@GDAL_1.8 1.8.0 1
 _ZN13MEMRasterBand8SetScaleEd@GDAL_1.8 1.8.0 1
 _ZN13MEMRasterBand9GetOffsetEPi@GDAL_1.8 1.8.0 1
 _ZN13MEMRasterBand9SetOffsetEd@GDAL_1.8 1.8.0 1
 _ZN13MEMRasterBandC1EP11GDALDatasetiPh12GDALDataTypeiiiPKc@GDAL_1.8 1.9.0 1
 _ZN13MEMRasterBandC2EP11GDALDatasetiPh12GDALDataTypeiiiPKc@GDAL_1.8 1.9.0 1
 _ZN13MEMRasterBandD0Ev@GDAL_1.8 1.8.0 1
 _ZN13MEMRasterBandD1Ev@GDAL_1.8 1.8.0 1
 _ZN13MEMRasterBandD2Ev@GDAL_1.8 1.8.0 1
 _ZN13OGRDataSource10ExecuteSQLEPKcP11OGRGeometryS1_@GDAL_1.8 1.8.0 1
 _ZN13OGRDataSource10SyncToDiskEv@GDAL_1.8 1.8.0 1
 _ZN13OGRDataSource11CreateLayerEPKcP19OGRSpatialReference18OGRwkbGeometryTypePPc@GDAL_1.8 1.8.0 1
 _ZN13OGRDataSource11DeleteLayerEi@GDAL_1.8 1.8.0 1
 _ZN13OGRDataSource11DereferenceEv@GDAL_1.8 1.8.0 1
 _ZN13OGRDataSource13GetStyleTableEv@GDAL_1.8 1.8.0 1
 _ZN13OGRDataSource13SetStyleTableEP13OGRStyleTable@GDAL_1.8 1.8.0 1
 _ZN13OGRDataSource14GetLayerByNameEPKc@GDAL_1.8 1.8.0 1
 _ZN13OGRDataSource16ReleaseResultSetEP8OGRLayer@GDAL_1.8 1.8.0 1
 _ZN13OGRDataSource17DestroyDataSourceEPS_@GDAL_1.8 1.8.0 1
 _ZN13OGRDataSource19IsGenericSQLDialectEPKc@GDAL_1.8 1.11.0 1
 _ZN13OGRDataSource19ProcessSQLDropIndexEPKc@GDAL_1.8 1.8.0 1
 _ZN13OGRDataSource19ProcessSQLDropTableEPKc@GDAL_1.8 1.9.0 1
 _ZN13OGRDataSource21ProcessSQLCreateIndexEPKc@GDAL_1.8 1.8.0 1
 _ZN13OGRDataSource21SetStyleTableDirectlyEP13OGRStyleTable@GDAL_1.8 1.8.0 1
 _ZN13OGRDataSource24BuildLayerFromSelectInfoEPvP11OGRGeometryPKc@GDAL_1.8 1.10.1 1
 _ZN13OGRDataSource29ProcessSQLAlterTableAddColumnEPKc@GDAL_1.8 1.9.0 1
 _ZN13OGRDataSource30ProcessSQLAlterTableDropColumnEPKc@GDAL_1.8 1.9.0 1
 _ZN13OGRDataSource31ProcessSQLAlterTableAlterColumnEPKc@GDAL_1.8 1.9.0 1
 _ZN13OGRDataSource32ProcessSQLAlterTableRenameColumnEPKc@GDAL_1.8 1.9.0 1
 _ZN13OGRDataSource7ReleaseEv@GDAL_1.8 1.8.0 1
 _ZN13OGRDataSource9CopyLayerEP8OGRLayerPKcPPc@GDAL_1.8 1.8.0 1
 _ZN13OGRDataSource9ReferenceEv@GDAL_1.8 1.8.0 1
 _ZN13OGRDataSource9SetDriverEP11OGRSFDriver@GDAL_1.8 1.8.0 1
 _ZN13OGRDataSourceC1Ev@GDAL_1.8 1.8.0 1
 _ZN13OGRDataSourceC2Ev@GDAL_1.8 1.8.0 1
 _ZN13OGRDataSourceD0Ev@GDAL_1.8 1.8.0 1
 _ZN13OGRDataSourceD1Ev@GDAL_1.8 1.8.0 1
 _ZN13OGRDataSourceD2Ev@GDAL_1.8 1.8.0 1
 _ZN13OGRLineString10segmentizeEd@GDAL_1.8 1.8.0 1
 _ZN13OGRLineString11flattenTo2DEv@GDAL_1.8 1.8.0 1
 _ZN13OGRLineString12setNumPointsEii@GDAL_1.8 1.11.0 1
 _ZN13OGRLineString13importFromWkbEPhi@GDAL_1.8 1.8.0 1
 _ZN13OGRLineString13importFromWktEPPc@GDAL_1.8 1.8.0 1
 _ZN13OGRLineString13reversePointsEv@GDAL_1.8 1.10.1 1
 _ZN13OGRLineString16addSubLineStringEPKS_ii@GDAL_1.8 1.8.0 1
 _ZN13OGRLineString22setCoordinateDimensionEi@GDAL_1.8 1.8.0 1
 _ZN13OGRLineString4setZEid@GDAL_1.8 1.11.0 1
 _ZN13OGRLineString5emptyEv@GDAL_1.8 1.8.0 1
 _ZN13OGRLineString6Make2DEv@GDAL_1.8 1.8.0 1
 _ZN13OGRLineString6Make3DEv@GDAL_1.8 1.8.0 1
 _ZN13OGRLineString6swapXYEv@GDAL_1.8 1.8.0 1
 _ZN13OGRLineString8addPointEP8OGRPoint@GDAL_1.8 1.8.0 1
 _ZN13OGRLineString8addPointEdd@GDAL_1.8 1.8.0 1
 _ZN13OGRLineString8addPointEddd@GDAL_1.8 1.8.0 1
 _ZN13OGRLineString8setPointEiP8OGRPoint@GDAL_1.8 1.8.0 1
 _ZN13OGRLineString8setPointEidd@GDAL_1.8 1.8.0 1
 _ZN13OGRLineString8setPointEiddd@GDAL_1.8 1.8.0 1
 _ZN13OGRLineString9setPointsEiP11OGRRawPointPd@GDAL_1.8 1.8.0 1
 _ZN13OGRLineString9setPointsEiPdS0_S0_@GDAL_1.8 1.8.0 1
 _ZN13OGRLineString9transformEP27OGRCoordinateTransformation@GDAL_1.8 1.8.0 1
 _ZN13OGRLineStringC1Ev@GDAL_1.8 1.8.0 1
 _ZN13OGRLineStringC2Ev@GDAL_1.8 1.8.0 1
 _ZN13OGRLineStringD0Ev@GDAL_1.8 1.8.0 1
 _ZN13OGRLineStringD1Ev@GDAL_1.8 1.8.0 1
 _ZN13OGRLineStringD2Ev@GDAL_1.8 1.8.0 1
 _ZN13OGRLinearRing10closeRingsEv@GDAL_1.8 1.8.0 1
 _ZN13OGRLinearRing13importFromWkbEPhi@GDAL_1.8 1.8.0 1
 _ZN13OGRLinearRing14_importFromWkbE15OGRwkbByteOrderiPhi@GDAL_1.8 1.8.0 1
 _ZN13OGRLinearRing19reverseWindingOrderEv@GDAL_1.8 1.8.0 1
 _ZN13OGRLinearRingC1EPS_@GDAL_1.8 1.8.0 1
 _ZN13OGRLinearRingC1Ev@GDAL_1.8 1.8.0 1
 _ZN13OGRLinearRingC2EPS_@GDAL_1.8 1.8.0 1
 _ZN13OGRLinearRingC2Ev@GDAL_1.8 1.8.0 1
 _ZN13OGRLinearRingD0Ev@GDAL_1.8 1.8.0 1
 _ZN13OGRLinearRingD1Ev@GDAL_1.8 1.8.0 1
 _ZN13OGRLinearRingD2Ev@GDAL_1.8 1.8.0 1
 _ZN13OGRMultiPoint13importFromWktEPPc@GDAL_1.8 1.8.0 1
 _ZN13OGRMultiPoint19addGeometryDirectlyEP11OGRGeometry@GDAL_1.8 1.8.0 1
 _ZN13OGRMultiPoint23importFromWkt_BracketedEPPcii@GDAL_1.8 1.8.0 1
 _ZN13OGRMultiPointC1Ev@GDAL_1.8 1.8.0 1
 _ZN13OGRMultiPointC2Ev@GDAL_1.8 1.8.0 1
 _ZN13OGRMultiPointD0Ev@GDAL_1.8 1.8.0 1
 _ZN13OGRMultiPointD1Ev@GDAL_1.8 1.8.0 1
 _ZN13OGRMultiPointD2Ev@GDAL_1.8 1.8.0 1
 _ZN13OGRStyleBrush11GetParamDblE29ogr_style_tool_param_brush_idRi@GDAL_1.8 1.8.0 1
 _ZN13OGRStyleBrush11GetParamNumE29ogr_style_tool_param_brush_idRi@GDAL_1.8 1.8.0 1
 _ZN13OGRStyleBrush11GetParamStrE29ogr_style_tool_param_brush_idRi@GDAL_1.8 1.8.0 1
 _ZN13OGRStyleBrush11SetParamDblE29ogr_style_tool_param_brush_idd@GDAL_1.8 1.8.0 1
 _ZN13OGRStyleBrush11SetParamNumE29ogr_style_tool_param_brush_idi@GDAL_1.8 1.8.0 1
 _ZN13OGRStyleBrush11SetParamStrE29ogr_style_tool_param_brush_idPKc@GDAL_1.8 1.8.0 1
 _ZN13OGRStyleBrush14GetStyleStringEv@GDAL_1.8 1.8.0 1
 _ZN13OGRStyleBrush5ParseEv@GDAL_1.8 1.8.0 1
 _ZN13OGRStyleBrushC1Ev@GDAL_1.8 1.8.0 1
 _ZN13OGRStyleBrushC2Ev@GDAL_1.8 1.8.0 1
 _ZN13OGRStyleBrushD0Ev@GDAL_1.8 1.8.0 1
 _ZN13OGRStyleBrushD1Ev@GDAL_1.8 1.8.0 1
 _ZN13OGRStyleBrushD2Ev@GDAL_1.8 1.8.0 1
 _ZN13OGRStyleLabel11GetParamDblE29ogr_style_tool_param_label_idRi@GDAL_1.8 1.8.0 1
 _ZN13OGRStyleLabel11GetParamNumE29ogr_style_tool_param_label_idRi@GDAL_1.8 1.8.0 1
 _ZN13OGRStyleLabel11GetParamStrE29ogr_style_tool_param_label_idRi@GDAL_1.8 1.8.0 1
 _ZN13OGRStyleLabel11SetParamDblE29ogr_style_tool_param_label_idd@GDAL_1.8 1.8.0 1
 _ZN13OGRStyleLabel11SetParamNumE29ogr_style_tool_param_label_idi@GDAL_1.8 1.8.0 1
 _ZN13OGRStyleLabel11SetParamStrE29ogr_style_tool_param_label_idPKc@GDAL_1.8 1.8.0 1
 _ZN13OGRStyleLabel14GetStyleStringEv@GDAL_1.8 1.8.0 1
 _ZN13OGRStyleLabel5ParseEv@GDAL_1.8 1.8.0 1
 _ZN13OGRStyleLabelC1Ev@GDAL_1.8 1.8.0 1
 _ZN13OGRStyleLabelC2Ev@GDAL_1.8 1.8.0 1
 _ZN13OGRStyleLabelD0Ev@GDAL_1.8 1.8.0 1
 _ZN13OGRStyleLabelD1Ev@GDAL_1.8 1.8.0 1
 _ZN13OGRStyleLabelD2Ev@GDAL_1.8 1.8.0 1
 _ZN13OGRStyleTable11ModifyStyleEPKcS1_@GDAL_1.8 1.8.0 1
 _ZN13OGRStyleTable11RemoveStyleEPKc@GDAL_1.8 1.8.0 1
 _ZN13OGRStyleTable12GetNextStyleEv@GDAL_1.8 1.8.0 1
 _ZN13OGRStyleTable12GetStyleNameEPKc@GDAL_1.8 1.8.0 1
 _ZN13OGRStyleTable14LoadStyleTableEPKc@GDAL_1.8 1.8.0 1
 _ZN13OGRStyleTable14SaveStyleTableEPKc@GDAL_1.8 1.8.0 1
 _ZN13OGRStyleTable16GetLastStyleNameEv@GDAL_1.8 1.8.0 1
 _ZN13OGRStyleTable23ResetStyleStringReadingEv@GDAL_1.8 1.8.0 1
 _ZN13OGRStyleTable4FindEPKc@GDAL_1.8 1.8.0 1
 _ZN13OGRStyleTable5ClearEv@GDAL_1.8 1.8.0 1
 _ZN13OGRStyleTable5CloneEv@GDAL_1.8 1.8.0 1
 _ZN13OGRStyleTable5PrintEP8_IO_FILE@GDAL_1.8 1.8.0 1
 _ZN13OGRStyleTable7IsExistEPKc@GDAL_1.8 1.8.0 1
 _ZN13OGRStyleTable8AddStyleEPKcS1_@GDAL_1.8 1.8.0 1
 _ZN13OGRStyleTableC1Ev@GDAL_1.8 1.8.0 1
 _ZN13OGRStyleTableC2Ev@GDAL_1.8 1.8.0 1
 _ZN13OGRStyleTableD1Ev@GDAL_1.8 1.8.0 1
 _ZN13OGRStyleTableD2Ev@GDAL_1.8 1.8.0 1
 _ZN13RawRasterBand10AccessLineEi@GDAL_1.8 1.8.0 1
 _ZN13RawRasterBand10FlushCacheEv@GDAL_1.8 1.8.0 1
 _ZN13RawRasterBand10IReadBlockEiiPv@GDAL_1.8 1.8.0 1
 _ZN13RawRasterBand10InitializeEv@GDAL_1.8 1.8.0 1
 _ZN13RawRasterBand11AccessBlockEyiPv@GDAL_1.8 1.8.0 1
 _ZN13RawRasterBand11IWriteBlockEiiPv@GDAL_1.8 1.8.0 1
 _ZN13RawRasterBand13GetColorTableEv@GDAL_1.8 1.8.0 1
 _ZN13RawRasterBand13SetColorTableEP14GDALColorTable@GDAL_1.8 1.8.0 1
 _ZN13RawRasterBand14CanUseDirectIOEiiii12GDALDataType@GDAL_1.8 1.11.0 1
 _ZN13RawRasterBand16GetCategoryNamesEv@GDAL_1.8 1.8.0 1
 _ZN13RawRasterBand16SetCategoryNamesEPPc@GDAL_1.8 1.8.0 1
 _ZN13RawRasterBand16StoreNoDataValueEd@GDAL_1.8 1.8.0 1
 _ZN13RawRasterBand17GetVirtualMemAutoE10GDALRWFlagPiPxPPc@GDAL_1.8 1.11.0 1
 _ZN13RawRasterBand22GetColorInterpretationEv@GDAL_1.8 1.8.0 1
 _ZN13RawRasterBand22SetColorInterpretationE15GDALColorInterp@GDAL_1.8 1.8.0 1
 _ZN13RawRasterBand32IsSignificantNumberOfLinesLoadedEii@GDAL_1.8 1.11.0 1
 _ZN13RawRasterBand4ReadEPvmm@GDAL_1.8 1.9.0 1
 _ZN13RawRasterBand4SeekEyi@GDAL_1.8 1.8.0 1
 _ZN13RawRasterBand5WriteEPvmm@GDAL_1.8 1.9.0 1
 _ZN13RawRasterBand9IRasterIOE10GDALRWFlagiiiiPvii12GDALDataTypeii@GDAL_1.8 1.8.0 1
 _ZN13RawRasterBand9SetAccessE10GDALAccess@GDAL_1.8 1.8.0 1
 _ZN13RawRasterBandC1EP11GDALDatasetiPvyii12GDALDataTypeiii@GDAL_1.8 1.8.0 1
 _ZN13RawRasterBandC1EPvyii12GDALDataTypeiiiii@GDAL_1.8 1.8.0 1
 _ZN13RawRasterBandC2EP11GDALDatasetiPvyii12GDALDataTypeiii@GDAL_1.8 1.8.0 1
 _ZN13RawRasterBandC2EPvyii12GDALDataTypeiiiii@GDAL_1.8 1.8.0 1
 _ZN13RawRasterBandD0Ev@GDAL_1.8 1.8.0 1
 _ZN13RawRasterBandD1Ev@GDAL_1.8 1.8.0 1
 _ZN13RawRasterBandD2Ev@GDAL_1.8 1.8.0 1
 _ZN13VRTRasterBand10InitializeEii@GDAL_1.8 1.8.0 1
 _ZN13VRTRasterBand11GetFileListEPPPcPiS3_P11_CPLHashSet@GDAL_1.8 1.8.0 1
 _ZN13VRTRasterBand11GetMaskBandEv@GDAL_1.8 1.8.0 1
 _ZN13VRTRasterBand11GetOverviewEi@GDAL_1.8 1.8.0 1
 _ZN13VRTRasterBand11GetUnitTypeEv@GDAL_1.8 1.8.0 1
 _ZN13VRTRasterBand11SetMaskBandEPS_@GDAL_1.8 1.8.0 1
 _ZN13VRTRasterBand11SetMetadataEPPcPKc@GDAL_1.8 1.8.0 1
 _ZN13VRTRasterBand11SetUnitTypeEPKc@GDAL_1.8 1.8.0 1
 _ZN13VRTRasterBand12GetHistogramEddiPiiiPFidPKcPvES3_@GDAL_1.8 1.8.0 1
 _ZN13VRTRasterBand12GetMaskFlagsEv@GDAL_1.8 1.8.0 1
 _ZN13VRTRasterBand13GetColorTableEv@GDAL_1.8 1.8.0 1
 _ZN13VRTRasterBand13SetColorTableEP14GDALColorTable@GDAL_1.8 1.8.0 1
 _ZN13VRTRasterBand13SetIsMaskBandEv@GDAL_1.8 1.8.0 1
 _ZN13VRTRasterBand14CreateMaskBandEi@GDAL_1.8 1.8.0 1
 _ZN13VRTRasterBand14GetNoDataValueEPi@GDAL_1.8 1.8.0 1
 _ZN13VRTRasterBand14SerializeToXMLEPKc@GDAL_1.8 1.8.0 1
 _ZN13VRTRasterBand14SetDescriptionEPKc@GDAL_1.8 1.8.0 1
 _ZN13VRTRasterBand14SetNoDataValueEd@GDAL_1.8 1.8.0 1
 _ZN13VRTRasterBand15SetMetadataItemEPKcS1_S1_@GDAL_1.8 1.8.0 1
 _ZN13VRTRasterBand16GetCategoryNamesEv@GDAL_1.8 1.8.0 1
 _ZN13VRTRasterBand16GetOverviewCountEv@GDAL_1.8 1.8.0 1
 _ZN13VRTRasterBand16SetCategoryNamesEPPc@GDAL_1.8 1.8.0 1
 _ZN13VRTRasterBand16UnsetNoDataValueEv@GDAL_1.8 1.8.0 1
 _ZN13VRTRasterBand18CopyCommonInfoFromEP14GDALRasterBand@GDAL_1.8 1.8.0 1
 _ZN13VRTRasterBand19GetDefaultHistogramEPdS0_PiPS1_iPFidPKcPvES5_@GDAL_1.8 1.8.0 1
 _ZN13VRTRasterBand19IsSourcedRasterBandEv@GDAL_1.8 1.9.0 1
 _ZN13VRTRasterBand19SetDefaultHistogramEddiPi@GDAL_1.8 1.8.0 1
 _ZN13VRTRasterBand22CloseDependentDatasetsEv@GDAL_1.8 1.9.0 1
 _ZN13VRTRasterBand22GetColorInterpretationEv@GDAL_1.8 1.8.0 1
 _ZN13VRTRasterBand22SetColorInterpretationE15GDALColorInterp@GDAL_1.8 1.8.0 1
 _ZN13VRTRasterBand7XMLInitEP10CPLXMLNodePKc@GDAL_1.8 1.8.0 1
 _ZN13VRTRasterBand8GetScaleEPi@GDAL_1.8 1.8.0 1
 _ZN13VRTRasterBand8SetScaleEd@GDAL_1.8 1.8.0 1
 _ZN13VRTRasterBand9GetOffsetEPi@GDAL_1.8 1.8.0 1
 _ZN13VRTRasterBand9SetOffsetEd@GDAL_1.8 1.8.0 1
 _ZN13VRTRasterBandC1Ev@GDAL_1.8 1.8.0 1
 _ZN13VRTRasterBandC2Ev@GDAL_1.8 1.8.0 1
 _ZN13VRTRasterBandD0Ev@GDAL_1.8 1.8.0 1
 _ZN13VRTRasterBandD1Ev@GDAL_1.8 1.8.0 1
 _ZN13VRTRasterBandD2Ev@GDAL_1.8 1.8.0 1
 _ZN14CPLMutexHolderC1EPPvdPKci@GDAL_1.8 1.8.0 1
 _ZN14CPLMutexHolderC1EPvdPKci@GDAL_1.8 1.11.0 1
 _ZN14CPLMutexHolderC2EPPvdPKci@GDAL_1.8 1.8.0 1
 _ZN14CPLMutexHolderC2EPvdPKci@GDAL_1.8 1.11.0 1
 _ZN14CPLMutexHolderD1Ev@GDAL_1.8 1.8.0 1
 _ZN14CPLMutexHolderD2Ev@GDAL_1.8 1.8.0 1
 _ZN14CPLODBCSession12CloseSessionEv@GDAL_1.8 1.8.0 1
 _ZN14CPLODBCSession12GetLastErrorEv@GDAL_1.8 1.8.0 1
 _ZN14CPLODBCSession16BeginTransactionEv@GDAL_1.8 1.8.0 1
 _ZN14CPLODBCSession16ClearTransactionEv@GDAL_1.8 1.8.0 1
 _ZN14CPLODBCSession16EstablishSessionEPKcS1_S1_@GDAL_1.8 1.8.0 1
 _ZN14CPLODBCSession17CommitTransactionEv@GDAL_1.8 1.8.0 1
 _ZN14CPLODBCSession19RollbackTransactionEv@GDAL_1.8 1.8.0 1
 _ZN14CPLODBCSession6FailedEiPv@GDAL_1.8 1.8.0 1
 _ZN14CPLODBCSessionC1Ev@GDAL_1.8 1.8.0 1
 _ZN14CPLODBCSessionC2Ev@GDAL_1.8 1.8.0 1
 _ZN14CPLODBCSessionD1Ev@GDAL_1.8 1.8.0 1
 _ZN14CPLODBCSessionD2Ev@GDAL_1.8 1.8.0 1
 _ZN14DDFRecordIndex10FindRecordEi@GDAL_1.8 1.8.0 1
 _ZN14DDFRecordIndex10GetByIndexEi@GDAL_1.8 1.8.0 1
 _ZN14DDFRecordIndex12RemoveRecordEi@GDAL_1.8 1.8.0 1
 _ZN14DDFRecordIndex16FindRecordByObjlEi@GDAL_1.8 1.8.0 1
 _ZN14DDFRecordIndex20GetClientInfoByIndexEi@GDAL_1.8 1.8.0 1
 _ZN14DDFRecordIndex20SetClientInfoByIndexEiPv@GDAL_1.8 1.8.0 1
 _ZN14DDFRecordIndex4SortEv@GDAL_1.8 1.8.0 1
 _ZN14DDFRecordIndex5ClearEv@GDAL_1.8 1.8.0 1
 _ZN14DDFRecordIndex9AddRecordEiP9DDFRecord@GDAL_1.8 1.8.0 1
 _ZN14DDFRecordIndexC1Ev@GDAL_1.8 1.8.0 1
 _ZN14DDFRecordIndexC2Ev@GDAL_1.8 1.8.0 1
 _ZN14DDFRecordIndexD1Ev@GDAL_1.8 1.8.0 1
 _ZN14DDFRecordIndexD2Ev@GDAL_1.8 1.8.0 1
 _ZN14GDALColorTable13SetColorEntryEiPK14GDALColorEntry@GDAL_1.8 1.8.0 1
 _ZN14GDALColorTable15CreateColorRampEiPK14GDALColorEntryiS2_@GDAL_1.8 1.8.0 1
 _ZN14GDALColorTableC1E17GDALPaletteInterp@GDAL_1.8 1.8.0 1
 _ZN14GDALColorTableC2E17GDALPaletteInterp@GDAL_1.8 1.8.0 1
 _ZN14GDALColorTableD1Ev@GDAL_1.8 1.8.0 1
 _ZN14GDALColorTableD2Ev@GDAL_1.8 1.8.0 1
 _ZN14GDALPamDataset10FlushCacheEv@GDAL_1.8 1.8.0 1
 _ZN14GDALPamDataset10TryLoadAuxEPPc@GDAL_1.8 1.9.0 1
 _ZN14GDALPamDataset10TryLoadXMLEPPc@GDAL_1.8 1.9.0 1
 _ZN14GDALPamDataset10TrySaveXMLEv@GDAL_1.8 1.8.0 1
 _ZN14GDALPamDataset11GetFileListEv@GDAL_1.8 1.8.0 1
 _ZN14GDALPamDataset11GetGCPCountEv@GDAL_1.8 1.8.0 1
 _ZN14GDALPamDataset11GetMetadataEPKc@GDAL_1.8 1.8.0 1
 _ZN14GDALPamDataset11SetMetadataEPPcPKc@GDAL_1.8 1.8.0 1
 _ZN14GDALPamDataset13PamInitializeEv@GDAL_1.8 1.8.0 1
 _ZN14GDALPamDataset13SetProjectionEPKc@GDAL_1.8 1.8.0 1
 _ZN14GDALPamDataset14SerializeToXMLEPKc@GDAL_1.8 1.8.0 1
 _ZN14GDALPamDataset15GetGeoTransformEPd@GDAL_1.8 1.8.0 1
 _ZN14GDALPamDataset15GetMetadataItemEPKcS1_@GDAL_1.8 1.8.0 1
 _ZN14GDALPamDataset15IBuildOverviewsEPKciPiiS2_PFidS1_PvES3_@GDAL_1.8 1.8.0 1
 _ZN14GDALPamDataset15SetGeoTransformEPd@GDAL_1.8 1.8.0 1
 _ZN14GDALPamDataset15SetMetadataItemEPKcS1_S1_@GDAL_1.8 1.8.0 1
 _ZN14GDALPamDataset16BuildPamFilenameEv@GDAL_1.8 1.8.0 1
 _ZN14GDALPamDataset16GetGCPProjectionEv@GDAL_1.8 1.8.0 1
 _ZN14GDALPamDataset16GetProjectionRefEv@GDAL_1.8 1.8.0 1
 _ZN14GDALPamDataset17GetSubdatasetNameEv@GDAL_1.8 1.8.0 1
 _ZN14GDALPamDataset17SetSubdatasetNameEPKc@GDAL_1.8 1.8.0 1
 _ZN14GDALPamDataset19GetPhysicalFilenameEv@GDAL_1.8 1.8.0 1
 _ZN14GDALPamDataset19SetPhysicalFilenameEPKc@GDAL_1.8 1.8.0 1
 _ZN14GDALPamDataset34IsPamFilenameAPotentialSiblingFileEv@GDAL_1.8 1.9.0 1
 _ZN14GDALPamDataset7GetGCPsEv@GDAL_1.8 1.8.0 1
 _ZN14GDALPamDataset7SetGCPsEiPK8GDAL_GCPPKc@GDAL_1.8 1.8.0 1
 _ZN14GDALPamDataset7XMLInitEP10CPLXMLNodePKc@GDAL_1.8 1.8.0 1
 _ZN14GDALPamDataset8PamClearEv@GDAL_1.8 1.8.0 1
 _ZN14GDALPamDataset9CloneInfoEP11GDALDataseti@GDAL_1.8 1.8.0 1
 _ZN14GDALPamDatasetC1Ev@GDAL_1.8 1.8.0 1
 _ZN14GDALPamDatasetC2Ev@GDAL_1.8 1.8.0 1
 _ZN14GDALPamDatasetD0Ev@GDAL_1.8 1.8.0 1
 _ZN14GDALPamDatasetD1Ev@GDAL_1.8 1.8.0 1
 _ZN14GDALPamDatasetD2Ev@GDAL_1.8 1.8.0 1
 _ZN14GDALRasterBand10AdoptBlockEiiP15GDALRasterBlock@GDAL_1.8 1.8.0 1
 _ZN14GDALRasterBand10AdviseReadEiiiiii12GDALDataTypePPc@GDAL_1.8 1.8.0 1
 _ZN14GDALRasterBand10FlushBlockEiii@GDAL_1.8 1.8.0 1
 _ZN14GDALRasterBand10FlushCacheEv@GDAL_1.8 1.8.0 1
 _ZN14GDALRasterBand10GetDatasetEv@GDAL_1.8 1.8.0 1
 _ZN14GDALRasterBand10GetMaximumEPi@GDAL_1.8 1.8.0 1
 _ZN14GDALRasterBand10GetMinimumEPi@GDAL_1.8 1.8.0 1
 _ZN14GDALRasterBand10WriteBlockEiiPv@GDAL_1.8 1.8.0 1
 _ZN14GDALRasterBand11GetMaskBandEv@GDAL_1.8 1.8.0 1
 _ZN14GDALRasterBand11GetOverviewEi@GDAL_1.8 1.8.0 1
 _ZN14GDALRasterBand11GetUnitTypeEv@GDAL_1.8 1.8.0 1
 _ZN14GDALRasterBand11IWriteBlockEiiPv@GDAL_1.8 1.8.0 1
 _ZN14GDALRasterBand11ReportErrorE6CPLErriPKcz@GDAL_1.8 1.9.0 1
 _ZN14GDALRasterBand11SetUnitTypeEPKc@GDAL_1.8 1.8.0 1
 _ZN14GDALRasterBand12GetBlockSizeEPiS0_@GDAL_1.8 1.8.0 1
 _ZN14GDALRasterBand12GetHistogramEddiPiiiPFidPKcPvES3_@GDAL_1.8 1.8.0 1
 _ZN14GDALRasterBand12GetMaskFlagsEv@GDAL_1.8 1.8.0 1
 _ZN14GDALRasterBand13GetColorTableEv@GDAL_1.8 1.8.0 1
 _ZN14GDALRasterBand13GetDefaultRATEv@GDAL_1.8 1.8.0 1
 _ZN14GDALRasterBand13GetStatisticsEiiPdS0_S0_S0_@GDAL_1.8 1.8.0 1
 _ZN14GDALRasterBand13InitBlockInfoEv@GDAL_1.8 1.8.0 1
 _ZN14GDALRasterBand13SetColorTableEP14GDALColorTable@GDAL_1.8 1.8.0 1
 _ZN14GDALRasterBand13SetDefaultRATEPK24GDALRasterAttributeTable@GDAL_1.8 1.8.0 1
 _ZN14GDALRasterBand13SetStatisticsEdddd@GDAL_1.8 1.8.0 1
 _ZN14GDALRasterBand14BuildOverviewsEPKciPiPFidS1_PvES3_@GDAL_1.8 1.8.0 1
 _ZN14GDALRasterBand14CreateMaskBandEi@GDAL_1.8 1.8.0 1
 _ZN14GDALRasterBand14GetNoDataValueEPi@GDAL_1.8 1.8.0 1
 _ZN14GDALRasterBand14SetNoDataValueEd@GDAL_1.8 1.8.0 1
 _ZN14GDALRasterBand16GetCategoryNamesEv@GDAL_1.8 1.8.0 1
 _ZN14GDALRasterBand16GetOverviewCountEv@GDAL_1.8 1.8.0 1
 _ZN14GDALRasterBand16OverviewRasterIOE10GDALRWFlagiiiiPvii12GDALDataTypeii@GDAL_1.8 1.8.0 1
 _ZN14GDALRasterBand16SetCategoryNamesEPPc@GDAL_1.8 1.8.0 1
 _ZN14GDALRasterBand16SetFlushBlockErrE6CPLErr@GDAL_1.8 1.8.0 1
 _ZN14GDALRasterBand17ComputeStatisticsEiPdS0_S0_S0_PFidPKcPvES3_@GDAL_1.8 1.8.0 1
 _ZN14GDALRasterBand17GetLockedBlockRefEiii@GDAL_1.8 1.8.0 1
 _ZN14GDALRasterBand17GetRasterDataTypeEv@GDAL_1.8 1.8.0 1
 _ZN14GDALRasterBand17GetVirtualMemAutoE10GDALRWFlagPiPxPPc@GDAL_1.8 1.11.0 1
 _ZN14GDALRasterBand18InvalidateMaskBandEv@GDAL_1.8 1.11.1 1
 _ZN14GDALRasterBand19ComputeRasterMinMaxEiPd@GDAL_1.8 1.8.0 1
 _ZN14GDALRasterBand19GetDefaultHistogramEPdS0_PiPS1_iPFidPKcPvES5_@GDAL_1.8 1.8.0 1
 _ZN14GDALRasterBand19SetDefaultHistogramEddiPi@GDAL_1.8 1.8.0 1
 _ZN14GDALRasterBand20TryGetLockedBlockRefEii@GDAL_1.8 1.8.0 1
 _ZN14GDALRasterBand21HasArbitraryOverviewsEv@GDAL_1.8 1.8.0 1
 _ZN14GDALRasterBand22GetColorInterpretationEv@GDAL_1.8 1.8.0 1
 _ZN14GDALRasterBand22SetColorInterpretationE15GDALColorInterp@GDAL_1.8 1.8.0 1
 _ZN14GDALRasterBand23GetRasterSampleOverviewEi@GDAL_1.8 1.8.0 1
 _ZN14GDALRasterBand26GetIndexColorTranslationToEPS_PhPi@GDAL_1.8 1.8.0 1
 _ZN14GDALRasterBand4FillEdd@GDAL_1.8 1.8.0 1
 _ZN14GDALRasterBand7GetBandEv@GDAL_1.8 1.8.0 1
 _ZN14GDALRasterBand8GetScaleEPi@GDAL_1.8 1.8.0 1
 _ZN14GDALRasterBand8GetXSizeEv@GDAL_1.8 1.8.0 1
 _ZN14GDALRasterBand8GetYSizeEv@GDAL_1.8 1.8.0 1
 _ZN14GDALRasterBand8RasterIOE10GDALRWFlagiiiiPvii12GDALDataTypeii@GDAL_1.8 1.8.0 1
 _ZN14GDALRasterBand8SetScaleEd@GDAL_1.8 1.8.0 1
 _ZN14GDALRasterBand9GetAccessEv@GDAL_1.8 1.8.0 1
 _ZN14GDALRasterBand9GetOffsetEPi@GDAL_1.8 1.8.0 1
 _ZN14GDALRasterBand9IRasterIOE10GDALRWFlagiiiiPvii12GDALDataTypeii@GDAL_1.8 1.8.0 1
 _ZN14GDALRasterBand9ReadBlockEiiPv@GDAL_1.8 1.8.0 1
 _ZN14GDALRasterBand9SetOffsetEd@GDAL_1.8 1.8.0 1
 _ZN14GDALRasterBandC1Ev@GDAL_1.8 1.8.0 1
 _ZN14GDALRasterBandC2Ev@GDAL_1.8 1.8.0 1
 _ZN14GDALRasterBandD0Ev@GDAL_1.8 1.8.0 1
 _ZN14GDALRasterBandD1Ev@GDAL_1.8 1.8.0 1
 _ZN14GDALRasterBandD2Ev@GDAL_1.8 1.8.0 1
 _ZN14GDALWarpKernel11PerformWarpEv@GDAL_1.8 1.8.0 1
 _ZN14GDALWarpKernel8ValidateEv@GDAL_1.8 1.8.0 1
 _ZN14GDALWarpKernelC1Ev@GDAL_1.8 1.8.0 1
 _ZN14GDALWarpKernelC2Ev@GDAL_1.8 1.8.0 1
 _ZN14GDALWarpKernelD0Ev@GDAL_1.8 1.8.0 1
 _ZN14GDALWarpKernelD1Ev@GDAL_1.8 1.8.0 1
 _ZN14GDALWarpKernelD2Ev@GDAL_1.8 1.8.0 1
 _ZN14OGRFeatureDefn11GetGeomTypeEv@GDAL_1.8 1.11.0 1
 _ZN14OGRFeatureDefn11SetGeomTypeE18OGRwkbGeometryType@GDAL_1.8 1.8.0 1
 _ZN14OGRFeatureDefn12AddFieldDefnEP12OGRFieldDefn@GDAL_1.8 1.8.0 1
 _ZN14OGRFeatureDefn12GetFieldDefnEi@GDAL_1.8 1.8.0 1
 _ZN14OGRFeatureDefn13GetFieldCountEv@GDAL_1.8 1.11.0 1
 _ZN14OGRFeatureDefn13GetFieldIndexEPKc@GDAL_1.8 1.8.0 1
 _ZN14OGRFeatureDefn14IsStyleIgnoredEv@GDAL_1.8 1.11.0 1
 _ZN14OGRFeatureDefn15DeleteFieldDefnEi@GDAL_1.8 1.9.0 1
 _ZN14OGRFeatureDefn15SetStyleIgnoredEi@GDAL_1.8 1.11.0 1
 _ZN14OGRFeatureDefn16AddGeomFieldDefnEP16OGRGeomFieldDefni@GDAL_1.8 1.11.0 1
 _ZN14OGRFeatureDefn16GetGeomFieldDefnEi@GDAL_1.8 1.11.0 1
 _ZN14OGRFeatureDefn17CreateFeatureDefnEPKc@GDAL_1.8 1.8.0 1
 _ZN14OGRFeatureDefn17GetGeomFieldCountEv@GDAL_1.8 1.11.0 1
 _ZN14OGRFeatureDefn17GetGeomFieldIndexEPKc@GDAL_1.8 1.11.0 1
 _ZN14OGRFeatureDefn17IsGeometryIgnoredEv@GDAL_1.8 1.11.0 1
 _ZN14OGRFeatureDefn17ReorderFieldDefnsEPi@GDAL_1.8 1.9.0 1
 _ZN14OGRFeatureDefn18DestroyFeatureDefnEPS_@GDAL_1.8 1.8.0 1
 _ZN14OGRFeatureDefn18SetGeometryIgnoredEi@GDAL_1.8 1.11.0 1
 _ZN14OGRFeatureDefn19DeleteGeomFieldDefnEi@GDAL_1.8 1.11.0 1
 _ZN14OGRFeatureDefn5CloneEv@GDAL_1.8 1.8.0 1
 _ZN14OGRFeatureDefn6IsSameEPS_@GDAL_1.8 1.11.0 1
 _ZN14OGRFeatureDefn7GetNameEv@GDAL_1.8 1.11.0 1
 _ZN14OGRFeatureDefn7ReleaseEv@GDAL_1.8 1.8.0 1
 _ZN14OGRFeatureDefnC1EPKc@GDAL_1.8 1.8.0 1
 _ZN14OGRFeatureDefnC2EPKc@GDAL_1.8 1.8.0 1
 _ZN14OGRFeatureDefnD0Ev@GDAL_1.8 1.8.0 1
 _ZN14OGRFeatureDefnD1Ev@GDAL_1.8 1.8.0 1
 _ZN14OGRFeatureDefnD2Ev@GDAL_1.8 1.8.0 1
 _ZN14OGRStyleSymbol11GetParamDblE30ogr_style_tool_param_symbol_idRi@GDAL_1.8 1.8.0 1
 _ZN14OGRStyleSymbol11GetParamNumE30ogr_style_tool_param_symbol_idRi@GDAL_1.8 1.8.0 1
 _ZN14OGRStyleSymbol11GetParamStrE30ogr_style_tool_param_symbol_idRi@GDAL_1.8 1.8.0 1
 _ZN14OGRStyleSymbol11SetParamDblE30ogr_style_tool_param_symbol_idd@GDAL_1.8 1.8.0 1
 _ZN14OGRStyleSymbol11SetParamNumE30ogr_style_tool_param_symbol_idi@GDAL_1.8 1.8.0 1
 _ZN14OGRStyleSymbol11SetParamStrE30ogr_style_tool_param_symbol_idPKc@GDAL_1.8 1.8.0 1
 _ZN14OGRStyleSymbol14GetStyleStringEv@GDAL_1.8 1.8.0 1
 _ZN14OGRStyleSymbol5ParseEv@GDAL_1.8 1.8.0 1
 _ZN14OGRStyleSymbolC1Ev@GDAL_1.8 1.8.0 1
 _ZN14OGRStyleSymbolC2Ev@GDAL_1.8 1.8.0 1
 _ZN14OGRStyleSymbolD0Ev@GDAL_1.8 1.8.0 1
 _ZN14OGRStyleSymbolD1Ev@GDAL_1.8 1.8.0 1
 _ZN14OGRStyleSymbolD2Ev@GDAL_1.8 1.8.0 1
 _ZN14VSIFileManager10GetHandlerEPKc@GDAL_1.8 1.8.0 1
 _ZN14VSIFileManager14InstallHandlerERKNSt7__cxx1112basic_stringIcSt11char_traitsIcESaIcEEEP20VSIFilesystemHandler@GDAL_1.8 1.11.2 1
 _ZN14VSIFileManager3GetEv@GDAL_1.8 1.8.0 1
 _ZN14VSIFileManagerC1Ev@GDAL_1.8 1.8.0 1
 _ZN14VSIFileManagerC2Ev@GDAL_1.8 1.8.0 1
 _ZN14VSIFileManagerD1Ev@GDAL_1.8 1.8.0 1
 _ZN14VSIFileManagerD2Ev@GDAL_1.8 1.8.0 1
 _ZN15GDALAsyncReader10LockBufferEd@GDAL_1.8 1.8.0 1
 _ZN15GDALAsyncReader12UnlockBufferEv@GDAL_1.8 1.8.0 1
 _ZN15GDALAsyncReaderC1Ev@GDAL_1.8 1.8.0 1
 _ZN15GDALAsyncReaderC2Ev@GDAL_1.8 1.8.0 1
 _ZN15GDALAsyncReaderD0Ev@GDAL_1.8 1.8.0 1
 _ZN15GDALAsyncReaderD1Ev@GDAL_1.8 1.8.0 1
 _ZN15GDALAsyncReaderD2Ev@GDAL_1.8 1.8.0 1
 _ZN15GDALJP2Metadata12CreateGMLJP2Eii@GDAL_1.8 1.8.0 1
 _ZN15GDALJP2Metadata12GMLSRSLookupEPKc@GDAL_1.8 1.8.0 1
 _ZN15GDALJP2Metadata12ReadAndParseEPKc@GDAL_1.8 1.8.0 1
 _ZN15GDALJP2Metadata13SetProjectionEPKc@GDAL_1.8 1.8.0 1
 _ZN15GDALJP2Metadata14CollectGMLDataEP10GDALJP2Box@GDAL_1.8 1.8.0 1
 _ZN15GDALJP2Metadata15ParseJP2GeoTIFFEv@GDAL_1.8 1.8.0 1
 _ZN15GDALJP2Metadata15SetGeoTransformEPd@GDAL_1.8 1.8.0 1
 _ZN15GDALJP2Metadata16CreateJP2GeoTIFFEv@GDAL_1.8 1.8.0 1
 _ZN15GDALJP2Metadata20ParseGMLCoverageDescEv@GDAL_1.8 1.8.0 1
 _ZN15GDALJP2Metadata7SetGCPsEiPK8GDAL_GCP@GDAL_1.8 1.8.0 1
 _ZN15GDALJP2Metadata9ParseMSIGEv@GDAL_1.8 1.8.0 1
 _ZN15GDALJP2Metadata9ReadBoxesEP8_IO_FILE@GDAL_1.8 1.8.0 1
 _ZN15GDALJP2MetadataC1Ev@GDAL_1.8 1.8.0 1
 _ZN15GDALJP2MetadataC2Ev@GDAL_1.8 1.8.0 1
 _ZN15GDALJP2MetadataD1Ev@GDAL_1.8 1.8.0 1
 _ZN15GDALJP2MetadataD2Ev@GDAL_1.8 1.8.0 1
 _ZN15GDALMajorObject10GetMOFlagsEv@GDAL_1.8 1.8.0 1
 _ZN15GDALMajorObject10SetMOFlagsEi@GDAL_1.8 1.8.0 1
 _ZN15GDALMajorObject11GetMetadataEPKc@GDAL_1.8 1.8.0 1
 _ZN15GDALMajorObject11SetMetadataEPPcPKc@GDAL_1.8 1.8.0 1
 _ZN15GDALMajorObject14SetDescriptionEPKc@GDAL_1.8 1.8.0 1
 _ZN15GDALMajorObject15GetMetadataItemEPKcS1_@GDAL_1.8 1.8.0 1
 _ZN15GDALMajorObject15SetMetadataItemEPKcS1_S1_@GDAL_1.8 1.8.0 1
 _ZN15GDALMajorObject21GetMetadataDomainListEv@GDAL_1.8 1.11.0 1
 _ZN15GDALMajorObject23BuildMetadataDomainListEPPciz@GDAL_1.8 1.11.0 1
 _ZN15GDALMajorObjectC1Ev@GDAL_1.8 1.8.0 1
 _ZN15GDALMajorObjectC2Ev@GDAL_1.8 1.8.0 1
 _ZN15GDALMajorObjectD0Ev@GDAL_1.8 1.8.0 1
 _ZN15GDALMajorObjectD1Ev@GDAL_1.8 1.8.0 1
 _ZN15GDALMajorObjectD2Ev@GDAL_1.8 1.8.0 1
 _ZN15GDALRasterBlock11InternalizeEv@GDAL_1.8 1.8.0 1
 _ZN15GDALRasterBlock13SafeLockBlockEPPS_@GDAL_1.8 1.8.0 1
 _ZN15GDALRasterBlock14DestroyRBMutexEv@GDAL_1.8 1.11.0 1
 _ZN15GDALRasterBlock15FlushCacheBlockEv@GDAL_1.8 1.8.0 1
 _ZN15GDALRasterBlock5TouchEv@GDAL_1.8 1.8.0 1
 _ZN15GDALRasterBlock5WriteEv@GDAL_1.8 1.8.0 1
 _ZN15GDALRasterBlock6DetachEv@GDAL_1.8 1.8.0 1
 _ZN15GDALRasterBlock6VerifyEv@GDAL_1.8 1.8.0 1
 _ZN15GDALRasterBlock9MarkCleanEv@GDAL_1.8 1.8.0 1
 _ZN15GDALRasterBlock9MarkDirtyEv@GDAL_1.8 1.8.0 1
 _ZN15GDALRasterBlockC1EP14GDALRasterBandii@GDAL_1.8 1.8.0 1
 _ZN15GDALRasterBlockC2EP14GDALRasterBandii@GDAL_1.8 1.8.0 1
 _ZN15GDALRasterBlockD0Ev@GDAL_1.8 1.8.0 1
 _ZN15GDALRasterBlockD1Ev@GDAL_1.8 1.8.0 1
 _ZN15GDALRasterBlockD2Ev@GDAL_1.8 1.8.0 1
 _ZN15GMLFeatureClass10GetExtentsEPdS0_S0_S0_@GDAL_1.8 1.8.0 1
 _ZN15GMLFeatureClass10SetExtentsEdddd@GDAL_1.8 1.8.0 1
 _ZN15GMLFeatureClass10SetSRSNameEPKc@GDAL_1.8 1.8.0 1
 _ZN15GMLFeatureClass11AddPropertyEP15GMLPropertyDefn@GDAL_1.8 1.8.0 1
 _ZN15GMLFeatureClass12GetExtraInfoEv@GDAL_1.8 1.8.0 1
 _ZN15GMLFeatureClass12MergeSRSNameEPKc@GDAL_1.8 1.8.0 1
 _ZN15GMLFeatureClass12SetExtraInfoEPKc@GDAL_1.8 1.8.0 1
 _ZN15GMLFeatureClass14SerializeToXMLEv@GDAL_1.8 1.8.0 1
 _ZN15GMLFeatureClass14SetElementNameEPKc@GDAL_1.8 1.8.0 1
 _ZN15GMLFeatureClass15GetFeatureCountEv@GDAL_1.8 1.8.0 1
 _ZN15GMLFeatureClass15SetFeatureCountEi@GDAL_1.8 1.8.0 1
 _ZN15GMLFeatureClass17InitializeFromXMLEP10CPLXMLNode@GDAL_1.8 1.8.0 1
 _ZN15GMLFeatureClass19AddGeometryPropertyEP23GMLGeometryPropertyDefn@GDAL_1.8 1.11.0 1
 _ZN15GMLFeatureClass20HasFeaturePropertiesEv@GDAL_1.8 1.11.0 1
 _ZN15GMLFeatureClass23ClearGeometryPropertiesEv@GDAL_1.8 1.11.0 1
 _ZN15GMLFeatureClass7SetNameEPKc@GDAL_1.8 1.10.1 1
 _ZN15GMLFeatureClassC1EPKc@GDAL_1.8 1.8.0 1
 _ZN15GMLFeatureClassC2EPKc@GDAL_1.8 1.8.0 1
 _ZN15GMLFeatureClassD1Ev@GDAL_1.8 1.8.0 1
 _ZN15GMLFeatureClassD2Ev@GDAL_1.8 1.8.0 1
 _ZN15GMLPropertyDefn12SetConditionEPKc@GDAL_1.8 1.11.0 1
 _ZN15GMLPropertyDefn13SetSrcElementEPKc@GDAL_1.8 1.8.0 1
 _ZN15GMLPropertyDefn20AnalysePropertyValueEPK11GMLPropertyi@GDAL_1.8 1.11.0 1
 _ZN15GMLPropertyDefnC1EPKcS1_@GDAL_1.8 1.8.0 1
 _ZN15GMLPropertyDefnC2EPKcS1_@GDAL_1.8 1.8.0 1
 _ZN15GMLPropertyDefnD1Ev@GDAL_1.8 1.8.0 1
 _ZN15GMLPropertyDefnD2Ev@GDAL_1.8 1.8.0 1
 _ZN15OGRFeatureQuery11CanUseIndexEP13swq_expr_nodeP8OGRLayer@GDAL_1.8 1.10.1 1
 _ZN15OGRFeatureQuery11CanUseIndexEP8OGRLayer@GDAL_1.8 1.10.1 1
 _ZN15OGRFeatureQuery13GetUsedFieldsEv@GDAL_1.8 1.8.0 1
 _ZN15OGRFeatureQuery14FieldCollectorEPvPPc@GDAL_1.8 1.8.0 1
 _ZN15OGRFeatureQuery22EvaluateAgainstIndicesEP13swq_expr_nodeP8OGRLayerRi@GDAL_1.8 1.10.1 1
 _ZN15OGRFeatureQuery22EvaluateAgainstIndicesEP8OGRLayerPi@GDAL_1.8 1.8.0 1
 _ZN15OGRFeatureQuery7CompileEP14OGRFeatureDefnPKc@GDAL_1.8 1.8.0 1
 _ZN15OGRFeatureQuery8EvaluateEP10OGRFeature@GDAL_1.8 1.8.0 1
 _ZN15OGRFeatureQueryC1Ev@GDAL_1.8 1.8.0 1
 _ZN15OGRFeatureQueryC2Ev@GDAL_1.8 1.8.0 1
 _ZN15OGRFeatureQueryD1Ev@GDAL_1.8 1.8.0 1
 _ZN15OGRFeatureQueryD2Ev@GDAL_1.8 1.8.0 1
 _ZN15OGRMultiPolygon13importFromWktEPPc@GDAL_1.8 1.8.0 1
 _ZN15OGRMultiPolygon19addGeometryDirectlyEP11OGRGeometry@GDAL_1.8 1.8.0 1
 _ZN15OGRMultiPolygonC1Ev@GDAL_1.8 1.8.0 1
 _ZN15OGRMultiPolygonC2Ev@GDAL_1.8 1.8.0 1
 _ZN15OGRMultiPolygonD0Ev@GDAL_1.8 1.8.0 1
 _ZN15OGRMultiPolygonD1Ev@GDAL_1.8 1.8.0 1
 _ZN15OGRMultiPolygonD2Ev@GDAL_1.8 1.8.0 1
 _ZN15OGRMutexedLayer10GetFeatureEl@GDAL_1.8 1.11.0 1
 _ZN15OGRMutexedLayer10SetFeatureEP10OGRFeature@GDAL_1.8 1.11.0 1
 _ZN15OGRMutexedLayer10SyncToDiskEv@GDAL_1.8 1.11.0 1
 _ZN15OGRMutexedLayer11CreateFieldEP12OGRFieldDefni@GDAL_1.8 1.11.0 1
 _ZN15OGRMutexedLayer11DeleteFieldEi@GDAL_1.8 1.11.0 1
 _ZN15OGRMutexedLayer11GetGeomTypeEv@GDAL_1.8 1.11.0 1
 _ZN15OGRMutexedLayer12GetFIDColumnEv@GDAL_1.8 1.11.0 1
 _ZN15OGRMutexedLayer12GetLayerDefnEv@GDAL_1.8 1.11.0 1
 _ZN15OGRMutexedLayer12ResetReadingEv@GDAL_1.8 1.11.0 1
 _ZN15OGRMutexedLayer13CreateFeatureEP10OGRFeature@GDAL_1.8 1.11.0 1
 _ZN15OGRMutexedLayer13DeleteFeatureEl@GDAL_1.8 1.11.0 1
 _ZN15OGRMutexedLayer13GetSpatialRefEv@GDAL_1.8 1.11.0 1
 _ZN15OGRMutexedLayer13GetStyleTableEv@GDAL_1.8 1.11.0 1
 _ZN15OGRMutexedLayer13ReorderFieldsEPi@GDAL_1.8 1.11.0 1
 _ZN15OGRMutexedLayer13SetStyleTableEP13OGRStyleTable@GDAL_1.8 1.11.0 1
 _ZN15OGRMutexedLayer14AlterFieldDefnEiP12OGRFieldDefni@GDAL_1.8 1.11.0 1
 _ZN15OGRMutexedLayer14GetNextFeatureEv@GDAL_1.8 1.11.0 1
 _ZN15OGRMutexedLayer14SetNextByIndexEl@GDAL_1.8 1.11.0 1
 _ZN15OGRMutexedLayer14TestCapabilityEPKc@GDAL_1.8 1.11.0 1
 _ZN15OGRMutexedLayer15GetFeatureCountEi@GDAL_1.8 1.11.0 1
 _ZN15OGRMutexedLayer16GetSpatialFilterEv@GDAL_1.8 1.11.0 1
 _ZN15OGRMutexedLayer16SetIgnoredFieldsEPPKc@GDAL_1.8 1.11.0 1
 _ZN15OGRMutexedLayer16SetSpatialFilterEP11OGRGeometry@GDAL_1.8 1.11.0 1
 _ZN15OGRMutexedLayer16SetSpatialFilterEiP11OGRGeometry@GDAL_1.8 1.11.0 1
 _ZN15OGRMutexedLayer16StartTransactionEv@GDAL_1.8 1.11.0 1
 _ZN15OGRMutexedLayer17CommitTransactionEv@GDAL_1.8 1.11.0 1
 _ZN15OGRMutexedLayer17GetGeometryColumnEv@GDAL_1.8 1.11.0 1
 _ZN15OGRMutexedLayer18SetAttributeFilterEPKc@GDAL_1.8 1.11.0 1
 _ZN15OGRMutexedLayer19RollbackTransactionEv@GDAL_1.8 1.11.0 1
 _ZN15OGRMutexedLayer20SetSpatialFilterRectEdddd@GDAL_1.8 1.11.0 1
 _ZN15OGRMutexedLayer20SetSpatialFilterRectEidddd@GDAL_1.8 1.11.0 1
 _ZN15OGRMutexedLayer21SetStyleTableDirectlyEP13OGRStyleTable@GDAL_1.8 1.11.0 1
 _ZN15OGRMutexedLayer7GetNameEv@GDAL_1.8 1.11.0 1
 _ZN15OGRMutexedLayer9GetExtentEP11OGREnvelopei@GDAL_1.8 1.11.0 1
 _ZN15OGRMutexedLayer9GetExtentEiP11OGREnvelopei@GDAL_1.8 1.11.0 1
 _ZN15OGRMutexedLayerC1EP8OGRLayeriPv@GDAL_1.8 1.11.0 1
 _ZN15OGRMutexedLayerC2EP8OGRLayeriPv@GDAL_1.8 1.11.0 1
 _ZN15OGRMutexedLayerD0Ev@GDAL_1.8 1.11.0 1
 _ZN15OGRMutexedLayerD1Ev@GDAL_1.8 1.11.0 1
 _ZN15OGRMutexedLayerD2Ev@GDAL_1.8 1.11.0 1
 _ZN15VFKPropertyDefnC1EPKcS1_b@GDAL_1.8 1.10.1 1
 _ZN15VFKPropertyDefnC2EPKcS1_b@GDAL_1.8 1.10.1 1
 _ZN15VFKPropertyDefnD0Ev@GDAL_1.8 1.8.0 1
 _ZN15VFKPropertyDefnD1Ev@GDAL_1.8 1.8.0 1
 _ZN15VFKPropertyDefnD2Ev@GDAL_1.8 1.8.0 1
 _ZN15VRTSimpleSource10GetMaximumEiiPi@GDAL_1.8 1.11.0 1
 _ZN15VRTSimpleSource10GetMinimumEiiPi@GDAL_1.8 1.11.0 1
 _ZN15VRTSimpleSource10SetSrcBandEP14GDALRasterBand@GDAL_1.8 1.11.0 1
 _ZN15VRTSimpleSource11GetFileListEPPPcPiS3_P11_CPLHashSet@GDAL_1.8 1.11.0 1
 _ZN15VRTSimpleSource12GetHistogramEiiddiPiiiPFidPKcPvES3_@GDAL_1.8 1.11.0 1
 _ZN15VRTSimpleSource12SetDstWindowEiiii@GDAL_1.8 1.11.0 1
 _ZN15VRTSimpleSource12SetSrcWindowEiiii@GDAL_1.8 1.11.0 1
 _ZN15VRTSimpleSource14IsSimpleSourceEv@GDAL_1.8 1.11.0 1
 _ZN15VRTSimpleSource14SerializeToXMLEPKc@GDAL_1.8 1.11.0 1
 _ZN15VRTSimpleSource14SetNoDataValueEd@GDAL_1.8 1.11.0 1
 _ZN15VRTSimpleSource14SetSrcMaskBandEP14GDALRasterBand@GDAL_1.8 1.11.0 1
 _ZN15VRTSimpleSource15DatasetRasterIOEiiiiPvii12GDALDataTypeiPiiii@GDAL_1.8 1.11.0 1
 _ZN15VRTSimpleSource15GetSrcDstWindowEiiiiiiPiS0_S0_S0_S0_S0_S0_S0_@GDAL_1.8 1.11.0 1
 _ZN15VRTSimpleSource17ComputeStatisticsEiiiPdS0_S0_S0_PFidPKcPvES3_@GDAL_1.8 1.11.0 1
 _ZN15VRTSimpleSource19ComputeRasterMinMaxEiiiPd@GDAL_1.8 1.11.0 1
 _ZN15VRTSimpleSource22IsSameExceptBandNumberEPS_@GDAL_1.8 1.11.0 1
 _ZN15VRTSimpleSource7GetBandEv@GDAL_1.8 1.11.0 1
 _ZN15VRTSimpleSource7GetTypeEv@GDAL_1.8 1.11.0 1
 _ZN15VRTSimpleSource7XMLInitEP10CPLXMLNodePKc@GDAL_1.8 1.11.0 1
 _ZN15VRTSimpleSource8DstToSrcEddRdS0_@GDAL_1.8 1.11.0 1
 _ZN15VRTSimpleSource8RasterIOEiiiiPvii12GDALDataTypeii@GDAL_1.8 1.11.0 1
 _ZN15VRTSimpleSource8SrcToDstEddRdS0_@GDAL_1.8 1.11.0 1
 _ZN15VRTSimpleSourceC1Ev@GDAL_1.8 1.11.0 1
 _ZN15VRTSimpleSourceC2Ev@GDAL_1.8 1.11.0 1
 _ZN15VRTSimpleSourceD0Ev@GDAL_1.8 1.11.0 1
 _ZN15VRTSimpleSourceD1Ev@GDAL_1.8 1.11.0 1
 _ZN15VRTSimpleSourceD2Ev@GDAL_1.8 1.11.0 1
 _ZN16CPLODBCStatement10DumpResultEP8_IO_FILEi@GDAL_1.8 1.8.0 1
 _ZN16CPLODBCStatement10ExecuteSQLEPKc@GDAL_1.8 1.8.0 1
 _ZN16CPLODBCStatement10GetColDataEPKcS1_@GDAL_1.8 1.8.0 1
 _ZN16CPLODBCStatement10GetColDataEiPKc@GDAL_1.8 1.8.0 1
 _ZN16CPLODBCStatement10GetColNameEi@GDAL_1.8 1.8.0 1
 _ZN16CPLODBCStatement10GetColSizeEi@GDAL_1.8 1.8.0 1
 _ZN16CPLODBCStatement10GetColTypeEi@GDAL_1.8 1.8.0 1
 _ZN16CPLODBCStatement10GetColumnsEPKcS1_S1_@GDAL_1.8 1.8.0 1
 _ZN16CPLODBCStatement11GetColCountEv@GDAL_1.8 1.8.0 1
 _ZN16CPLODBCStatement11GetTypeNameEi@GDAL_1.8 1.8.0 1
 _ZN16CPLODBCStatement13AppendEscapedEPKc@GDAL_1.8 1.8.0 1
 _ZN16CPLODBCStatement14GetColNullableEi@GDAL_1.8 1.8.0 1
 _ZN16CPLODBCStatement14GetColTypeNameEi@GDAL_1.8 1.8.0 1
 _ZN16CPLODBCStatement14GetPrimaryKeysEPKcS1_S1_@GDAL_1.8 1.8.0 1
 _ZN16CPLODBCStatement14GetTypeMappingEs@GDAL_1.8 1.8.0 1
 _ZN16CPLODBCStatement15ClearColumnDataEv@GDAL_1.8 1.8.0 1
 _ZN16CPLODBCStatement15GetColPrecisionEi@GDAL_1.8 1.8.0 1
 _ZN16CPLODBCStatement16GetColDataLengthEi@GDAL_1.8 1.8.0 1
 _ZN16CPLODBCStatement18CollectResultsInfoEv@GDAL_1.8 1.8.0 1
 _ZN16CPLODBCStatement5ClearEv@GDAL_1.8 1.8.0 1
 _ZN16CPLODBCStatement5FetchEii@GDAL_1.8 1.8.0 1
 _ZN16CPLODBCStatement6AppendEPKc@GDAL_1.8 1.8.0 1
 _ZN16CPLODBCStatement6AppendEd@GDAL_1.8 1.8.0 1
 _ZN16CPLODBCStatement6AppendEi@GDAL_1.8 1.8.0 1
 _ZN16CPLODBCStatement6FailedEi@GDAL_1.8 1.8.0 1
 _ZN16CPLODBCStatement7AppendfEPKcz@GDAL_1.8 1.8.0 1
 _ZN16CPLODBCStatement8GetColIdEPKc@GDAL_1.8 1.8.0 1
 _ZN16CPLODBCStatement9GetTablesEPKcS1_@GDAL_1.8 1.8.0 1
 _ZN16CPLODBCStatementC1EP14CPLODBCSession@GDAL_1.8 1.8.0 1
 _ZN16CPLODBCStatementC2EP14CPLODBCSession@GDAL_1.8 1.8.0 1
 _ZN16CPLODBCStatementD1Ev@GDAL_1.8 1.8.0 1
 _ZN16CPLODBCStatementD2Ev@GDAL_1.8 1.8.0 1
 _ZN16GDALProxyDataset10AdviseReadEiiiiii12GDALDataTypeiPiPPc@GDAL_1.8 1.8.0 1
 _ZN16GDALProxyDataset10FlushCacheEv@GDAL_1.8 1.8.0 1
 _ZN16GDALProxyDataset11GetFileListEv@GDAL_1.8 1.8.0 1
 _ZN16GDALProxyDataset11GetGCPCountEv@GDAL_1.8 1.8.0 1
 _ZN16GDALProxyDataset11GetMetadataEPKc@GDAL_1.8 1.8.0 1
 _ZN16GDALProxyDataset11SetMetadataEPPcPKc@GDAL_1.8 1.8.0 1
 _ZN16GDALProxyDataset13SetProjectionEPKc@GDAL_1.8 1.8.0 1
 _ZN16GDALProxyDataset14CreateMaskBandEi@GDAL_1.8 1.8.0 1
 _ZN16GDALProxyDataset15GetGeoTransformEPd@GDAL_1.8 1.8.0 1
 _ZN16GDALProxyDataset15GetMetadataItemEPKcS1_@GDAL_1.8 1.8.0 1
 _ZN16GDALProxyDataset15IBuildOverviewsEPKciPiiS2_PFidS1_PvES3_@GDAL_1.8 1.8.0 1
 _ZN16GDALProxyDataset15SetGeoTransformEPd@GDAL_1.8 1.8.0 1
 _ZN16GDALProxyDataset15SetMetadataItemEPKcS1_S1_@GDAL_1.8 1.8.0 1
 _ZN16GDALProxyDataset16GetGCPProjectionEv@GDAL_1.8 1.8.0 1
 _ZN16GDALProxyDataset16GetProjectionRefEv@GDAL_1.8 1.8.0 1
 _ZN16GDALProxyDataset17GetInternalHandleEPKc@GDAL_1.8 1.8.0 1
 _ZN16GDALProxyDataset21GetMetadataDomainListEv@GDAL_1.8 1.11.0 1
 _ZN16GDALProxyDataset22UnrefUnderlyingDatasetEP11GDALDataset@GDAL_1.8 1.8.0 1
 _ZN16GDALProxyDataset7GetGCPsEv@GDAL_1.8 1.8.0 1
 _ZN16GDALProxyDataset7SetGCPsEiPK8GDAL_GCPPKc@GDAL_1.8 1.8.0 1
 _ZN16GDALProxyDataset9GetDriverEv@GDAL_1.8 1.8.0 1
 _ZN16GDALProxyDataset9IRasterIOE10GDALRWFlagiiiiPvii12GDALDataTypeiPiiii@GDAL_1.8 1.8.0 1
 _ZN16OGRGeomFieldDefn10InitializeEPKc18OGRwkbGeometryType@GDAL_1.8 1.11.0 1
 _ZN16OGRGeomFieldDefn13GetSpatialRefEv@GDAL_1.8 1.11.0 1
 _ZN16OGRGeomFieldDefn13SetSpatialRefEP19OGRSpatialReference@GDAL_1.8 1.11.0 1
 _ZN16OGRGeomFieldDefn6IsSameEPS_@GDAL_1.8 1.11.0 1
 _ZN16OGRGeomFieldDefn7SetNameEPKc@GDAL_1.8 1.11.0 1
 _ZN16OGRGeomFieldDefn7SetTypeE18OGRwkbGeometryType@GDAL_1.8 1.11.0 1
 _ZN16OGRGeomFieldDefnC1EPKc18OGRwkbGeometryType@GDAL_1.8 1.11.0 1
 _ZN16OGRGeomFieldDefnC1EPS_@GDAL_1.8 1.11.0 1
 _ZN16OGRGeomFieldDefnC2EPKc18OGRwkbGeometryType@GDAL_1.8 1.11.0 1
 _ZN16OGRGeomFieldDefnC2EPS_@GDAL_1.8 1.11.0 1
 _ZN16OGRGeomFieldDefnD0Ev@GDAL_1.8 1.11.0 1
 _ZN16OGRGeomFieldDefnD1Ev@GDAL_1.8 1.11.0 1
 _ZN16OGRGeomFieldDefnD2Ev@GDAL_1.8 1.11.0 1
 _ZN16VFKFeatureSQLite10ExecuteSQLEPKc@GDAL_1.8 1.10.1 1
 _ZN16VFKFeatureSQLite11FinalizeSQLEv@GDAL_1.8 1.10.1 1
 _ZN16VFKFeatureSQLite12SetFIDFromDBEv@GDAL_1.8 1.10.1 1
 _ZN16VFKFeatureSQLite14LoadPropertiesEP10OGRFeature@GDAL_1.8 1.10.1 1
 _ZN16VFKFeatureSQLite17LoadGeometryPointEv@GDAL_1.8 1.10.1 1
 _ZN16VFKFeatureSQLite19LoadGeometryPolygonEv@GDAL_1.8 1.10.1 1
 _ZN16VFKFeatureSQLite24LoadGeometryLineStringHPEv@GDAL_1.8 1.10.1 1
 _ZN16VFKFeatureSQLite25LoadGeometryLineStringSBPEv@GDAL_1.8 1.10.1 1
 _ZN16VFKFeatureSQLiteC1EP13IVFKDataBlock@GDAL_1.8 1.10.1 1
 _ZN16VFKFeatureSQLiteC1EP13IVFKDataBlockil@GDAL_1.8 1.10.1 1
 _ZN16VFKFeatureSQLiteC1EPK10VFKFeature@GDAL_1.8 1.10.1 1
 _ZN16VFKFeatureSQLiteC2EP13IVFKDataBlock@GDAL_1.8 1.10.1 1
 _ZN16VFKFeatureSQLiteC2EP13IVFKDataBlockil@GDAL_1.8 1.10.1 1
 _ZN16VFKFeatureSQLiteC2EPK10VFKFeature@GDAL_1.8 1.10.1 1
 _ZN16VFKFeatureSQLiteD0Ev@GDAL_1.8 1.10.1 1
 _ZN16VFKFeatureSQLiteD1Ev@GDAL_1.8 1.10.1 1
 _ZN16VFKFeatureSQLiteD2Ev@GDAL_1.8 1.10.1 1
 _ZN16VRTComplexSource10GetMaximumEiiPi@GDAL_1.8 1.11.0 1
 _ZN16VRTComplexSource10GetMinimumEiiPi@GDAL_1.8 1.11.0 1
 _ZN16VRTComplexSource11LookupValueEd@GDAL_1.8 1.11.0 1
 _ZN16VRTComplexSource12GetHistogramEiiddiPiiiPFidPKcPvES3_@GDAL_1.8 1.11.0 1
 _ZN16VRTComplexSource14SerializeToXMLEPKc@GDAL_1.8 1.11.0 1
 _ZN16VRTComplexSource15SetPowerScalingEddddd@GDAL_1.8 1.11.0 1
 _ZN16VRTComplexSource16RasterIOInternalEiiiiPvii12GDALDataTypeii@GDAL_1.8 1.11.0 1
 _ZN16VRTComplexSource16SetLinearScalingEdd@GDAL_1.8 1.11.0 1
 _ZN16VRTComplexSource17ComputeStatisticsEiiiPdS0_S0_S0_PFidPKcPvES3_@GDAL_1.8 1.11.0 1
 _ZN16VRTComplexSource19ComputeRasterMinMaxEiiiPd@GDAL_1.8 1.11.0 1
 _ZN16VRTComplexSource22SetColorTableComponentEi@GDAL_1.8 1.11.0 1
 _ZN16VRTComplexSource7GetTypeEv@GDAL_1.8 1.11.0 1
 _ZN16VRTComplexSource7XMLInitEP10CPLXMLNodePKc@GDAL_1.8 1.11.0 1
 _ZN16VRTComplexSource8RasterIOEiiiiPvii12GDALDataTypeii@GDAL_1.8 1.11.0 1
 _ZN16VRTComplexSourceC1Ev@GDAL_1.8 1.11.0 1
 _ZN16VRTComplexSourceC2Ev@GDAL_1.8 1.11.0 1
 _ZN16VRTComplexSourceD0Ev@GDAL_1.8 1.11.0 1
 _ZN16VRTComplexSourceD1Ev@GDAL_1.8 1.11.0 1
 _ZN16VRTComplexSourceD2Ev@GDAL_1.8 1.11.0 1
 _ZN16VRTRawRasterBand10IReadBlockEiiPv@GDAL_1.8 1.8.0 1
 _ZN16VRTRawRasterBand10SetRawLinkEPKcS1_iyiiS1_@GDAL_1.8 1.8.0 1
 _ZN16VRTRawRasterBand11GetFileListEPPPcPiS3_P11_CPLHashSet@GDAL_1.8 1.8.0 1
 _ZN16VRTRawRasterBand11IWriteBlockEiiPv@GDAL_1.8 1.8.0 1
 _ZN16VRTRawRasterBand12ClearRawLinkEv@GDAL_1.8 1.8.0 1
 _ZN16VRTRawRasterBand14SerializeToXMLEPKc@GDAL_1.8 1.8.0 1
 _ZN16VRTRawRasterBand7XMLInitEP10CPLXMLNodePKc@GDAL_1.8 1.8.0 1
 _ZN16VRTRawRasterBand9IRasterIOE10GDALRWFlagiiiiPvii12GDALDataTypeii@GDAL_1.8 1.8.0 1
 _ZN16VRTRawRasterBandC1EP11GDALDataseti12GDALDataType@GDAL_1.8 1.8.0 1
 _ZN16VRTRawRasterBandC2EP11GDALDataseti12GDALDataType@GDAL_1.8 1.8.0 1
 _ZN16VRTRawRasterBandD0Ev@GDAL_1.8 1.8.0 1
 _ZN16VRTRawRasterBandD1Ev@GDAL_1.8 1.8.0 1
 _ZN16VRTRawRasterBandD2Ev@GDAL_1.8 1.8.0 1
 _ZN16VRTWarpedDataset10InitializeEPv@GDAL_1.8 1.8.0 1
 _ZN16VRTWarpedDataset11GetFileListEv@GDAL_1.8 1.8.0 1
 _ZN16VRTWarpedDataset12GetBlockSizeEPiS0_@GDAL_1.8 1.8.0 1
 _ZN16VRTWarpedDataset12ProcessBlockEii@GDAL_1.8 1.8.0 1
 _ZN16VRTWarpedDataset14SerializeToXMLEPKc@GDAL_1.8 1.8.0 1
 _ZN16VRTWarpedDataset15IBuildOverviewsEPKciPiiS2_PFidS1_PvES3_@GDAL_1.8 1.8.0 1
 _ZN16VRTWarpedDataset22CloseDependentDatasetsEv@GDAL_1.8 1.9.0 1
 _ZN16VRTWarpedDataset7AddBandE12GDALDataTypePPc@GDAL_1.8 1.8.0 1
 _ZN16VRTWarpedDataset7XMLInitEP10CPLXMLNodePKc@GDAL_1.8 1.8.0 1
 _ZN16VRTWarpedDatasetC1Eii@GDAL_1.8 1.8.0 1
 _ZN16VRTWarpedDatasetC2Eii@GDAL_1.8 1.8.0 1
 _ZN16VRTWarpedDatasetD0Ev@GDAL_1.8 1.8.0 1
 _ZN16VRTWarpedDatasetD1Ev@GDAL_1.8 1.8.0 1
 _ZN16VRTWarpedDatasetD2Ev@GDAL_1.8 1.8.0 1
 _ZN16VSIVirtualHandle14ReadMultiRangeEiPPvPKyPKm@GDAL_1.8 1.9.0 1
 _ZN16VSIVirtualHandle23GetNativeFileDescriptorEv@GDAL_1.8 1.11.0 1
 _ZN16VSIVirtualHandle5FlushEv@GDAL_1.8 1.8.0 1
 _ZN16VSIVirtualHandle8TruncateEy@GDAL_1.8 1.9.0 1
 _ZN17GDALDriverManager14GetDriverCountEv@GDAL_1.8 1.8.0 1
 _ZN17GDALDriverManager14RegisterDriverEP10GDALDriver@GDAL_1.8 1.8.0 1
 _ZN17GDALDriverManager15AutoLoadDriversEv@GDAL_1.8 1.8.0 1
 _ZN17GDALDriverManager15AutoSkipDriversEv@GDAL_1.8 1.8.0 1
 _ZN17GDALDriverManager15GetDriverByNameEPKc@GDAL_1.8 1.8.0 1
 _ZN17GDALDriverManager16DeregisterDriverEP10GDALDriver@GDAL_1.8 1.8.0 1
 _ZN17GDALDriverManager7GetHomeEv@GDAL_1.8 1.8.0 1
 _ZN17GDALDriverManager7SetHomeEPKc@GDAL_1.8 1.8.0 1
 _ZN17GDALDriverManager9GetDriverEi@GDAL_1.8 1.8.0 1
 _ZN17GDALDriverManagerC1Ev@GDAL_1.8 1.8.0 1
 _ZN17GDALDriverManagerC2Ev@GDAL_1.8 1.8.0 1
 _ZN17GDALDriverManagerD0Ev@GDAL_1.8 1.8.0 1
 _ZN17GDALDriverManagerD1Ev@GDAL_1.8 1.8.0 1
 _ZN17GDALDriverManagerD2Ev@GDAL_1.8 1.8.0 1
 _ZN17GDALPamRasterBand11GetUnitTypeEv@GDAL_1.8 1.8.0 1
 _ZN17GDALPamRasterBand11SetMetadataEPPcPKc@GDAL_1.8 1.8.0 1
 _ZN17GDALPamRasterBand11SetUnitTypeEPKc@GDAL_1.8 1.8.0 1
 _ZN17GDALPamRasterBand12GetHistogramEddiPiiiPFidPKcPvES3_@GDAL_1.8 1.8.0 1
 _ZN17GDALPamRasterBand13GetColorTableEv@GDAL_1.8 1.8.0 1
 _ZN17GDALPamRasterBand13GetDefaultRATEv@GDAL_1.8 1.8.0 1
 _ZN17GDALPamRasterBand13PamInitializeEv@GDAL_1.8 1.8.0 1
 _ZN17GDALPamRasterBand13SetColorTableEP14GDALColorTable@GDAL_1.8 1.8.0 1
 _ZN17GDALPamRasterBand13SetDefaultRATEPK24GDALRasterAttributeTable@GDAL_1.8 1.8.0 1
 _ZN17GDALPamRasterBand14GetNoDataValueEPi@GDAL_1.8 1.8.0 1
 _ZN17GDALPamRasterBand14SerializeToXMLEPKc@GDAL_1.8 1.8.0 1
 _ZN17GDALPamRasterBand14SetDescriptionEPKc@GDAL_1.8 1.8.0 1
 _ZN17GDALPamRasterBand14SetNoDataValueEd@GDAL_1.8 1.8.0 1
 _ZN17GDALPamRasterBand15SetMetadataItemEPKcS1_S1_@GDAL_1.8 1.8.0 1
 _ZN17GDALPamRasterBand16GetCategoryNamesEv@GDAL_1.8 1.8.0 1
 _ZN17GDALPamRasterBand16SetCategoryNamesEPPc@GDAL_1.8 1.8.0 1
 _ZN17GDALPamRasterBand19GetDefaultHistogramEPdS0_PiPS1_iPFidPKcPvES5_@GDAL_1.8 1.8.0 1
 _ZN17GDALPamRasterBand19SetDefaultHistogramEddiPi@GDAL_1.8 1.8.0 1
 _ZN17GDALPamRasterBand22GetColorInterpretationEv@GDAL_1.8 1.8.0 1
 _ZN17GDALPamRasterBand22SetColorInterpretationE15GDALColorInterp@GDAL_1.8 1.8.0 1
 _ZN17GDALPamRasterBand7XMLInitEP10CPLXMLNodePKc@GDAL_1.8 1.8.0 1
 _ZN17GDALPamRasterBand8GetScaleEPi@GDAL_1.8 1.8.0 1
 _ZN17GDALPamRasterBand8PamClearEv@GDAL_1.8 1.8.0 1
 _ZN17GDALPamRasterBand8SetScaleEd@GDAL_1.8 1.8.0 1
 _ZN17GDALPamRasterBand9CloneInfoEP14GDALRasterBandi@GDAL_1.8 1.8.0 1
 _ZN17GDALPamRasterBand9GetOffsetEPi@GDAL_1.8 1.8.0 1
 _ZN17GDALPamRasterBand9SetOffsetEd@GDAL_1.8 1.8.0 1
 _ZN17GDALPamRasterBandC1Ev@GDAL_1.8 1.8.0 1
 _ZN17GDALPamRasterBandC2Ev@GDAL_1.8 1.8.0 1
 _ZN17GDALPamRasterBandD0Ev@GDAL_1.8 1.8.0 1
 _ZN17GDALPamRasterBandD1Ev@GDAL_1.8 1.8.0 1
 _ZN17GDALPamRasterBandD2Ev@GDAL_1.8 1.8.0 1
 _ZN17GDALWarpOperation10GetOptionsEv@GDAL_1.8 1.8.0 1
 _ZN17GDALWarpOperation10InitializeEPK15GDALWarpOptions@GDAL_1.8 1.8.0 1
 _ZN17GDALWarpOperation10WarpRegionEiiiiiiiidd@GDAL_1.8 1.8.0 1
 _ZN17GDALWarpOperation11WipeOptionsEv@GDAL_1.8 1.8.0 1
 _ZN17GDALWarpOperation12ReportTimingEPKc@GDAL_1.8 1.8.0 1
 _ZN17GDALWarpOperation13WipeChunkListEv@GDAL_1.8 1.8.0 1
 _ZN17GDALWarpOperation15ValidateOptionsEv@GDAL_1.8 1.8.0 1
 _ZN17GDALWarpOperation16CollectChunkListEiiii@GDAL_1.8 1.8.0 1
 _ZN17GDALWarpOperation16CreateKernelMaskEP14GDALWarpKerneliPKc@GDAL_1.8 1.8.0 1
 _ZN17GDALWarpOperation17ChunkAndWarpImageEiiii@GDAL_1.8 1.8.0 1
 _ZN17GDALWarpOperation17ChunkAndWarpMultiEiiii@GDAL_1.8 1.8.0 1
 _ZN17GDALWarpOperation18WarpRegionToBufferEiiiiPv12GDALDataTypeiiiidd@GDAL_1.8 1.8.0 1
 _ZN17GDALWarpOperation19ComputeSourceWindowEiiiiPiS0_S0_S0_@GDAL_1.8 1.8.0 1
 _ZN17GDALWarpOperationC1Ev@GDAL_1.8 1.8.0 1
 _ZN17GDALWarpOperationC2Ev@GDAL_1.8 1.8.0 1
 _ZN17GDALWarpOperationD0Ev@GDAL_1.8 1.8.0 1
 _ZN17GDALWarpOperationD1Ev@GDAL_1.8 1.8.0 1
 _ZN17GDALWarpOperationD2Ev@GDAL_1.8 1.8.0 1
 _ZN17OGRLayerAttrIndexC1Ev@GDAL_1.8 1.8.0 1
 _ZN17OGRLayerAttrIndexC2Ev@GDAL_1.8 1.8.0 1
 _ZN17OGRLayerAttrIndexD0Ev@GDAL_1.8 1.8.0 1
 _ZN17OGRLayerAttrIndexD1Ev@GDAL_1.8 1.8.0 1
 _ZN17OGRLayerAttrIndexD2Ev@GDAL_1.8 1.8.0 1
 _ZN17S57ClassRegistrar11GetAttrInfoEi@GDAL_1.8 1.11.0 1
 _ZN17S57ClassRegistrar17FindAttrByAcronymEPKc@GDAL_1.8 1.8.0 1
 _ZN17S57ClassRegistrar8FindFileEPKcS1_iPP8_IO_FILE@GDAL_1.8 1.8.0 1
 _ZN17S57ClassRegistrar8LoadInfoEPKcS1_i@GDAL_1.8 1.8.0 1
 _ZN17S57ClassRegistrar8ReadLineEP8_IO_FILE@GDAL_1.8 1.8.0 1
 _ZN17S57ClassRegistrarC1Ev@GDAL_1.8 1.8.0 1
 _ZN17S57ClassRegistrarC2Ev@GDAL_1.8 1.8.0 1
 _ZN17S57ClassRegistrarD1Ev@GDAL_1.8 1.8.0 1
 _ZN17S57ClassRegistrarD2Ev@GDAL_1.8 1.8.0 1
 _ZN18GDALNoDataMaskBand10IReadBlockEiiPv@GDAL_1.8 1.8.0 1
 _ZN18GDALNoDataMaskBand9IRasterIOE10GDALRWFlagiiiiPvii12GDALDataTypeii@GDAL_1.8 1.10.1 1
 _ZN18GDALNoDataMaskBandC1EP14GDALRasterBand@GDAL_1.8 1.8.0 1
 _ZN18GDALNoDataMaskBandC2EP14GDALRasterBand@GDAL_1.8 1.8.0 1
 _ZN18GDALNoDataMaskBandD0Ev@GDAL_1.8 1.8.0 1
 _ZN18GDALNoDataMaskBandD1Ev@GDAL_1.8 1.8.0 1
 _ZN18GDALNoDataMaskBandD2Ev@GDAL_1.8 1.8.0 1
 _ZN18OGRGeometryFactory13createFromFgfEPhP19OGRSpatialReferencePP11OGRGeometryiPi@GDAL_1.8 1.8.0 1
 _ZN18OGRGeometryFactory13createFromGMLEPKc@GDAL_1.8 1.8.0 1
 _ZN18OGRGeometryFactory13createFromWkbEPhP19OGRSpatialReferencePP11OGRGeometryi@GDAL_1.8 1.8.0 1
 _ZN18OGRGeometryFactory13createFromWktEPPcP19OGRSpatialReferencePP11OGRGeometry@GDAL_1.8 1.8.0 1
 _ZN18OGRGeometryFactory14createFromGEOSEP20GEOSContextHandle_HSP10GEOSGeom_t@GDAL_1.8 1.11.0 1
 _ZN18OGRGeometryFactory14createGeometryE18OGRwkbGeometryType@GDAL_1.8 1.8.0 1
 _ZN18OGRGeometryFactory14forceToPolygonEP11OGRGeometry@GDAL_1.8 1.8.0 1
 _ZN18OGRGeometryFactory15destroyGeometryEP11OGRGeometry@GDAL_1.8 1.8.0 1
 _ZN18OGRGeometryFactory16organizePolygonsEPP11OGRGeometryiPiPPKc@GDAL_1.8 1.8.0 1
 _ZN18OGRGeometryFactory17forceToLineStringEP11OGRGeometryb@GDAL_1.8 1.10.1 1
 _ZN18OGRGeometryFactory17forceToMultiPointEP11OGRGeometry@GDAL_1.8 1.8.0 1
 _ZN18OGRGeometryFactory19forceToMultiPolygonEP11OGRGeometry@GDAL_1.8 1.8.0 1
 _ZN18OGRGeometryFactory20approximateArcAnglesEddddddddd@GDAL_1.8 1.8.0 1
 _ZN18OGRGeometryFactory20transformWithOptionsEPK11OGRGeometryP27OGRCoordinateTransformationPPc@GDAL_1.8 1.8.0 1
 _ZN18OGRGeometryFactory21createFromFgfInternalEPhP19OGRSpatialReferencePP11OGRGeometryiPii@GDAL_1.8 1.9.0 1
 _ZN18OGRGeometryFactory22forceToMultiLineStringEP11OGRGeometry@GDAL_1.8 1.8.0 1
 _ZN18OGRGeometryFactory8haveGEOSEv@GDAL_1.8 1.8.0 1
 _ZN18OGRMultiLineString13importFromWktEPPc@GDAL_1.8 1.8.0 1
 _ZN18OGRMultiLineString19addGeometryDirectlyEP11OGRGeometry@GDAL_1.8 1.8.0 1
 _ZN18OGRMultiLineStringC1Ev@GDAL_1.8 1.8.0 1
 _ZN18OGRMultiLineStringC2Ev@GDAL_1.8 1.8.0 1
 _ZN18OGRMultiLineStringD0Ev@GDAL_1.8 1.8.0 1
 _ZN18OGRMultiLineStringD1Ev@GDAL_1.8 1.8.0 1
 _ZN18OGRMultiLineStringD2Ev@GDAL_1.8 1.8.0 1
 _ZN18VFKDataBlockSQLite10GetFeatureEPKcyb@GDAL_1.8 1.10.1 1
 _ZN18VFKDataBlockSQLite10GetFeatureEPPKcPyib@GDAL_1.8 1.10.1 1
 _ZN18VFKDataBlockSQLite10GetFeatureEl@GDAL_1.8 1.10.1 1
 _ZN18VFKDataBlockSQLite11GetFeaturesEPPKcPyi@GDAL_1.8 1.10.1 1
 _ZN18VFKDataBlockSQLite12IsRingClosedEPK13OGRLinearRing@GDAL_1.8 1.10.1 1
 _ZN18VFKDataBlockSQLite15UpdateVfkBlocksEi@GDAL_1.8 1.10.1 1
 _ZN18VFKDataBlockSQLite16SaveGeometryToDBEPK11OGRGeometryi@GDAL_1.8 1.10.1 1
 _ZN18VFKDataBlockSQLite17LoadGeometryPointEv@GDAL_1.8 1.10.1 1
 _ZN18VFKDataBlockSQLite18LoadGeometryFromDBEv@GDAL_1.8 1.10.1 1
 _ZN18VFKDataBlockSQLite19LoadGeometryPolygonEv@GDAL_1.8 1.10.1 1
 _ZN18VFKDataBlockSQLite24LoadGeometryLineStringHPEv@GDAL_1.8 1.10.1 1
 _ZN18VFKDataBlockSQLite25LoadGeometryLineStringSBPEv@GDAL_1.8 1.10.1 1
 _ZN18VFKDataBlockSQLite9UpdateFIDElSt6vectorIiSaIiEE@GDAL_1.8 1.10.1 1
 _ZN18VFKDataBlockSQLiteD0Ev@GDAL_1.8 1.10.1 1
 _ZN18VFKDataBlockSQLiteD1Ev@GDAL_1.8 1.10.1 1
 _ZN18VFKDataBlockSQLiteD2Ev@GDAL_1.8 1.10.1 1
 _ZN19GDALProxyRasterBand10AdviseReadEiiiiii12GDALDataTypePPc@GDAL_1.8 1.8.0 1
 _ZN19GDALProxyRasterBand10FlushCacheEv@GDAL_1.8 1.8.0 1
 _ZN19GDALProxyRasterBand10GetMaximumEPi@GDAL_1.8 1.8.0 1
 _ZN19GDALProxyRasterBand10GetMinimumEPi@GDAL_1.8 1.8.0 1
 _ZN19GDALProxyRasterBand10IReadBlockEiiPv@GDAL_1.8 1.8.0 1
 _ZN19GDALProxyRasterBand11GetMaskBandEv@GDAL_1.8 1.8.0 1
 _ZN19GDALProxyRasterBand11GetMetadataEPKc@GDAL_1.8 1.8.0 1
 _ZN19GDALProxyRasterBand11GetOverviewEi@GDAL_1.8 1.8.0 1
 _ZN19GDALProxyRasterBand11GetUnitTypeEv@GDAL_1.8 1.8.0 1
 _ZN19GDALProxyRasterBand11IWriteBlockEiiPv@GDAL_1.8 1.8.0 1
 _ZN19GDALProxyRasterBand11SetMetadataEPPcPKc@GDAL_1.8 1.8.0 1
 _ZN19GDALProxyRasterBand11SetUnitTypeEPKc@GDAL_1.8 1.8.0 1
 _ZN19GDALProxyRasterBand12GetHistogramEddiPiiiPFidPKcPvES3_@GDAL_1.8 1.8.0 1
 _ZN19GDALProxyRasterBand12GetMaskFlagsEv@GDAL_1.8 1.8.0 1
 _ZN19GDALProxyRasterBand13GetColorTableEv@GDAL_1.8 1.8.0 1
 _ZN19GDALProxyRasterBand13GetDefaultRATEv@GDAL_1.8 1.8.0 1
 _ZN19GDALProxyRasterBand13GetStatisticsEiiPdS0_S0_S0_@GDAL_1.8 1.8.0 1
 _ZN19GDALProxyRasterBand13SetColorTableEP14GDALColorTable@GDAL_1.8 1.8.0 1
 _ZN19GDALProxyRasterBand13SetDefaultRATEPK24GDALRasterAttributeTable@GDAL_1.8 1.8.0 1
 _ZN19GDALProxyRasterBand13SetStatisticsEdddd@GDAL_1.8 1.8.0 1
 _ZN19GDALProxyRasterBand14BuildOverviewsEPKciPiPFidS1_PvES3_@GDAL_1.8 1.8.0 1
 _ZN19GDALProxyRasterBand14CreateMaskBandEi@GDAL_1.8 1.8.0 1
 _ZN19GDALProxyRasterBand14GetNoDataValueEPi@GDAL_1.8 1.8.0 1
 _ZN19GDALProxyRasterBand14SetNoDataValueEd@GDAL_1.8 1.8.0 1
 _ZN19GDALProxyRasterBand15GetMetadataItemEPKcS1_@GDAL_1.8 1.8.0 1
 _ZN19GDALProxyRasterBand15SetMetadataItemEPKcS1_S1_@GDAL_1.8 1.8.0 1
 _ZN19GDALProxyRasterBand16GetCategoryNamesEv@GDAL_1.8 1.8.0 1
 _ZN19GDALProxyRasterBand16GetOverviewCountEv@GDAL_1.8 1.8.0 1
 _ZN19GDALProxyRasterBand16SetCategoryNamesEPPc@GDAL_1.8 1.8.0 1
 _ZN19GDALProxyRasterBand17ComputeStatisticsEiPdS0_S0_S0_PFidPKcPvES3_@GDAL_1.8 1.8.0 1
 _ZN19GDALProxyRasterBand17GetVirtualMemAutoE10GDALRWFlagPiPxPPc@GDAL_1.8 1.11.0 1
 _ZN19GDALProxyRasterBand19ComputeRasterMinMaxEiPd@GDAL_1.8 1.8.0 1
 _ZN19GDALProxyRasterBand19GetDefaultHistogramEPdS0_PiPS1_iPFidPKcPvES5_@GDAL_1.8 1.8.0 1
 _ZN19GDALProxyRasterBand19SetDefaultHistogramEddiPi@GDAL_1.8 1.8.0 1
 _ZN19GDALProxyRasterBand21GetMetadataDomainListEv@GDAL_1.8 1.11.0 1
 _ZN19GDALProxyRasterBand21HasArbitraryOverviewsEv@GDAL_1.8 1.8.0 1
 _ZN19GDALProxyRasterBand22GetColorInterpretationEv@GDAL_1.8 1.8.0 1
 _ZN19GDALProxyRasterBand22SetColorInterpretationE15GDALColorInterp@GDAL_1.8 1.8.0 1
 _ZN19GDALProxyRasterBand23GetRasterSampleOverviewEi@GDAL_1.8 1.8.0 1
 _ZN19GDALProxyRasterBand25UnrefUnderlyingRasterBandEP14GDALRasterBand@GDAL_1.8 1.8.0 1
 _ZN19GDALProxyRasterBand4FillEdd@GDAL_1.8 1.8.0 1
 _ZN19GDALProxyRasterBand8GetScaleEPi@GDAL_1.8 1.8.0 1
 _ZN19GDALProxyRasterBand8SetScaleEd@GDAL_1.8 1.8.0 1
 _ZN19GDALProxyRasterBand9GetOffsetEPi@GDAL_1.8 1.8.0 1
 _ZN19GDALProxyRasterBand9IRasterIOE10GDALRWFlagiiiiPvii12GDALDataTypeii@GDAL_1.8 1.8.0 1
 _ZN19GDALProxyRasterBand9SetOffsetEd@GDAL_1.8 1.8.0 1
 _ZN19OGRSpatialReference10IsAliasForEPKcS1_@GDAL_1.8 1.8.0 1
 _ZN19OGRSpatialReference10SetHOM2PNOEdddddddd@GDAL_1.8 1.8.0 1
 _ZN19OGRSpatialReference10SetLocalCSEPKc@GDAL_1.8 1.8.0 1
 _ZN19OGRSpatialReference10SetTOWGS84Eddddddd@GDAL_1.8 1.8.0 1
 _ZN19OGRSpatialReference11DereferenceEv@GDAL_1.8 1.8.0 1
 _ZN19OGRSpatialReference11GetAttrNodeEPKc@GDAL_1.8 1.8.0 1
 _ZN19OGRSpatialReference11SetEckertIVEddd@GDAL_1.8 1.8.0 1
 _ZN19OGRSpatialReference11SetEckertVIEddd@GDAL_1.8 1.8.0 1
 _ZN19OGRSpatialReference11SetGnomonicEdddd@GDAL_1.8 1.8.0 1
 _ZN19OGRSpatialReference11SetMercatorEddddd@GDAL_1.8 1.8.0 1
 _ZN19OGRSpatialReference11SetProjParmEPKcd@GDAL_1.8 1.8.0 1
 _ZN19OGRSpatialReference11SetRobinsonEddd@GDAL_1.8 1.8.0 1
 _ZN19OGRSpatialReference11exportToERMEPcS0_S0_@GDAL_1.8 1.8.0 1
 _ZN19OGRSpatialReference11morphToESRIEv@GDAL_1.8 1.8.0 1
 _ZN19OGRSpatialReference12SetAuthorityEPKcS1_i@GDAL_1.8 1.8.0 1
 _ZN19OGRSpatialReference12SetExtensionEPKcS1_S1_@GDAL_1.8 1.8.0 1
 _ZN19OGRSpatialReference12SetMollweideEddd@GDAL_1.8 1.8.0 1
 _ZN19OGRSpatialReference12SetPolyconicEdddd@GDAL_1.8 1.8.0 1
 _ZN19OGRSpatialReference12SetTMVariantEPKcddddd@GDAL_1.8 1.8.0 1
 _ZN19OGRSpatialReference12StripCTParmsEP11OGR_SRSNode@GDAL_1.8 1.8.0 1
 _ZN19OGRSpatialReference12ValidateAxisEP11OGR_SRSNode@GDAL_1.8 1.8.0 1
 _ZN19OGRSpatialReference12ValidateUnitEP11OGR_SRSNode@GDAL_1.8 1.8.0 1
 _ZN19OGRSpatialReference12dumpReadableEv@GDAL_1.8 1.10.1 1
 _ZN19OGRSpatialReference13FixupOrderingEv@GDAL_1.8 1.8.0 1
 _ZN19OGRSpatialReference13GetEPSGGeogCSEv@GDAL_1.8 1.8.0 1
 _ZN19OGRSpatialReference13SetCompoundCSEPKcPKS_S3_@GDAL_1.8 1.9.0 1
 _ZN19OGRSpatialReference13SetProjectionEPKc@GDAL_1.8 1.8.0 1
 _ZN19OGRSpatialReference13SetSinusoidalEddd@GDAL_1.8 1.8.0 1
 _ZN19OGRSpatialReference13SetStatePlaneEiiPKcd@GDAL_1.8 1.8.0 1
 _ZN19OGRSpatialReference13StripVerticalEv@GDAL_1.8 1.8.0 1
 _ZN19OGRSpatialReference13importFromERMEPKcS1_S1_@GDAL_1.8 1.8.0 1
 _ZN19OGRSpatialReference13importFromOziEPKPKc@GDAL_1.8 1.10.1 1
 _ZN19OGRSpatialReference13importFromOziEPKcS1_S1_@GDAL_1.8 1.8.0 1
 _ZN19OGRSpatialReference13importFromPCIEPKcS1_Pd@GDAL_1.8 1.8.0 1
 _ZN19OGRSpatialReference13importFromURNEPKc@GDAL_1.8 1.8.0 1
 _ZN19OGRSpatialReference13importFromUrlEPKc@GDAL_1.8 1.8.0 1
 _ZN19OGRSpatialReference13importFromWktEPPc@GDAL_1.8 1.8.0 1
 _ZN19OGRSpatialReference13importFromXMLEPKc@GDAL_1.8 1.8.0 1
 _ZN19OGRSpatialReference13morphFromESRIEv@GDAL_1.8 1.8.0 1
 _ZN19OGRSpatialReference14CopyGeogCSFromEPKS_@GDAL_1.8 1.8.0 1
 _ZN19OGRSpatialReference14SetLinearUnitsEPKcd@GDAL_1.8 1.8.0 1
 _ZN19OGRSpatialReference14SetMercator2SPEddddd@GDAL_1.8 1.8.0 1
 _ZN19OGRSpatialReference14importFromDictEPKcS1_@GDAL_1.8 1.8.0 1
 _ZN19OGRSpatialReference14importFromEPSGEi@GDAL_1.8 1.8.0 1
 _ZN19OGRSpatialReference14importFromESRIEPPc@GDAL_1.8 1.8.0 1
 _ZN19OGRSpatialReference14importFromUSGSEllPdli@GDAL_1.8 1.8.0 1
 _ZN19OGRSpatialReference15SetAngularUnitsEPKcd@GDAL_1.8 1.8.0 1
 _ZN19OGRSpatialReference15SetIWMPolyconicEddddd@GDAL_1.8 1.8.0 1
 _ZN19OGRSpatialReference15SetNormProjParmEPKcd@GDAL_1.8 1.8.0 1
 _ZN19OGRSpatialReference15SetOrthographicEdddd@GDAL_1.8 1.8.0 1
 _ZN19OGRSpatialReference15importFromEPSGAEi@GDAL_1.8 1.8.0 1
 _ZN19OGRSpatialReference15importFromProj4EPKc@GDAL_1.8 1.8.0 1
 _ZN19OGRSpatialReference16AutoIdentifyEPSGEv@GDAL_1.8 1.8.0 1
 _ZN19OGRSpatialReference16SetFromUserInputEPKc@GDAL_1.8 1.8.0 1
 _ZN19OGRSpatialReference16SetStereographicEddddd@GDAL_1.8 1.8.0 1
 _ZN19OGRSpatialReference16importFromCRSURLEPKc@GDAL_1.8 1.10.1 1
 _ZN19OGRSpatialReference17IsLinearParameterEPKc@GDAL_1.8 1.8.0 1
 _ZN19OGRSpatialReference17ValidateAuthorityEP11OGR_SRSNode@GDAL_1.8 1.8.0 1
 _ZN19OGRSpatialReference17ValidateVertDatumEP11OGR_SRSNode@GDAL_1.8 1.8.0 1
 _ZN19OGRSpatialReference17importFromURNPartEPKcS1_S1_@GDAL_1.8 1.9.0 1
 _ZN19OGRSpatialReference17importFromWMSAUTOEPKc@GDAL_1.8 1.8.0 1
 _ZN19OGRSpatialReference18IsAngularParameterEPKc@GDAL_1.8 1.8.0 1
 _ZN19OGRSpatialReference18SetEquirectangularEdddd@GDAL_1.8 1.8.0 1
 _ZN19OGRSpatialReference18SetWellKnownGeogCSEPKc@GDAL_1.8 1.8.0 1
 _ZN19OGRSpatialReference18ValidateProjectionEP11OGR_SRSNode@GDAL_1.8 1.8.0 1
 _ZN19OGRSpatialReference18importFromPanoramaElllPd@GDAL_1.8 1.8.0 1
 _ZN19OGRSpatialReference19EPSGTreatsAsLatLongEv@GDAL_1.8 1.8.0 1
 _ZN19OGRSpatialReference19SetEquirectangular2Eddddd@GDAL_1.8 1.8.0 1
 _ZN19OGRSpatialReference20IsLongitudeParameterEPKc@GDAL_1.8 1.8.0 1
 _ZN19OGRSpatialReference20SetTargetLinearUnitsEPKcS1_d@GDAL_1.8 1.9.0 1
 _ZN19OGRSpatialReference20importFromMICoordSysEPKc@GDAL_1.8 1.8.0 1
 _ZN19OGRSpatialReference23DestroySpatialReferenceEPS_@GDAL_1.8 1.8.0 1
 _ZN19OGRSpatialReference26ImportFromESRIWisconsinWKTEPKcddS1_S1_@GDAL_1.8 1.9.0 1
 _ZN19OGRSpatialReference26SetGaussSchreiberTMercatorEddddd@GDAL_1.8 1.8.0 1
 _ZN19OGRSpatialReference27EPSGTreatsAsNorthingEastingEv@GDAL_1.8 1.10.1 1
 _ZN19OGRSpatialReference27ImportFromESRIStatePlaneWKTEiPKcS1_iS1_@GDAL_1.8 1.9.0 1
 _ZN19OGRSpatialReference33SetLinearUnitsAndUpdateParametersEPKcd@GDAL_1.8 1.8.0 1
 _ZN19OGRSpatialReference5ClearEv@GDAL_1.8 1.8.0 1
 _ZN19OGRSpatialReference5FixupEv@GDAL_1.8 1.8.0 1
 _ZN19OGRSpatialReference5SetAEEdddd@GDAL_1.8 1.8.0 1
 _ZN19OGRSpatialReference5SetCSEdddd@GDAL_1.8 1.8.0 1
 _ZN19OGRSpatialReference5SetECEdddddd@GDAL_1.8 1.8.0 1
 _ZN19OGRSpatialReference5SetGHEddd@GDAL_1.8 1.8.0 1
 _ZN19OGRSpatialReference5SetGSEddd@GDAL_1.8 1.8.0 1
 _ZN19OGRSpatialReference5SetMCEdddd@GDAL_1.8 1.8.0 1
 _ZN19OGRSpatialReference5SetOSEddddd@GDAL_1.8 1.8.0 1
 _ZN19OGRSpatialReference5SetPSEddddd@GDAL_1.8 1.8.0 1
 _ZN19OGRSpatialReference5SetTMEddddd@GDAL_1.8 1.8.0 1
 _ZN19OGRSpatialReference6SetCEAEdddd@GDAL_1.8 1.8.0 1
 _ZN19OGRSpatialReference6SetHOMEddddddd@GDAL_1.8 1.8.0 1
 _ZN19OGRSpatialReference6SetIGHEv@GDAL_1.8 1.9.0 1
 _ZN19OGRSpatialReference6SetLCCEdddddd@GDAL_1.8 1.8.0 1
 _ZN19OGRSpatialReference6SetSOCEdddd@GDAL_1.8 1.8.0 1
 _ZN19OGRSpatialReference6SetTMGEdddd@GDAL_1.8 1.8.0 1
 _ZN19OGRSpatialReference6SetUTMEii@GDAL_1.8 1.8.0 1
 _ZN19OGRSpatialReference6SetVDGEddd@GDAL_1.8 1.8.0 1
 _ZN19OGRSpatialReference7ReleaseEv@GDAL_1.8 1.8.0 1
 _ZN19OGRSpatialReference7SetACEAEdddddd@GDAL_1.8 1.8.0 1
 _ZN19OGRSpatialReference7SetAxesEPKcS1_18OGRAxisOrientationS1_S2_@GDAL_1.8 1.8.0 1
 _ZN19OGRSpatialReference7SetGEOSEdddd@GDAL_1.8 1.8.0 1
 _ZN19OGRSpatialReference7SetLAEAEdddd@GDAL_1.8 1.8.0 1
 _ZN19OGRSpatialReference7SetLCCBEdddddd@GDAL_1.8 1.8.0 1
 _ZN19OGRSpatialReference7SetNZMGEdddd@GDAL_1.8 1.8.0 1
 _ZN19OGRSpatialReference7SetNodeEPKcS1_@GDAL_1.8 1.8.0 1
 _ZN19OGRSpatialReference7SetNodeEPKcd@GDAL_1.8 1.8.0 1
 _ZN19OGRSpatialReference7SetRootEP11OGR_SRSNode@GDAL_1.8 1.8.0 1
 _ZN19OGRSpatialReference7SetTMSOEddddd@GDAL_1.8 1.8.0 1
 _ZN19OGRSpatialReference7SetTPEDEdddddd@GDAL_1.8 1.8.0 1
 _ZN19OGRSpatialReference8SetBonneEdddd@GDAL_1.8 1.8.0 1
 _ZN19OGRSpatialReference8SetHOMACEddddddd@GDAL_1.8 1.10.1 1
 _ZN19OGRSpatialReference8ValidateEP11OGR_SRSNode@GDAL_1.8 1.8.0 1
 _ZN19OGRSpatialReference8ValidateEv@GDAL_1.8 1.8.0 1
 _ZN19OGRSpatialReference9ReferenceEv@GDAL_1.8 1.8.0 1
 _ZN19OGRSpatialReference9SetEckertEiddd@GDAL_1.8 1.8.0 1
 _ZN19OGRSpatialReference9SetGeocCSEPKc@GDAL_1.8 1.9.0 1
 _ZN19OGRSpatialReference9SetGeogCSEPKcS1_S1_ddS1_dS1_d@GDAL_1.8 1.8.0 1
 _ZN19OGRSpatialReference9SetKrovakEddddddd@GDAL_1.8 1.8.0 1
 _ZN19OGRSpatialReference9SetLCC1SPEddddd@GDAL_1.8 1.8.0 1
 _ZN19OGRSpatialReference9SetProjCSEPKc@GDAL_1.8 1.8.0 1
 _ZN19OGRSpatialReference9SetVertCSEPKcS1_i@GDAL_1.8 1.9.0 1
 _ZN19OGRSpatialReference9SetWagnerEiddd@GDAL_1.8 1.8.0 1
 _ZN19OGRSpatialReferenceC1EPKc@GDAL_1.8 1.8.0 1
 _ZN19OGRSpatialReferenceC1ERKS_@GDAL_1.8 1.8.0 1
 _ZN19OGRSpatialReferenceC2EPKc@GDAL_1.8 1.8.0 1
 _ZN19OGRSpatialReferenceC2ERKS_@GDAL_1.8 1.8.0 1
 _ZN19OGRSpatialReferenceD0Ev@GDAL_1.8 1.8.0 1
 _ZN19OGRSpatialReferenceD1Ev@GDAL_1.8 1.8.0 1
 _ZN19OGRSpatialReferenceD2Ev@GDAL_1.8 1.8.0 1
 _ZN19OGRSpatialReferenceaSERKS_@GDAL_1.8 1.8.0 1
 _ZN19VRTWarpedRasterBand10IReadBlockEiiPv@GDAL_1.8 1.8.0 1
 _ZN19VRTWarpedRasterBand11GetOverviewEi@GDAL_1.8 1.8.0 1
 _ZN19VRTWarpedRasterBand11IWriteBlockEiiPv@GDAL_1.8 1.8.0 1
 _ZN19VRTWarpedRasterBand14SerializeToXMLEPKc@GDAL_1.8 1.8.0 1
 _ZN19VRTWarpedRasterBand16GetOverviewCountEv@GDAL_1.8 1.8.0 1
 _ZN19VRTWarpedRasterBand7XMLInitEP10CPLXMLNodePKc@GDAL_1.8 1.8.0 1
 _ZN19VRTWarpedRasterBandC1EP11GDALDataseti12GDALDataType@GDAL_1.8 1.8.0 1
 _ZN19VRTWarpedRasterBandC2EP11GDALDataseti12GDALDataType@GDAL_1.8 1.8.0 1
 _ZN19VRTWarpedRasterBandD0Ev@GDAL_1.8 1.8.0 1
 _ZN19VRTWarpedRasterBandD1Ev@GDAL_1.8 1.8.0 1
 _ZN19VRTWarpedRasterBandD2Ev@GDAL_1.8 1.8.0 1
 _ZN20GDALAllValidMaskBand10IReadBlockEiiPv@GDAL_1.8 1.8.0 1
 _ZN20GDALAllValidMaskBand11GetMaskBandEv@GDAL_1.8 1.8.0 1
 _ZN20GDALAllValidMaskBand12GetMaskFlagsEv@GDAL_1.8 1.8.0 1
 _ZN20GDALAllValidMaskBandC1EP14GDALRasterBand@GDAL_1.8 1.8.0 1
 _ZN20GDALAllValidMaskBandC2EP14GDALRasterBand@GDAL_1.8 1.8.0 1
 _ZN20GDALAllValidMaskBandD0Ev@GDAL_1.8 1.8.0 1
 _ZN20GDALAllValidMaskBandD1Ev@GDAL_1.8 1.8.0 1
 _ZN20GDALAllValidMaskBandD2Ev@GDAL_1.8 1.8.0 1
 _ZN20GDALDefaultOverviews10InitializeEP11GDALDatasetPKcPPci@GDAL_1.8 1.8.0 1
 _ZN20GDALDefaultOverviews11GetMaskBandEi@GDAL_1.8 1.8.0 1
 _ZN20GDALDefaultOverviews11GetOverviewEii@GDAL_1.8 1.8.0 1
 _ZN20GDALDefaultOverviews12GetMaskFlagsEi@GDAL_1.8 1.8.0 1
 _ZN20GDALDefaultOverviews12HaveMaskFileEPPcPKc@GDAL_1.8 1.8.0 1
 _ZN20GDALDefaultOverviews12OverviewScanEv@GDAL_1.8 1.8.0 1
 _ZN20GDALDefaultOverviews13IsInitializedEv@GDAL_1.8 1.8.0 1
 _ZN20GDALDefaultOverviews14BuildOverviewsEPKcS1_iPiiS2_PFidS1_PvES3_@GDAL_1.8 1.8.0 1
 _ZN20GDALDefaultOverviews14CleanOverviewsEv@GDAL_1.8 1.8.0 1
 _ZN20GDALDefaultOverviews14CreateMaskBandEii@GDAL_1.8 1.8.0 1
 _ZN20GDALDefaultOverviews16GetOverviewCountEi@GDAL_1.8 1.8.0 1
 _ZN20GDALDefaultOverviews22CloseDependentDatasetsEv@GDAL_1.8 1.9.0 1
 _ZN20GDALDefaultOverviews24BuildOverviewsSubDatasetEPKcS1_iPiiS2_PFidS1_PvES3_@GDAL_1.8 1.8.0 1
 _ZN20GDALDefaultOverviewsC1Ev@GDAL_1.8 1.8.0 1
 _ZN20GDALDefaultOverviewsC2Ev@GDAL_1.8 1.8.0 1
 _ZN20GDALDefaultOverviewsD1Ev@GDAL_1.8 1.8.0 1
 _ZN20GDALDefaultOverviewsD2Ev@GDAL_1.8 1.8.0 1
 _ZN20GDALGeorefPamDataset11GetGCPCountEv@GDAL_1.8 1.11.0 1
 _ZN20GDALGeorefPamDataset15GetGeoTransformEPd@GDAL_1.8 1.11.0 1
 _ZN20GDALGeorefPamDataset16GetGCPProjectionEv@GDAL_1.8 1.11.0 1
 _ZN20GDALGeorefPamDataset16GetProjectionRefEv@GDAL_1.8 1.11.0 1
 _ZN20GDALGeorefPamDataset7GetGCPsEv@GDAL_1.8 1.11.0 1
 _ZN20GDALGeorefPamDatasetC1Ev@GDAL_1.8 1.11.0 1
 _ZN20GDALGeorefPamDatasetC2Ev@GDAL_1.8 1.11.0 1
 _ZN20GDALGeorefPamDatasetD0Ev@GDAL_1.8 1.11.0 1
 _ZN20GDALGeorefPamDatasetD1Ev@GDAL_1.8 1.11.0 1
 _ZN20GDALGeorefPamDatasetD2Ev@GDAL_1.8 1.11.0 1
 _ZN20GDALProxyPoolDataset11GetMetadataEPKc@GDAL_1.8 1.8.0 1
 _ZN20GDALProxyPoolDataset13SetProjectionEPKc@GDAL_1.8 1.8.0 1
 _ZN20GDALProxyPoolDataset15GetGeoTransformEPd@GDAL_1.8 1.8.0 1
 _ZN20GDALProxyPoolDataset15GetMetadataItemEPKcS1_@GDAL_1.8 1.8.0 1
 _ZN20GDALProxyPoolDataset15SetGeoTransformEPd@GDAL_1.8 1.8.0 1
 _ZN20GDALProxyPoolDataset16GetGCPProjectionEv@GDAL_1.8 1.8.0 1
 _ZN20GDALProxyPoolDataset16GetProjectionRefEv@GDAL_1.8 1.8.0 1
 _ZN20GDALProxyPoolDataset17GetInternalHandleEPKc@GDAL_1.8 1.8.0 1
 _ZN20GDALProxyPoolDataset20RefUnderlyingDatasetEv@GDAL_1.8 1.8.0 1
 _ZN20GDALProxyPoolDataset21AddSrcBandDescriptionE12GDALDataTypeii@GDAL_1.8 1.8.0 1
 _ZN20GDALProxyPoolDataset22UnrefUnderlyingDatasetEP11GDALDataset@GDAL_1.8 1.8.0 1
 _ZN20GDALProxyPoolDataset7GetGCPsEv@GDAL_1.8 1.8.0 1
 _ZN20GDALProxyPoolDatasetC1EPKcii10GDALAccessiS1_Pd@GDAL_1.8 1.8.0 1
 _ZN20GDALProxyPoolDatasetC2EPKcii10GDALAccessiS1_Pd@GDAL_1.8 1.8.0 1
 _ZN20GDALProxyPoolDatasetD0Ev@GDAL_1.8 1.8.0 1
 _ZN20GDALProxyPoolDatasetD1Ev@GDAL_1.8 1.8.0 1
 _ZN20GDALProxyPoolDatasetD2Ev@GDAL_1.8 1.8.0 1
 _ZN20OGRMutexedDataSource10ExecuteSQLEPKcP11OGRGeometryS1_@GDAL_1.8 1.11.0 1
 _ZN20OGRMutexedDataSource10SyncToDiskEv@GDAL_1.8 1.11.0 1
 _ZN20OGRMutexedDataSource11CreateLayerEPKcP19OGRSpatialReference18OGRwkbGeometryTypePPc@GDAL_1.8 1.11.0 1
 _ZN20OGRMutexedDataSource11DeleteLayerEi@GDAL_1.8 1.11.0 1
 _ZN20OGRMutexedDataSource13GetLayerCountEv@GDAL_1.8 1.11.0 1
 _ZN20OGRMutexedDataSource13GetStyleTableEv@GDAL_1.8 1.11.0 1
 _ZN20OGRMutexedDataSource13SetStyleTableEP13OGRStyleTable@GDAL_1.8 1.11.0 1
 _ZN20OGRMutexedDataSource14GetLayerByNameEPKc@GDAL_1.8 1.11.0 1
 _ZN20OGRMutexedDataSource14TestCapabilityEPKc@GDAL_1.8 1.11.0 1
 _ZN20OGRMutexedDataSource16ReleaseResultSetEP8OGRLayer@GDAL_1.8 1.11.0 1
 _ZN20OGRMutexedDataSource21SetStyleTableDirectlyEP13OGRStyleTable@GDAL_1.8 1.11.0 1
 _ZN20OGRMutexedDataSource7GetNameEv@GDAL_1.8 1.11.0 1
 _ZN20OGRMutexedDataSource8GetLayerEi@GDAL_1.8 1.11.0 1
 _ZN20OGRMutexedDataSource9CopyLayerEP8OGRLayerPKcPPc@GDAL_1.8 1.11.0 1
 _ZN20OGRMutexedDataSourceC1EP13OGRDataSourceiPv@GDAL_1.8 1.11.0 1
 _ZN20OGRMutexedDataSourceC2EP13OGRDataSourceiPv@GDAL_1.8 1.11.0 1
 _ZN20OGRMutexedDataSourceD0Ev@GDAL_1.8 1.11.0 1
 _ZN20OGRMutexedDataSourceD1Ev@GDAL_1.8 1.11.0 1
 _ZN20OGRMutexedDataSourceD2Ev@GDAL_1.8 1.11.0 1
 _ZN20OGRSFDriverRegistrar10OpenSharedEPKciPP11OGRSFDriver@GDAL_1.8 1.8.0 1
 _ZN20OGRSFDriverRegistrar12GetRegistrarEv@GDAL_1.8 1.8.0 1
 _ZN20OGRSFDriverRegistrar14GetDriverCountEv@GDAL_1.8 1.8.0 1
 _ZN20OGRSFDriverRegistrar14RegisterDriverEP11OGRSFDriver@GDAL_1.8 1.8.0 1
 _ZN20OGRSFDriverRegistrar15AutoLoadDriversEv@GDAL_1.8 1.8.0 1
 _ZN20OGRSFDriverRegistrar15GetDriverByNameEPKc@GDAL_1.8 1.8.0 1
 _ZN20OGRSFDriverRegistrar16DeregisterDriverEP11OGRSFDriver@GDAL_1.8 1.8.0 1
 _ZN20OGRSFDriverRegistrar17ReleaseDataSourceEP13OGRDataSource@GDAL_1.8 1.8.0 1
 _ZN20OGRSFDriverRegistrar4OpenEPKciPP11OGRSFDriver@GDAL_1.8 1.8.0 1
 _ZN20OGRSFDriverRegistrar9GetDriverEi@GDAL_1.8 1.8.0 1
 _ZN20OGRSFDriverRegistrar9GetOpenDSEi@GDAL_1.8 1.8.0 1
 _ZN20OGRSFDriverRegistrarC1Ev@GDAL_1.8 1.8.0 1
 _ZN20OGRSFDriverRegistrarC2Ev@GDAL_1.8 1.8.0 1
 _ZN20OGRSFDriverRegistrarD1Ev@GDAL_1.8 1.8.0 1
 _ZN20OGRSFDriverRegistrarD2Ev@GDAL_1.8 1.8.0 1
 _ZN20VRTDerivedRasterBand14SerializeToXMLEPKc@GDAL_1.8 1.8.0 1
 _ZN20VRTDerivedRasterBand16AddPixelFunctionEPKcPF6CPLErrPPviS3_ii12GDALDataTypeS5_iiE@GDAL_1.8 1.8.0 1
 _ZN20VRTDerivedRasterBand16GetPixelFunctionEPKc@GDAL_1.8 1.8.0 1
 _ZN20VRTDerivedRasterBand20SetPixelFunctionNameEPKc@GDAL_1.8 1.8.0 1
 _ZN20VRTDerivedRasterBand21SetSourceTransferTypeE12GDALDataType@GDAL_1.8 1.8.0 1
 _ZN20VRTDerivedRasterBand7XMLInitEP10CPLXMLNodePKc@GDAL_1.8 1.8.0 1
 _ZN20VRTDerivedRasterBand9IRasterIOE10GDALRWFlagiiiiPvii12GDALDataTypeii@GDAL_1.8 1.8.0 1
 _ZN20VRTDerivedRasterBandC1EP11GDALDataseti12GDALDataTypeii@GDAL_1.8 1.8.0 1
 _ZN20VRTDerivedRasterBandC1EP11GDALDataseti@GDAL_1.8 1.8.0 1
 _ZN20VRTDerivedRasterBandC2EP11GDALDataseti12GDALDataTypeii@GDAL_1.8 1.8.0 1
 _ZN20VRTDerivedRasterBandC2EP11GDALDataseti@GDAL_1.8 1.8.0 1
 _ZN20VRTDerivedRasterBandD0Ev@GDAL_1.8 1.8.0 1
 _ZN20VRTDerivedRasterBandD1Ev@GDAL_1.8 1.8.0 1
 _ZN20VRTDerivedRasterBandD2Ev@GDAL_1.8 1.8.0 1
 _ZN20VRTSourcedRasterBand10GetMaximumEPi@GDAL_1.8 1.9.0 1
 _ZN20VRTSourcedRasterBand10GetMinimumEPi@GDAL_1.8 1.9.0 1
 _ZN20VRTSourcedRasterBand10IReadBlockEiiPv@GDAL_1.8 1.8.0 1
 _ZN20VRTSourcedRasterBand10InitializeEii@GDAL_1.8 1.8.0 1
 _ZN20VRTSourcedRasterBand11GetFileListEPPPcPiS3_P11_CPLHashSet@GDAL_1.8 1.8.0 1
 _ZN20VRTSourcedRasterBand11GetMetadataEPKc@GDAL_1.8 1.8.0 1
 _ZN20VRTSourcedRasterBand11SetMetadataEPPcPKc@GDAL_1.8 1.8.0 1
 _ZN20VRTSourcedRasterBand12GetHistogramEddiPiiiPFidPKcPvES3_@GDAL_1.8 1.10.1 1
 _ZN20VRTSourcedRasterBand13AddFuncSourceEPF6CPLErrPviiiiS1_ES1_d@GDAL_1.8 1.8.0 1
 _ZN20VRTSourcedRasterBand14SerializeToXMLEPKc@GDAL_1.8 1.8.0 1
 _ZN20VRTSourcedRasterBand15AddSimpleSourceEP14GDALRasterBandiiiiiiiiPKcd@GDAL_1.8 1.8.0 1
 _ZN20VRTSourcedRasterBand15ConfigureSourceEP15VRTSimpleSourceP14GDALRasterBandiiiiiiiii@GDAL_1.8 1.11.0 1
 _ZN20VRTSourcedRasterBand15GetMetadataItemEPKcS1_@GDAL_1.8 1.8.0 1
 _ZN20VRTSourcedRasterBand15SetMetadataItemEPKcS1_S1_@GDAL_1.8 1.8.0 1
 _ZN20VRTSourcedRasterBand16AddComplexSourceEP14GDALRasterBandiiiiiiiidddi@GDAL_1.8 1.8.0 1
 _ZN20VRTSourcedRasterBand17AddMaskBandSourceEP14GDALRasterBandiiiiiiii@GDAL_1.8 1.8.0 1
 _ZN20VRTSourcedRasterBand17ComputeStatisticsEiPdS0_S0_S0_PFidPKcPvES3_@GDAL_1.8 1.10.1 1
 _ZN20VRTSourcedRasterBand19ComputeRasterMinMaxEiPd@GDAL_1.8 1.10.1 1
 _ZN20VRTSourcedRasterBand19IsSourcedRasterBandEv@GDAL_1.8 1.9.0 1
 _ZN20VRTSourcedRasterBand21GetMetadataDomainListEv@GDAL_1.8 1.11.0 1
 _ZN20VRTSourcedRasterBand22CloseDependentDatasetsEv@GDAL_1.8 1.9.0 1
 _ZN20VRTSourcedRasterBand34CanUseSourcesMinMaxImplementationsEv@GDAL_1.8 1.11.1 1
 _ZN20VRTSourcedRasterBand7XMLInitEP10CPLXMLNodePKc@GDAL_1.8 1.8.0 1
 _ZN20VRTSourcedRasterBand9AddSourceEP9VRTSource@GDAL_1.8 1.8.0 1
 _ZN20VRTSourcedRasterBand9IRasterIOE10GDALRWFlagiiiiPvii12GDALDataTypeii@GDAL_1.8 1.8.0 1
 _ZN20VRTSourcedRasterBandC1E12GDALDataTypeii@GDAL_1.8 1.8.0 1
 _ZN20VRTSourcedRasterBandC1EP11GDALDataseti12GDALDataTypeii@GDAL_1.8 1.8.0 1
 _ZN20VRTSourcedRasterBandC1EP11GDALDataseti@GDAL_1.8 1.8.0 1
 _ZN20VRTSourcedRasterBandC2E12GDALDataTypeii@GDAL_1.8 1.8.0 1
 _ZN20VRTSourcedRasterBandC2EP11GDALDataseti12GDALDataTypeii@GDAL_1.8 1.8.0 1
 _ZN20VRTSourcedRasterBandC2EP11GDALDataseti@GDAL_1.8 1.8.0 1
 _ZN20VRTSourcedRasterBandD0Ev@GDAL_1.8 1.8.0 1
 _ZN20VRTSourcedRasterBandD1Ev@GDAL_1.8 1.8.0 1
 _ZN20VRTSourcedRasterBandD2Ev@GDAL_1.8 1.8.0 1
 _ZN20VSIFilesystemHandler15IsCaseSensitiveEPKc@GDAL_1.8 1.8.0 1
 _ZN20VSIFilesystemHandler5MkdirEPKcl@GDAL_1.8 1.8.0 1
 _ZN20VSIFilesystemHandler5RmdirEPKc@GDAL_1.8 1.8.0 1
 _ZN20VSIFilesystemHandler6RenameEPKcS1_@GDAL_1.8 1.8.0 1
 _ZN20VSIFilesystemHandler6UnlinkEPKc@GDAL_1.8 1.8.0 1
 _ZN20VSIFilesystemHandler7ReadDirEPKc@GDAL_1.8 1.8.0 1
 _ZN21OGRGenSQLResultsLayer10GetFeatureEl@GDAL_1.8 1.8.0 1
 _ZN21OGRGenSQLResultsLayer12ClearFiltersEv@GDAL_1.8 1.8.0 1
 _ZN21OGRGenSQLResultsLayer12GetLayerDefnEv@GDAL_1.8 1.8.0 1
 _ZN21OGRGenSQLResultsLayer12ResetReadingEv@GDAL_1.8 1.8.0 1
 _ZN21OGRGenSQLResultsLayer14GetNextFeatureEv@GDAL_1.8 1.8.0 1
 _ZN21OGRGenSQLResultsLayer14PrepareSummaryEv@GDAL_1.8 1.8.0 1
 _ZN21OGRGenSQLResultsLayer14SetNextByIndexEl@GDAL_1.8 1.8.0 1
 _ZN21OGRGenSQLResultsLayer14TestCapabilityEPKc@GDAL_1.8 1.8.0 1
 _ZN21OGRGenSQLResultsLayer15GetFeatureCountEi@GDAL_1.8 1.8.0 1
 _ZN21OGRGenSQLResultsLayer16GetSpatialFilterEv@GDAL_1.8 1.8.0 1
 _ZN21OGRGenSQLResultsLayer16SetSpatialFilterEP11OGRGeometry@GDAL_1.8 1.10.1 1
 _ZN21OGRGenSQLResultsLayer16SetSpatialFilterEiP11OGRGeometry@GDAL_1.8 1.11.0 1
 _ZN21OGRGenSQLResultsLayer16SortIndexSectionEP8OGRFieldii@GDAL_1.8 1.8.0 1
 _ZN21OGRGenSQLResultsLayer16TranslateFeatureEP10OGRFeature@GDAL_1.8 1.8.0 1
 _ZN21OGRGenSQLResultsLayer17AddFieldDefnToSetEiiP11_CPLHashSet@GDAL_1.8 1.8.0 1
 _ZN21OGRGenSQLResultsLayer18CreateOrderByIndexEv@GDAL_1.8 1.8.0 1
 _ZN21OGRGenSQLResultsLayer18SetAttributeFilterEPKc@GDAL_1.8 1.10.1 1
 _ZN21OGRGenSQLResultsLayer20ApplyFiltersToSourceEv@GDAL_1.8 1.11.0 1
 _ZN21OGRGenSQLResultsLayer22InvalidateOrderByIndexEv@GDAL_1.8 1.10.1 1
 _ZN21OGRGenSQLResultsLayer23ContainGeomSpecialFieldEP13swq_expr_node@GDAL_1.8 1.9.0 1
 _ZN21OGRGenSQLResultsLayer23FindAndSetIgnoredFieldsEv@GDAL_1.8 1.9.0 1
 _ZN21OGRGenSQLResultsLayer27ExploreExprForIgnoredFieldsEP13swq_expr_nodeP11_CPLHashSet@GDAL_1.8 1.8.0 1
 _ZN21OGRGenSQLResultsLayer33MustEvaluateSpatialFilterOnGenSQLEv@GDAL_1.8 1.11.0 1
 _ZN21OGRGenSQLResultsLayer7CompareEP8OGRFieldS1_@GDAL_1.8 1.8.0 1
 _ZN21OGRGenSQLResultsLayer9GetExtentEP11OGREnvelopei@GDAL_1.8 1.8.0 1
 _ZN21OGRGenSQLResultsLayer9GetExtentEiP11OGREnvelopei@GDAL_1.8 1.11.0 1
 _ZN21OGRGenSQLResultsLayerC1EP13OGRDataSourcePvP11OGRGeometryPKcS6_@GDAL_1.8 1.9.0 1
 _ZN21OGRGenSQLResultsLayerC2EP13OGRDataSourcePvP11OGRGeometryPKcS6_@GDAL_1.8 1.9.0 1
 _ZN21OGRGenSQLResultsLayerD0Ev@GDAL_1.8 1.8.0 1
 _ZN21OGRGenSQLResultsLayerD1Ev@GDAL_1.8 1.8.0 1
 _ZN21OGRGenSQLResultsLayerD2Ev@GDAL_1.8 1.8.0 1
 _ZN21OGRGeometryCollection10closeRingsEv@GDAL_1.8 1.8.0 1
 _ZN21OGRGeometryCollection10segmentizeEd@GDAL_1.8 1.8.0 1
 _ZN21OGRGeometryCollection11addGeometryEPK11OGRGeometry@GDAL_1.8 1.8.0 1
 _ZN21OGRGeometryCollection11flattenTo2DEv@GDAL_1.8 1.8.0 1
 _ZN21OGRGeometryCollection13importFromWkbEPhi@GDAL_1.8 1.8.0 1
 _ZN21OGRGeometryCollection13importFromWktEPPc@GDAL_1.8 1.8.0 1
 _ZN21OGRGeometryCollection14getGeometryRefEi@GDAL_1.8 1.8.0 1
 _ZN21OGRGeometryCollection14removeGeometryEii@GDAL_1.8 1.8.0 1
 _ZN21OGRGeometryCollection19addGeometryDirectlyEP11OGRGeometry@GDAL_1.8 1.8.0 1
 _ZN21OGRGeometryCollection21importFromWkbInternalEPhii@GDAL_1.8 1.9.0 1
 _ZN21OGRGeometryCollection21importFromWktInternalEPPci@GDAL_1.8 1.9.0 1
 _ZN21OGRGeometryCollection22setCoordinateDimensionEi@GDAL_1.8 1.8.0 1
 _ZN21OGRGeometryCollection5emptyEv@GDAL_1.8 1.8.0 1
 _ZN21OGRGeometryCollection6swapXYEv@GDAL_1.8 1.8.0 1
 _ZN21OGRGeometryCollection9transformEP27OGRCoordinateTransformation@GDAL_1.8 1.8.0 1
 _ZN21OGRGeometryCollectionC1Ev@GDAL_1.8 1.8.0 1
 _ZN21OGRGeometryCollectionC2Ev@GDAL_1.8 1.8.0 1
 _ZN21OGRGeometryCollectionD0Ev@GDAL_1.8 1.8.0 1
 _ZN21OGRGeometryCollectionD1Ev@GDAL_1.8 1.8.0 1
 _ZN21OGRGeometryCollectionD2Ev@GDAL_1.8 1.8.0 1
 _ZN22CPLODBCDriverInstaller12RemoveDriverEPKci@GDAL_1.8 1.8.0 1
 _ZN22CPLODBCDriverInstaller13InstallDriverEPKcS1_t@GDAL_1.8 1.8.0 1
 _ZN22CPLODBCDriverInstallerC1Ev@GDAL_1.8 1.8.0 1
 _ZN22CPLODBCDriverInstallerC2Ev@GDAL_1.8 1.8.0 1
 _ZN22GDALJP2AbstractDataset15LoadJP2MetadataEP12GDALOpenInfoPKc@GDAL_1.8 1.11.0 1
 _ZN22GDALJP2AbstractDatasetC1Ev@GDAL_1.8 1.11.0 1
 _ZN22GDALJP2AbstractDatasetC2Ev@GDAL_1.8 1.11.0 1
 _ZN22GDALJP2AbstractDatasetD0Ev@GDAL_1.8 1.11.0 1
 _ZN22GDALJP2AbstractDatasetD1Ev@GDAL_1.8 1.11.0 1
 _ZN22GDALJP2AbstractDatasetD2Ev@GDAL_1.8 1.11.0 1
 _ZN23GDALMultiDomainMetadata11GetMetadataEPKc@GDAL_1.8 1.8.0 1
 _ZN23GDALMultiDomainMetadata11SetMetadataEPPcPKc@GDAL_1.8 1.8.0 1
 _ZN23GDALMultiDomainMetadata15GetMetadataItemEPKcS1_@GDAL_1.8 1.8.0 1
 _ZN23GDALMultiDomainMetadata15SetMetadataItemEPKcS1_S1_@GDAL_1.8 1.8.0 1
 _ZN23GDALMultiDomainMetadata5ClearEv@GDAL_1.8 1.8.0 1
 _ZN23GDALMultiDomainMetadata7XMLInitEP10CPLXMLNodei@GDAL_1.8 1.8.0 1
 _ZN23GDALMultiDomainMetadata9SerializeEv@GDAL_1.8 1.8.0 1
 _ZN23GDALMultiDomainMetadataC1Ev@GDAL_1.8 1.8.0 1
 _ZN23GDALMultiDomainMetadataC2Ev@GDAL_1.8 1.8.0 1
 _ZN23GDALMultiDomainMetadataD1Ev@GDAL_1.8 1.8.0 1
 _ZN23GDALMultiDomainMetadataD2Ev@GDAL_1.8 1.8.0 1
 _ZN23GDALProxyPoolRasterBand11GetMaskBandEv@GDAL_1.8 1.8.0 1
 _ZN23GDALProxyPoolRasterBand11GetMetadataEPKc@GDAL_1.8 1.8.0 1
 _ZN23GDALProxyPoolRasterBand11GetOverviewEi@GDAL_1.8 1.8.0 1
 _ZN23GDALProxyPoolRasterBand11GetUnitTypeEv@GDAL_1.8 1.8.0 1
 _ZN23GDALProxyPoolRasterBand13GetColorTableEv@GDAL_1.8 1.8.0 1
 _ZN23GDALProxyPoolRasterBand15GetMetadataItemEPKcS1_@GDAL_1.8 1.8.0 1
 _ZN23GDALProxyPoolRasterBand16GetCategoryNamesEv@GDAL_1.8 1.8.0 1
 _ZN23GDALProxyPoolRasterBand23GetRasterSampleOverviewEi@GDAL_1.8 1.8.0 1
 _ZN23GDALProxyPoolRasterBand23RefUnderlyingRasterBandEv@GDAL_1.8 1.8.0 1
 _ZN23GDALProxyPoolRasterBand25AddSrcMaskBandDescriptionE12GDALDataTypeii@GDAL_1.8 1.8.0 1
 _ZN23GDALProxyPoolRasterBand25UnrefUnderlyingRasterBandEP14GDALRasterBand@GDAL_1.8 1.8.0 1
 _ZN23GDALProxyPoolRasterBand4InitEv@GDAL_1.8 1.8.0 1
 _ZN23GDALProxyPoolRasterBandC1EP20GDALProxyPoolDatasetP14GDALRasterBand@GDAL_1.8 1.8.0 1
 _ZN23GDALProxyPoolRasterBandC1EP20GDALProxyPoolDataseti12GDALDataTypeii@GDAL_1.8 1.8.0 1
 _ZN23GDALProxyPoolRasterBandC2EP20GDALProxyPoolDatasetP14GDALRasterBand@GDAL_1.8 1.8.0 1
 _ZN23GDALProxyPoolRasterBandC2EP20GDALProxyPoolDataseti12GDALDataTypeii@GDAL_1.8 1.8.0 1
 _ZN23GDALProxyPoolRasterBandD0Ev@GDAL_1.8 1.8.0 1
 _ZN23GDALProxyPoolRasterBandD1Ev@GDAL_1.8 1.8.0 1
 _ZN23GDALProxyPoolRasterBandD2Ev@GDAL_1.8 1.8.0 1
 _ZN23GMLGeometryPropertyDefnC1EPKcS1_ii@GDAL_1.8 1.11.0 1
 _ZN23GMLGeometryPropertyDefnC2EPKcS1_ii@GDAL_1.8 1.11.0 1
 _ZN23GMLGeometryPropertyDefnD1Ev@GDAL_1.8 1.11.0 1
 _ZN23GMLGeometryPropertyDefnD2Ev@GDAL_1.8 1.11.0 1
 _ZN24GDALNoDataValuesMaskBand10IReadBlockEiiPv@GDAL_1.8 1.8.0 1
 _ZN24GDALNoDataValuesMaskBandC1EP11GDALDataset@GDAL_1.8 1.8.0 1
 _ZN24GDALNoDataValuesMaskBandC2EP11GDALDataset@GDAL_1.8 1.8.0 1
 _ZN24GDALNoDataValuesMaskBandD0Ev@GDAL_1.8 1.8.0 1
 _ZN24GDALNoDataValuesMaskBandD1Ev@GDAL_1.8 1.8.0 1
 _ZN24GDALNoDataValuesMaskBandD2Ev@GDAL_1.8 1.8.0 1
 _ZN24GDALRasterAttributeTable11SetRowCountEi@GDAL_1.8 1.8.0 1
 _ZN24GDALRasterAttributeTable12CreateColumnEPKc16GDALRATFieldType17GDALRATFieldUsage@GDAL_1.8 1.8.0 1
 _ZN24GDALRasterAttributeTable12DumpReadableEP8_IO_FILE@GDAL_1.8 1.8.0 1
 _ZN24GDALRasterAttributeTable16SetLinearBinningEdd@GDAL_1.8 1.8.0 1
 _ZN24GDALRasterAttributeTable21TranslateToColorTableEi@GDAL_1.8 1.8.0 1
 _ZN24GDALRasterAttributeTable24InitializeFromColorTableEPK14GDALColorTable@GDAL_1.8 1.8.0 1
 _ZN24GDALRasterAttributeTable7XMLInitEP10CPLXMLNodePKc@GDAL_1.8 1.8.0 1
 _ZN24GDALRasterAttributeTable8ValuesIOE10GDALRWFlagiiiPPc@GDAL_1.8 1.11.0 1
 _ZN24GDALRasterAttributeTable8ValuesIOE10GDALRWFlagiiiPd@GDAL_1.8 1.11.0 1
 _ZN24GDALRasterAttributeTable8ValuesIOE10GDALRWFlagiiiPi@GDAL_1.8 1.11.0 1
 _ZN24GDALRasterAttributeTableD0Ev@GDAL_1.8 1.8.0 1
 _ZN24GDALRasterAttributeTableD1Ev@GDAL_1.8 1.8.0 1
 _ZN24GDALRasterAttributeTableD2Ev@GDAL_1.8 1.8.0 1
 _ZN27OGRCoordinateTransformation9DestroyCTEPS_@GDAL_1.8 1.8.0 1
 _ZN31GDALDefaultRasterAttributeTable11SetRowCountEi@GDAL_1.8 1.11.0 1
 _ZN31GDALDefaultRasterAttributeTable12CreateColumnEPKc16GDALRATFieldType17GDALRATFieldUsage@GDAL_1.8 1.11.0 1
 _ZN31GDALDefaultRasterAttributeTable14AnalyseColumnsEv@GDAL_1.8 1.11.0 1
 _ZN31GDALDefaultRasterAttributeTable16SetLinearBinningEdd@GDAL_1.8 1.11.0 1
 _ZN31GDALDefaultRasterAttributeTable23ChangesAreWrittenToFileEv@GDAL_1.8 1.11.0 1
 _ZN31GDALDefaultRasterAttributeTable8SetValueEiiPKc@GDAL_1.8 1.11.0 1
 _ZN31GDALDefaultRasterAttributeTable8SetValueEiid@GDAL_1.8 1.11.0 1
 _ZN31GDALDefaultRasterAttributeTable8SetValueEiii@GDAL_1.8 1.11.0 1
 _ZN31GDALDefaultRasterAttributeTableC1ERKS_@GDAL_1.8 1.11.0 1
 _ZN31GDALDefaultRasterAttributeTableC1Ev@GDAL_1.8 1.11.0 1
 _ZN31GDALDefaultRasterAttributeTableC2ERKS_@GDAL_1.8 1.11.0 1
 _ZN31GDALDefaultRasterAttributeTableC2Ev@GDAL_1.8 1.11.0 1
 _ZN31GDALDefaultRasterAttributeTableD0Ev@GDAL_1.8 1.11.0 1
 _ZN31GDALDefaultRasterAttributeTableD1Ev@GDAL_1.8 1.11.0 1
 _ZN31GDALDefaultRasterAttributeTableD2Ev@GDAL_1.8 1.11.0 1
 _ZN8OGRCurveC1Ev@GDAL_1.8 1.8.0 1
 _ZN8OGRCurveC2Ev@GDAL_1.8 1.8.0 1
 _ZN8OGRCurveD0Ev@GDAL_1.8 1.8.0 1
 _ZN8OGRCurveD1Ev@GDAL_1.8 1.8.0 1
 _ZN8OGRCurveD2Ev@GDAL_1.8 1.8.0 1
 _ZN8OGRLayer10GetFeatureEl@GDAL_1.8 1.8.0 1
 _ZN8OGRLayer10SetFeatureEP10OGRFeature@GDAL_1.8 1.8.0 1
 _ZN8OGRLayer10SyncToDiskEv@GDAL_1.8 1.8.0 1
 _ZN8OGRLayer11CreateFieldEP12OGRFieldDefni@GDAL_1.8 1.8.0 1
 _ZN8OGRLayer11DeleteFieldEi@GDAL_1.8 1.9.0 1
 _ZN8OGRLayer11DereferenceEv@GDAL_1.8 1.8.0 1
 _ZN8OGRLayer11GetGeomTypeEv@GDAL_1.8 1.8.0 1
 _ZN8OGRLayer12GetFIDColumnEv@GDAL_1.8 1.8.0 1
 _ZN8OGRLayer12IntersectionEPS_S0_PPcPFidPKcPvES5_@GDAL_1.8 1.10.1 1
 _ZN8OGRLayer12ReorderFieldEii@GDAL_1.8 1.9.0 1
 _ZN8OGRLayer13CreateFeatureEP10OGRFeature@GDAL_1.8 1.8.0 1
 _ZN8OGRLayer13DeleteFeatureEl@GDAL_1.8 1.8.0 1
 _ZN8OGRLayer13GetSpatialRefEv@GDAL_1.8 1.8.0 1
 _ZN8OGRLayer13GetStyleTableEv@GDAL_1.8 1.8.0 1
 _ZN8OGRLayer13InstallFilterEP11OGRGeometry@GDAL_1.8 1.8.0 1
 _ZN8OGRLayer13ReorderFieldsEPi@GDAL_1.8 1.9.0 1
 _ZN8OGRLayer13SetStyleTableEP13OGRStyleTable@GDAL_1.8 1.8.0 1
 _ZN8OGRLayer13SymDifferenceEPS_S0_PPcPFidPKcPvES5_@GDAL_1.8 1.10.1 1
 _ZN8OGRLayer14AlterFieldDefnEiP12OGRFieldDefni@GDAL_1.8 1.9.0 1
 _ZN8OGRLayer14FilterGeometryEP11OGRGeometry@GDAL_1.8 1.8.0 1
 _ZN8OGRLayer14FindFieldIndexEPKci@GDAL_1.8 1.11.0 1
 _ZN8OGRLayer14SetNextByIndexEl@GDAL_1.8 1.8.0 1
 _ZN8OGRLayer15CreateGeomFieldEP16OGRGeomFieldDefni@GDAL_1.8 1.11.0 1
 _ZN8OGRLayer15GetFeatureCountEi@GDAL_1.8 1.8.0 1
 _ZN8OGRLayer15GetFeaturesReadEv@GDAL_1.8 1.8.0 1
 _ZN8OGRLayer16GetSpatialFilterEv@GDAL_1.8 1.8.0 1
 _ZN8OGRLayer16SetIgnoredFieldsEPPKc@GDAL_1.8 1.8.0 1
 _ZN8OGRLayer16SetSpatialFilterEP11OGRGeometry@GDAL_1.8 1.8.0 1
 _ZN8OGRLayer16SetSpatialFilterEiP11OGRGeometry@GDAL_1.8 1.11.0 1
 _ZN8OGRLayer16StartTransactionEv@GDAL_1.8 1.8.0 1
 _ZN8OGRLayer17CommitTransactionEv@GDAL_1.8 1.8.0 1
 _ZN8OGRLayer17GetExtentInternalEiP11OGREnvelopei@GDAL_1.8 1.11.0 1
 _ZN8OGRLayer17GetGeometryColumnEv@GDAL_1.8 1.8.0 1
 _ZN8OGRLayer18SetAttributeFilterEPKc@GDAL_1.8 1.8.0 1
 _ZN8OGRLayer19RollbackTransactionEv@GDAL_1.8 1.8.0 1
 _ZN8OGRLayer20SetSpatialFilterRectEdddd@GDAL_1.8 1.8.0 1
 _ZN8OGRLayer20SetSpatialFilterRectEidddd@GDAL_1.8 1.11.0 1
 _ZN8OGRLayer21SetStyleTableDirectlyEP13OGRStyleTable@GDAL_1.8 1.8.0 1
 _ZN8OGRLayer22InitializeIndexSupportEPKc@GDAL_1.8 1.8.0 1
 _ZN8OGRLayer38AttributeFilterEvaluationNeedsGeometryEv@GDAL_1.8 1.9.0 1
 _ZN8OGRLayer4ClipEPS_S0_PPcPFidPKcPvES5_@GDAL_1.8 1.10.1 1
 _ZN8OGRLayer5EraseEPS_S0_PPcPFidPKcPvES5_@GDAL_1.8 1.10.1 1
 _ZN8OGRLayer5UnionEPS_S0_PPcPFidPKcPvES5_@GDAL_1.8 1.10.1 1
 _ZN8OGRLayer6UpdateEPS_S0_PPcPFidPKcPvES5_@GDAL_1.8 1.10.1 1
 _ZN8OGRLayer7GetInfoEPKc@GDAL_1.8 1.8.0 1
 _ZN8OGRLayer7GetNameEv@GDAL_1.8 1.8.0 1
 _ZN8OGRLayer8IdentityEPS_S0_PPcPFidPKcPvES5_@GDAL_1.8 1.10.1 1
 _ZN8OGRLayer9GetExtentEP11OGREnvelopei@GDAL_1.8 1.8.0 1
 _ZN8OGRLayer9GetExtentEiP11OGREnvelopei@GDAL_1.8 1.11.0 1
 _ZN8OGRLayer9ReferenceEv@GDAL_1.8 1.8.0 1
 _ZN8OGRLayerC1Ev@GDAL_1.8 1.8.0 1
 _ZN8OGRLayerC2Ev@GDAL_1.8 1.8.0 1
 _ZN8OGRLayerD0Ev@GDAL_1.8 1.8.0 1
 _ZN8OGRLayerD1Ev@GDAL_1.8 1.8.0 1
 _ZN8OGRLayerD2Ev@GDAL_1.8 1.8.0 1
 _ZN8OGRPoint11flattenTo2DEv@GDAL_1.8 1.8.0 1
 _ZN8OGRPoint13importFromWkbEPhi@GDAL_1.8 1.8.0 1
 _ZN8OGRPoint13importFromWktEPPc@GDAL_1.8 1.8.0 1
 _ZN8OGRPoint22setCoordinateDimensionEi@GDAL_1.8 1.8.0 1
 _ZN8OGRPoint5emptyEv@GDAL_1.8 1.8.0 1
 _ZN8OGRPoint6swapXYEv@GDAL_1.8 1.8.0 1
 _ZN8OGRPoint9transformEP27OGRCoordinateTransformation@GDAL_1.8 1.8.0 1
 _ZN8OGRPointC1Edd@GDAL_1.8 1.8.0 1
 _ZN8OGRPointC1Eddd@GDAL_1.8 1.8.0 1
 _ZN8OGRPointC1Ev@GDAL_1.8 1.8.0 1
 _ZN8OGRPointC2Edd@GDAL_1.8 1.8.0 1
 _ZN8OGRPointC2Eddd@GDAL_1.8 1.8.0 1
 _ZN8OGRPointC2Ev@GDAL_1.8 1.8.0 1
 _ZN8OGRPointD0Ev@GDAL_1.8 1.8.0 1
 _ZN8OGRPointD1Ev@GDAL_1.8 1.8.0 1
 _ZN8OGRPointD2Ev@GDAL_1.8 1.8.0 1
 _ZN9CPLString4TrimEv@GDAL_1.8 1.8.0 1
 _ZN9CPLString6PrintfEPKcz@GDAL_1.8 1.8.0 1
 _ZN9CPLString6RecodeEPKcS1_@GDAL_1.8 1.8.0 1
 _ZN9CPLString7FormatCEdPKc@GDAL_1.8 1.8.0 1
 _ZN9CPLString7tolowerEv@GDAL_1.8 1.9.0 1
 _ZN9CPLString7toupperEv@GDAL_1.8 1.9.0 1
 _ZN9CPLString7vPrintfEPKcP13__va_list_tag@GDAL_1.8 1.9.0 1
 _ZN9S57Reader10FetchPointEiiPdS0_S0_@GDAL_1.8 1.8.0 1
 _ZN9S57Reader10ReadVectorEii@GDAL_1.8 1.8.0 1
 _ZN9S57Reader10SetOptionsEPPc@GDAL_1.8 1.8.0 1
 _ZN9S57Reader11ReadFeatureEiP14OGRFeatureDefn@GDAL_1.8 1.8.0 1
 _ZN9S57Reader12ApplyUpdatesEP9DDFModule@GDAL_1.8 1.8.0 1
 _ZN9S57Reader12RecodeByDSSIEPKcb@GDAL_1.8 1.10.1 1
 _ZN9S57Reader13SetClassBasedEP17S57ClassRegistrarP23S57ClassContentExplorer@GDAL_1.8 1.11.0 1
 _ZN9S57Reader14AddFeatureDefnEP14OGRFeatureDefn@GDAL_1.8 1.8.0 1
 _ZN9S57Reader14GetNextFEIndexEi@GDAL_1.8 1.8.0 1
 _ZN9S57Reader14SetNextFEIndexEii@GDAL_1.8 1.8.0 1
 _ZN9S57Reader15AssembleFeatureEP9DDFRecordP14OGRFeatureDefn@GDAL_1.8 1.8.0 1
 _ZN9S57Reader15ReadNextFeatureEP14OGRFeatureDefn@GDAL_1.8 1.8.0 1
 _ZN9S57Reader16CollectClassListERSt6vectorIiSaIiEE@GDAL_1.8 1.11.0 1
 _ZN9S57Reader17ApplyRecordUpdateEP9DDFRecordS1_@GDAL_1.8 1.8.0 1
 _ZN9S57Reader19FindAndApplyUpdatesEPKc@GDAL_1.8 1.8.0 1
 _ZN9S57Reader19GenerateLNAMAndRefsEP9DDFRecordP10OGRFeature@GDAL_1.8 1.8.0 1
 _ZN9S57Reader20AssembleAreaGeometryEP9DDFRecordP10OGRFeature@GDAL_1.8 1.8.0 1
 _ZN9S57Reader20AssembleLineGeometryEP9DDFRecordP10OGRFeature@GDAL_1.8 1.8.0 1
 _ZN9S57Reader21AssemblePointGeometryEP9DDFRecordP10OGRFeature@GDAL_1.8 1.8.0 1
 _ZN9S57Reader21NextPendingMultiPointEv@GDAL_1.8 1.8.0 1
 _ZN9S57Reader22ClearPendingMultiPointEv@GDAL_1.8 1.8.0 1
 _ZN9S57Reader22GenerateFSPTAttributesEP9DDFRecordP10OGRFeature@GDAL_1.8 1.8.0 1
 _ZN9S57Reader24AssembleSoundingGeometryEP9DDFRecordP10OGRFeature@GDAL_1.8 1.8.0 1
 _ZN9S57Reader26ApplyObjectClassAttributesEP9DDFRecordP10OGRFeature@GDAL_1.8 1.8.0 1
 _ZN9S57Reader4OpenEi@GDAL_1.8 1.8.0 1
 _ZN9S57Reader5CloseEv@GDAL_1.8 1.8.0 1
 _ZN9S57Reader6IngestEv@GDAL_1.8 1.8.0 1
 _ZN9S57Reader6RewindEv@GDAL_1.8 1.8.0 1
 _ZN9S57Reader8ReadDSIDEv@GDAL_1.8 1.8.0 1
 _ZN9S57Reader9FetchLineEP9DDFRecordiiP13OGRLineString@GDAL_1.8 1.8.0 1
 _ZN9S57Reader9FindFDefnEP9DDFRecord@GDAL_1.8 1.8.0 1
 _ZN9S57Reader9GetExtentEP11OGREnvelopei@GDAL_1.8 1.8.0 1
 _ZN9S57Reader9ParseNameEP8DDFFieldiPi@GDAL_1.8 1.8.0 1
 _ZN9S57ReaderC1EPKc@GDAL_1.8 1.8.0 1
 _ZN9S57ReaderC2EPKc@GDAL_1.8 1.8.0 1
 _ZN9S57ReaderD1Ev@GDAL_1.8 1.8.0 1
 _ZN9S57ReaderD2Ev@GDAL_1.8 1.8.0 1
 _ZN9S57Writer10MakeRecordEv@GDAL_1.8 1.8.0 1
 _ZN9S57Writer13CreateS57FileEPKc@GDAL_1.8 1.8.0 1
 _ZN9S57Writer13SetClassBasedEP17S57ClassRegistrarP23S57ClassContentExplorer@GDAL_1.8 1.11.0 1
 _ZN9S57Writer13WriteGeometryEP9DDFRecordiPdS2_S2_@GDAL_1.8 1.8.0 1
 _ZN9S57Writer14WritePrimitiveEP10OGRFeature@GDAL_1.8 1.8.0 1
 _ZN9S57Writer20WriteCompleteFeatureEP10OGRFeature@GDAL_1.8 1.8.0 1
 _ZN9S57Writer5CloseEv@GDAL_1.8 1.8.0 1
 _ZN9S57Writer9WriteATTFEP9DDFRecordP10OGRFeature@GDAL_1.8 1.8.0 1
 _ZN9S57Writer9WriteDSIDEPKcS1_S1_iS1_@GDAL_1.8 1.8.0 1
 _ZN9S57Writer9WriteDSPMEi@GDAL_1.8 1.8.0 1
 _ZN9S57WriterC1Ev@GDAL_1.8 1.8.0 1
 _ZN9S57WriterC2Ev@GDAL_1.8 1.8.0 1
 _ZN9S57WriterD1Ev@GDAL_1.8 1.8.0 1
 _ZN9S57WriterD2Ev@GDAL_1.8 1.8.0 1
 _ZN9VRTSource11GetFileListEPPPcPiS3_P11_CPLHashSet@GDAL_1.8 1.11.0 1
 _ZN9VRTSource14IsSimpleSourceEv@GDAL_1.8 1.11.0 1
 _ZN9VRTSourceD0Ev@GDAL_1.8 1.11.0 1
 _ZN9VRTSourceD1Ev@GDAL_1.8 1.11.0 1
 _ZN9VRTSourceD2Ev@GDAL_1.8 1.11.0 1
 _ZNK10GMLFeature14GetGeometryRefEi@GDAL_1.8 1.11.0 1
 _ZNK10IGMLReader18IsSequentialLayersEv@GDAL_1.8 1.9.0 1
 _ZNK10OGRPolygon11exportToWkbE15OGRwkbByteOrderPh13OGRwkbVariant@GDAL_1.8 1.11.0 1
 _ZNK10OGRPolygon11exportToWktEPPc@GDAL_1.8 1.8.0 1
 _ZNK10OGRPolygon11getEnvelopeEP11OGREnvelope@GDAL_1.8 1.8.0 1
 _ZNK10OGRPolygon11getEnvelopeEP13OGREnvelope3D@GDAL_1.8 1.9.0 1
 _ZNK10OGRPolygon12getDimensionEv@GDAL_1.8 1.8.0 1
 _ZNK10OGRPolygon14PointOnSurfaceEP8OGRPoint@GDAL_1.8 1.8.0 1
 _ZNK10OGRPolygon15getExteriorRingEv@GDAL_1.8 1.8.0 1
 _ZNK10OGRPolygon15getGeometryNameEv@GDAL_1.8 1.8.0 1
 _ZNK10OGRPolygon15getGeometryTypeEv@GDAL_1.8 1.8.0 1
 _ZNK10OGRPolygon15getInteriorRingEi@GDAL_1.8 1.8.0 1
 _ZNK10OGRPolygon16IsPointOnSurfaceEPK8OGRPoint@GDAL_1.8 1.8.0 1
 _ZNK10OGRPolygon19getNumInteriorRingsEv@GDAL_1.8 1.8.0 1
 _ZNK10OGRPolygon5cloneEv@GDAL_1.8 1.8.0 1
 _ZNK10OGRPolygon6EqualsEP11OGRGeometry@GDAL_1.8 1.8.0 1
 _ZNK10OGRPolygon7IsEmptyEv@GDAL_1.8 1.8.0 1
 _ZNK10OGRPolygon7WkbSizeEv@GDAL_1.8 1.8.0 1
 _ZNK10OGRPolygon8get_AreaEv@GDAL_1.8 1.8.0 1
 _ZNK10VFKFeature11GetPropertyEPKc@GDAL_1.8 1.8.0 1
 _ZNK10VFKFeature11GetPropertyEi@GDAL_1.8 1.8.0 1
 _ZNK11OGRGeometry10ConvexHullEv@GDAL_1.8 1.8.0 1
 _ZNK11OGRGeometry10DifferenceEPKS_@GDAL_1.8 1.8.0 1
 _ZNK11OGRGeometry10IntersectsEPS_@GDAL_1.8 1.8.0 1
 _ZNK11OGRGeometry10PolygonizeEv@GDAL_1.8 1.9.0 1
 _ZNK11OGRGeometry11exportToGMLEPKPKc@GDAL_1.8 1.8.0 1
 _ZNK11OGRGeometry11exportToKMLEv@GDAL_1.8 1.8.0 1
 _ZNK11OGRGeometry11getBoundaryEv@GDAL_1.8 1.8.0 1
 _ZNK11OGRGeometry12IntersectionEPKS_@GDAL_1.8 1.8.0 1
 _ZNK11OGRGeometry12dumpReadableEP8_IO_FILEPKcPPc@GDAL_1.8 1.8.0 1
 _ZNK11OGRGeometry12exportToGEOSEP20GEOSContextHandle_HS@GDAL_1.8 1.11.0 1
 _ZNK11OGRGeometry12exportToJsonEv@GDAL_1.8 1.8.0 1
 _ZNK11OGRGeometry13SymDifferenceEPKS_@GDAL_1.8 1.8.0 1
 _ZNK11OGRGeometry13UnionCascadedEv@GDAL_1.8 1.8.0 1
 _ZNK11OGRGeometry18getIsoGeometryTypeEv@GDAL_1.8 1.11.0 1
 _ZNK11OGRGeometry19SymmetricDifferenceEPKS_@GDAL_1.8 1.8.0 1
 _ZNK11OGRGeometry22getCoordinateDimensionEv@GDAL_1.8 1.8.0 1
 _ZNK11OGRGeometry24SimplifyPreserveTopologyEd@GDAL_1.8 1.9.0 1
 _ZNK11OGRGeometry5EqualEPS_@GDAL_1.8 1.8.0 1
 _ZNK11OGRGeometry5UnionEPKS_@GDAL_1.8 1.8.0 1
 _ZNK11OGRGeometry6BufferEdi@GDAL_1.8 1.8.0 1
 _ZNK11OGRGeometry6IsRingEv@GDAL_1.8 1.8.0 1
 _ZNK11OGRGeometry6WithinEPKS_@GDAL_1.8 1.8.0 1
 _ZNK11OGRGeometry7CrossesEPKS_@GDAL_1.8 1.8.0 1
 _ZNK11OGRGeometry7IsValidEv@GDAL_1.8 1.8.0 1
 _ZNK11OGRGeometry7TouchesEPKS_@GDAL_1.8 1.8.0 1
 _ZNK11OGRGeometry8BoundaryEv@GDAL_1.8 1.8.0 1
 _ZNK11OGRGeometry8CentroidEP8OGRPoint@GDAL_1.8 1.8.0 1
 _ZNK11OGRGeometry8ContainsEPKS_@GDAL_1.8 1.8.0 1
 _ZNK11OGRGeometry8DisjointEPKS_@GDAL_1.8 1.8.0 1
 _ZNK11OGRGeometry8DistanceEPKS_@GDAL_1.8 1.8.0 1
 _ZNK11OGRGeometry8IsSimpleEv@GDAL_1.8 1.8.0 1
 _ZNK11OGRGeometry8OverlapsEPKS_@GDAL_1.8 1.8.0 1
 _ZNK11OGRGeometry8SimplifyEd@GDAL_1.8 1.8.0 1
 _ZNK11OGRGeometry9IntersectEPS_@GDAL_1.8 1.8.0 1
 _ZNK11OGR_SRSNode11exportToWktEPPc@GDAL_1.8 1.8.0 1
 _ZNK11OGR_SRSNode12NeedsQuotingEv@GDAL_1.8 1.8.0 1
 _ZNK11OGR_SRSNode17exportToPrettyWktEPPci@GDAL_1.8 1.8.0 1
 _ZNK11OGR_SRSNode5CloneEv@GDAL_1.8 1.8.0 1
 _ZNK11OGR_SRSNode7GetNodeEPKc@GDAL_1.8 1.8.0 1
 _ZNK11OGR_SRSNode8GetChildEi@GDAL_1.8 1.8.0 1
 _ZNK11OGR_SRSNode9FindChildEPKc@GDAL_1.8 1.8.0 1
 _ZNK12OGRFieldDefn6IsSameEPKS_@GDAL_1.8 1.10.1 1
 _ZNK13CPLStringList12FetchBooleanEPKci@GDAL_1.8 1.9.0 1
 _ZNK13CPLStringList14FetchNameValueEPKc@GDAL_1.8 1.9.0 1
 _ZNK13CPLStringList17FetchNameValueDefEPKcS1_@GDAL_1.8 1.9.0 1
 _ZNK13CPLStringList5CountEv@GDAL_1.8 1.9.0 1
 _ZNK13CPLStringList8FindNameEPKc@GDAL_1.8 1.9.0 1
 _ZNK13CPLStringListixEi@GDAL_1.8 1.9.0 1
 _ZNK13IVFKDataBlock11GetPropertyEi@GDAL_1.8 1.10.1 1
 _ZNK13IVFKDataBlock14GetRecordCountE10RecordType@GDAL_1.8 1.11.0 1
 _ZNK13IVFKDataBlock15GetGeometryTypeEv@GDAL_1.8 1.10.1 1
 _ZNK13IVFKDataBlock16GetPropertyIndexEPKc@GDAL_1.8 1.10.1 1
 _ZNK13IVFKDataBlock17GetFeatureByIndexEi@GDAL_1.8 1.10.1 1
 _ZNK13OGRDataSource11GetRefCountEv@GDAL_1.8 1.8.0 1
 _ZNK13OGRDataSource18GetSummaryRefCountEv@GDAL_1.8 1.8.0 1
 _ZNK13OGRDataSource9GetDriverEv@GDAL_1.8 1.8.0 1
 _ZNK13OGRLineString10StartPointEP8OGRPoint@GDAL_1.8 1.8.0 1
 _ZNK13OGRLineString10getSubLineEddi@GDAL_1.8 1.11.0 1
 _ZNK13OGRLineString10get_LengthEv@GDAL_1.8 1.8.0 1
 _ZNK13OGRLineString11exportToWkbE15OGRwkbByteOrderPh13OGRwkbVariant@GDAL_1.8 1.11.0 1
 _ZNK13OGRLineString11exportToWktEPPc@GDAL_1.8 1.8.0 1
 _ZNK13OGRLineString11getEnvelopeEP11OGREnvelope@GDAL_1.8 1.8.0 1
 _ZNK13OGRLineString11getEnvelopeEP13OGREnvelope3D@GDAL_1.8 1.9.0 1
 _ZNK13OGRLineString12getDimensionEv@GDAL_1.8 1.8.0 1
 _ZNK13OGRLineString15getGeometryNameEv@GDAL_1.8 1.8.0 1
 _ZNK13OGRLineString15getGeometryTypeEv@GDAL_1.8 1.8.0 1
 _ZNK13OGRLineString4getZEi@GDAL_1.8 1.8.0 1
 _ZNK13OGRLineString5ValueEdP8OGRPoint@GDAL_1.8 1.8.0 1
 _ZNK13OGRLineString5cloneEv@GDAL_1.8 1.8.0 1
 _ZNK13OGRLineString6EqualsEP11OGRGeometry@GDAL_1.8 1.8.0 1
 _ZNK13OGRLineString7IsEmptyEv@GDAL_1.8 1.8.0 1
 _ZNK13OGRLineString7ProjectEPK8OGRPoint@GDAL_1.8 1.11.0 1
 _ZNK13OGRLineString7WkbSizeEv@GDAL_1.8 1.8.0 1
 _ZNK13OGRLineString8EndPointEP8OGRPoint@GDAL_1.8 1.8.0 1
 _ZNK13OGRLineString8getPointEiP8OGRPoint@GDAL_1.8 1.8.0 1
 _ZNK13OGRLineString9getPointsEP11OGRRawPointPd@GDAL_1.8 1.8.0 1
 _ZNK13OGRLineString9getPointsEPviS0_iS0_i@GDAL_1.8 1.9.0 1
 _ZNK13OGRLinearRing11exportToWkbE15OGRwkbByteOrderPh13OGRwkbVariant@GDAL_1.8 1.11.0 1
 _ZNK13OGRLinearRing11isClockwiseEv@GDAL_1.8 1.8.0 1
 _ZNK13OGRLinearRing12_exportToWkbE15OGRwkbByteOrderiPh@GDAL_1.8 1.8.0 1
 _ZNK13OGRLinearRing13isPointInRingEPK8OGRPointi@GDAL_1.8 1.8.0 1
 _ZNK13OGRLinearRing15getGeometryNameEv@GDAL_1.8 1.8.0 1
 _ZNK13OGRLinearRing21isPointOnRingBoundaryEPK8OGRPointi@GDAL_1.8 1.8.0 1
 _ZNK13OGRLinearRing5cloneEv@GDAL_1.8 1.8.0 1
 _ZNK13OGRLinearRing7WkbSizeEv@GDAL_1.8 1.8.0 1
 _ZNK13OGRLinearRing8_WkbSizeEi@GDAL_1.8 1.8.0 1
 _ZNK13OGRLinearRing8get_AreaEv@GDAL_1.8 1.8.0 1
 _ZNK13OGRMultiPoint11exportToWktEPPc@GDAL_1.8 1.8.0 1
 _ZNK13OGRMultiPoint12getDimensionEv@GDAL_1.8 1.10.1 1
 _ZNK13OGRMultiPoint15getGeometryNameEv@GDAL_1.8 1.8.0 1
 _ZNK13OGRMultiPoint15getGeometryTypeEv@GDAL_1.8 1.8.0 1
 _ZNK13OGRMultiPoint5cloneEv@GDAL_1.8 1.8.0 1
 _ZNK14GDALColorTable13GetColorEntryEi@GDAL_1.8 1.8.0 1
 _ZNK14GDALColorTable18GetColorEntryAsRGBEiP14GDALColorEntry@GDAL_1.8 1.8.0 1
 _ZNK14GDALColorTable18GetColorEntryCountEv@GDAL_1.8 1.8.0 1
 _ZNK14GDALColorTable24GetPaletteInterpretationEv@GDAL_1.8 1.8.0 1
 _ZNK14GDALColorTable5CloneEv@GDAL_1.8 1.8.0 1
 _ZNK15GDALMajorObject14GetDescriptionEv@GDAL_1.8 1.8.0 1
 _ZNK15GMLFeatureClass11GetPropertyEi@GDAL_1.8 1.8.0 1
 _ZNK15GMLFeatureClass14GetElementNameEv@GDAL_1.8 1.8.0 1
 _ZNK15GMLFeatureClass16GetPropertyIndexEPKc@GDAL_1.8 1.8.0 1
 _ZNK15GMLFeatureClass17GetElementNameLenEv@GDAL_1.8 1.9.0 1
 _ZNK15GMLFeatureClass19GetGeometryPropertyEi@GDAL_1.8 1.11.0 1
 _ZNK15GMLFeatureClass28GetPropertyIndexBySrcElementEPKci@GDAL_1.8 1.9.0 1
 _ZNK15GMLFeatureClass36GetGeometryPropertyIndexBySrcElementEPKc@GDAL_1.8 1.11.0 1
 _ZNK15OGRMultiPolygon11exportToWktEPPc@GDAL_1.8 1.8.0 1
 _ZNK15OGRMultiPolygon12getDimensionEv@GDAL_1.8 1.10.1 1
 _ZNK15OGRMultiPolygon15getGeometryNameEv@GDAL_1.8 1.8.0 1
 _ZNK15OGRMultiPolygon15getGeometryTypeEv@GDAL_1.8 1.8.0 1
 _ZNK15OGRMultiPolygon5cloneEv@GDAL_1.8 1.8.0 1
 _ZNK15OGRMultiPolygon8get_AreaEv@GDAL_1.8 1.8.0 1
 _ZNK15VFKPropertyDefn10GetTypeSQLEv@GDAL_1.8 1.10.1 1
 _ZNK18OGRMultiLineString11exportToWktEPPc@GDAL_1.8 1.8.0 1
 _ZNK18OGRMultiLineString12getDimensionEv@GDAL_1.8 1.10.1 1
 _ZNK18OGRMultiLineString15getGeometryNameEv@GDAL_1.8 1.8.0 1
 _ZNK18OGRMultiLineString15getGeometryTypeEv@GDAL_1.8 1.8.0 1
 _ZNK18OGRMultiLineString5cloneEv@GDAL_1.8 1.8.0 1
 _ZNK18VFKDataBlockSQLite6GetKeyEv@GDAL_1.8 1.10.1 1
 _ZNK19OGRSpatialReference10GetTOWGS84EPdi@GDAL_1.8 1.8.0 1
 _ZNK19OGRSpatialReference10GetUTMZoneEPi@GDAL_1.8 1.8.0 1
 _ZNK19OGRSpatialReference10IsCompoundEv@GDAL_1.8 1.9.0 1
 _ZNK19OGRSpatialReference10IsVerticalEv@GDAL_1.8 1.8.0 1
 _ZNK19OGRSpatialReference11CloneGeogCSEv@GDAL_1.8 1.8.0 1
 _ZNK19OGRSpatialReference11GetAttrNodeEPKc@GDAL_1.8 1.8.0 1
 _ZNK19OGRSpatialReference11GetNormInfoEv@GDAL_1.8 1.8.0 1
 _ZNK19OGRSpatialReference11GetProjParmEPKcdPi@GDAL_1.8 1.8.0 1
 _ZNK19OGRSpatialReference11IsProjectedEv@GDAL_1.8 1.8.0 1
 _ZNK19OGRSpatialReference11exportToPCIEPPcS1_PPd@GDAL_1.8 1.8.0 1
 _ZNK19OGRSpatialReference11exportToWktEPPc@GDAL_1.8 1.8.0 1
 _ZNK19OGRSpatialReference11exportToXMLEPPcPKc@GDAL_1.8 1.8.0 1
 _ZNK19OGRSpatialReference12FindProjParmEPKcPK11OGR_SRSNode@GDAL_1.8 1.8.0 1
 _ZNK19OGRSpatialReference12GetAttrValueEPKci@GDAL_1.8 1.8.0 1
 _ZNK19OGRSpatialReference12GetExtensionEPKcS1_S1_@GDAL_1.8 1.8.0 1
 _ZNK19OGRSpatialReference12GetSemiMajorEPi@GDAL_1.8 1.8.0 1
 _ZNK19OGRSpatialReference12GetSemiMinorEPi@GDAL_1.8 1.8.0 1
 _ZNK19OGRSpatialReference12IsGeocentricEv@GDAL_1.8 1.9.0 1
 _ZNK19OGRSpatialReference12IsGeographicEv@GDAL_1.8 1.8.0 1
 _ZNK19OGRSpatialReference12IsSameGeogCSEPKS_@GDAL_1.8 1.8.0 1
 _ZNK19OGRSpatialReference12IsSameVertCSEPKS_@GDAL_1.8 1.8.0 1
 _ZNK19OGRSpatialReference12exportToUSGSEPlS0_PPdS0_@GDAL_1.8 1.8.0 1
 _ZNK19OGRSpatialReference13exportToProj4EPPc@GDAL_1.8 1.8.0 1
 _ZNK19OGRSpatialReference14GetLinearUnitsEPPc@GDAL_1.8 1.8.0 1
 _ZNK19OGRSpatialReference15GetAngularUnitsEPPc@GDAL_1.8 1.8.0 1
 _ZNK19OGRSpatialReference15GetNormProjParmEPKcdPi@GDAL_1.8 1.8.0 1
 _ZNK19OGRSpatialReference16GetAuthorityCodeEPKc@GDAL_1.8 1.8.0 1
 _ZNK19OGRSpatialReference16GetAuthorityNameEPKc@GDAL_1.8 1.8.0 1
 _ZNK19OGRSpatialReference16GetInvFlatteningEPi@GDAL_1.8 1.8.0 1
 _ZNK19OGRSpatialReference16GetPrimeMeridianEPPc@GDAL_1.8 1.8.0 1
 _ZNK19OGRSpatialReference16exportToPanoramaEPlS0_S0_S0_Pd@GDAL_1.8 1.8.0 1
 _ZNK19OGRSpatialReference17exportToPrettyWktEPPci@GDAL_1.8 1.8.0 1
 _ZNK19OGRSpatialReference18exportToMICoordSysEPPc@GDAL_1.8 1.8.0 1
 _ZNK19OGRSpatialReference20GetTargetLinearUnitsEPKcPPc@GDAL_1.8 1.9.0 1
 _ZNK19OGRSpatialReference5CloneEv@GDAL_1.8 1.8.0 1
 _ZNK19OGRSpatialReference6IsSameEPKS_@GDAL_1.8 1.8.0 1
 _ZNK19OGRSpatialReference7GetAxisEPKciP18OGRAxisOrientation@GDAL_1.8 1.8.0 1
 _ZNK19OGRSpatialReference7IsLocalEv@GDAL_1.8 1.8.0 1
 _ZNK21OGRGeometryCollection10get_LengthEv@GDAL_1.8 1.8.0 1
 _ZNK21OGRGeometryCollection11exportToWkbE15OGRwkbByteOrderPh13OGRwkbVariant@GDAL_1.8 1.11.0 1
 _ZNK21OGRGeometryCollection11exportToWktEPPc@GDAL_1.8 1.8.0 1
 _ZNK21OGRGeometryCollection11getEnvelopeEP11OGREnvelope@GDAL_1.8 1.8.0 1
 _ZNK21OGRGeometryCollection11getEnvelopeEP13OGREnvelope3D@GDAL_1.8 1.9.0 1
 _ZNK21OGRGeometryCollection12getDimensionEv@GDAL_1.8 1.8.0 1
 _ZNK21OGRGeometryCollection14getGeometryRefEi@GDAL_1.8 1.8.0 1
 _ZNK21OGRGeometryCollection15getGeometryNameEv@GDAL_1.8 1.8.0 1
 _ZNK21OGRGeometryCollection15getGeometryTypeEv@GDAL_1.8 1.8.0 1
 _ZNK21OGRGeometryCollection16getNumGeometriesEv@GDAL_1.8 1.8.0 1
 _ZNK21OGRGeometryCollection5cloneEv@GDAL_1.8 1.8.0 1
 _ZNK21OGRGeometryCollection6EqualsEP11OGRGeometry@GDAL_1.8 1.8.0 1
 _ZNK21OGRGeometryCollection7IsEmptyEv@GDAL_1.8 1.8.0 1
 _ZNK21OGRGeometryCollection7WkbSizeEv@GDAL_1.8 1.8.0 1
 _ZNK21OGRGeometryCollection8get_AreaEv@GDAL_1.8 1.8.0 1
 _ZNK24GDALRasterAttributeTable13GetRowOfValueEd@GDAL_1.8 1.8.0 1
 _ZNK24GDALRasterAttributeTable13GetRowOfValueEi@GDAL_1.8 1.8.0 1
 _ZNK24GDALRasterAttributeTable16GetLinearBinningEPdS0_@GDAL_1.8 1.8.0 1
 _ZNK24GDALRasterAttributeTable9SerializeEv@GDAL_1.8 1.8.0 1
 _ZNK31GDALDefaultRasterAttributeTable11GetRowCountEv@GDAL_1.8 1.11.0 1
 _ZNK31GDALDefaultRasterAttributeTable12GetNameOfColEi@GDAL_1.8 1.11.0 1
 _ZNK31GDALDefaultRasterAttributeTable12GetTypeOfColEi@GDAL_1.8 1.11.0 1
 _ZNK31GDALDefaultRasterAttributeTable13GetColOfUsageE17GDALRATFieldUsage@GDAL_1.8 1.11.0 1
 _ZNK31GDALDefaultRasterAttributeTable13GetRowOfValueEd@GDAL_1.8 1.11.0 1
 _ZNK31GDALDefaultRasterAttributeTable13GetRowOfValueEi@GDAL_1.8 1.11.0 1
 _ZNK31GDALDefaultRasterAttributeTable13GetUsageOfColEi@GDAL_1.8 1.11.0 1
 _ZNK31GDALDefaultRasterAttributeTable13GetValueAsIntEii@GDAL_1.8 1.11.0 1
 _ZNK31GDALDefaultRasterAttributeTable14GetColumnCountEv@GDAL_1.8 1.11.0 1
 _ZNK31GDALDefaultRasterAttributeTable16GetLinearBinningEPdS0_@GDAL_1.8 1.11.0 1
 _ZNK31GDALDefaultRasterAttributeTable16GetValueAsDoubleEii@GDAL_1.8 1.11.0 1
 _ZNK31GDALDefaultRasterAttributeTable16GetValueAsStringEii@GDAL_1.8 1.11.0 1
 _ZNK31GDALDefaultRasterAttributeTable5CloneEv@GDAL_1.8 1.11.0 1
 _ZNK8OGRCurve12get_IsClosedEv@GDAL_1.8 1.8.0 1
 _ZNK8OGRLayer11GetRefCountEv@GDAL_1.8 1.8.0 1
 _ZNK8OGRPoint11exportToWkbE15OGRwkbByteOrderPh13OGRwkbVariant@GDAL_1.8 1.11.0 1
 _ZNK8OGRPoint11exportToWktEPPc@GDAL_1.8 1.8.0 1
 _ZNK8OGRPoint11getEnvelopeEP11OGREnvelope@GDAL_1.8 1.8.0 1
 _ZNK8OGRPoint11getEnvelopeEP13OGREnvelope3D@GDAL_1.8 1.9.0 1
 _ZNK8OGRPoint12getDimensionEv@GDAL_1.8 1.8.0 1
 _ZNK8OGRPoint15getGeometryNameEv@GDAL_1.8 1.8.0 1
 _ZNK8OGRPoint15getGeometryTypeEv@GDAL_1.8 1.8.0 1
 _ZNK8OGRPoint5cloneEv@GDAL_1.8 1.8.0 1
 _ZNK8OGRPoint6EqualsEP11OGRGeometry@GDAL_1.8 1.8.0 1
 _ZNK8OGRPoint7IsEmptyEv@GDAL_1.8 1.8.0 1
 _ZNK8OGRPoint7WkbSizeEv@GDAL_1.8 1.8.0 1
 _ZNK9CPLString5ifindEPKcm@GDAL_1.8 1.9.0 1
 _ZNK9CPLString5ifindERKNSt7__cxx1112basic_stringIcSt11char_traitsIcESaIcEEEm@GDAL_1.8 1.11.2 1
 _ZNKSt8_Rb_treeI9CPLStringSt4pairIKS0_S0_ESt10_Select1stIS3_ESt4lessIS0_ESaIS3_EE4findERS2_@GDAL_1.8 1.10.1 1
 _ZNSt11_Deque_baseIP10OGRFeatureSaIS1_EE17_M_initialize_mapEm@GDAL_1.8 1.9.0 1
 _ZNSt11_Deque_baseIP10OGRFeatureSaIS1_EED1Ev@GDAL_1.8 1.8.0 1
 _ZNSt11_Deque_baseIP10OGRFeatureSaIS1_EED2Ev@GDAL_1.8 1.8.0 1
 _ZNSt13_Bvector_baseISaIbEE13_M_deallocateEv@GDAL_1.8 1.11.2 1
 _ZNSt20__uninitialized_copyILb0EE13__uninit_copyIP25OGREDIGEOObjectDescriptorS3_EET0_T_S5_S4_@GDAL_1.8 1.10.1 1
 _ZNSt20__uninitialized_copyILb0EE13__uninit_copyIP9CPLStringS3_EET0_T_S5_S4_@GDAL_1.8 1.10.1 1
 _ZNSt20__uninitialized_copyILb0EE13__uninit_copyIPSt4pairI9CPLStringS3_ES5_EET0_T_S7_S6_@GDAL_1.8 1.10.1 1
 _ZNSt20__uninitialized_copyILb0EE13__uninit_copyIPSt4pairI9CPLStringSt6vectorIS3_SaIS3_EEES8_EET0_T_SA_S9_@GDAL_1.8 1.10.1 1
 _ZNSt20__uninitialized_copyILb0EE13__uninit_copyIPSt6vectorISt4pairIddESaIS4_EES7_EET0_T_S9_S8_@GDAL_1.8 1.10.1 1
 _ZNSt22__uninitialized_fill_nILb0EE15__uninit_fill_nIPSt4pairI9CPLStringS3_EmS4_EET_S6_T0_RKT1_@GDAL_1.8 1.11.3 1
 _ZNSt3mapI9CPLStringPF6CPLErrPPviS2_ii12GDALDataTypeS4_iiESt4lessIS0_ESaISt4pairIKS0_S6_EEED1Ev@GDAL_1.8 1.9.0 1
 _ZNSt3mapI9CPLStringPF6CPLErrPPviS2_ii12GDALDataTypeS4_iiESt4lessIS0_ESaISt4pairIKS0_S6_EEED2Ev@GDAL_1.8 1.9.0 1
 _ZNSt3mapI9CPLStringPvSt4lessIS0_ESaISt4pairIKS0_S1_EEED1Ev@GDAL_1.8 1.8.0 1
 _ZNSt3mapI9CPLStringPvSt4lessIS0_ESaISt4pairIKS0_S1_EEED2Ev@GDAL_1.8 1.8.0 1
 _ZNSt3mapI9CPLStringS0_St4lessIS0_ESaISt4pairIKS0_S0_EEEixERS4_@GDAL_1.8 1.8.0 1
 _ZNSt3mapI9CPLStringSt4pairIddESt4lessIS0_ESaIS1_IKS0_S2_EEEixERS5_@GDAL_1.8 1.9.0 1
 _ZNSt3mapI9CPLStringSt6vectorIS0_SaIS0_EESt4lessIS0_ESaISt4pairIKS0_S3_EEEixERS7_@GDAL_1.8 1.9.0 1
 _ZNSt4pairI9CPLStringS0_ED1Ev@GDAL_1.8 1.9.0 1
 _ZNSt4pairI9CPLStringS0_ED2Ev@GDAL_1.8 1.9.0 1
 _ZNSt4pairI9CPLStringSt6vectorIS0_SaIS0_EEEC1ERKS4_@GDAL_1.8 1.9.0 1
 _ZNSt4pairI9CPLStringSt6vectorIS0_SaIS0_EEEC2ERKS4_@GDAL_1.8 1.9.0 1
 _ZNSt4pairI9CPLStringSt6vectorIS0_SaIS0_EEED1Ev@GDAL_1.8 1.9.0 1
 _ZNSt4pairI9CPLStringSt6vectorIS0_SaIS0_EEED2Ev@GDAL_1.8 1.9.0 1
 _ZNSt4pairIK9CPLStringS0_EC1ERKS2_@GDAL_1.8 1.11.2 1
 _ZNSt4pairIK9CPLStringS0_EC1ERS1_S3_@GDAL_1.8 1.11.2 1
 _ZNSt4pairIK9CPLStringS0_EC2ERKS2_@GDAL_1.8 1.11.2 1
 _ZNSt4pairIK9CPLStringS0_EC2ERS1_S3_@GDAL_1.8 1.11.2 1
 _ZNSt4pairIK9CPLStringS0_ED1Ev@GDAL_1.8 1.10.1 1
 _ZNSt4pairIK9CPLStringS0_ED2Ev@GDAL_1.8 1.10.1 1
 _ZNSt4pairIK9CPLStringSt3mapIS0_S0_St4lessIS0_ESaIS_IS1_S0_EEEED1Ev@GDAL_1.8 1.11.2 1
 _ZNSt4pairIK9CPLStringSt3mapIS0_S0_St4lessIS0_ESaIS_IS1_S0_EEEED2Ev@GDAL_1.8 1.11.2 1
 _ZNSt4pairIKNSt7__cxx1112basic_stringIcSt11char_traitsIcESaIcEEES5_ED1Ev@GDAL_1.8 1.11.2 1
 _ZNSt4pairIKNSt7__cxx1112basic_stringIcSt11char_traitsIcESaIcEEES5_ED2Ev@GDAL_1.8 1.11.2 1
 _ZNSt5dequeIP10OGRFeatureSaIS1_EE16_M_push_back_auxERKS1_@GDAL_1.8 1.10.1 1
 _ZNSt6vectorI11VFKPropertySaIS0_EE14_M_fill_assignEmRKS0_@GDAL_1.8 1.9.0 1
 _ZNSt6vectorI12OGRFieldTypeSaIS0_EE13_M_insert_auxEN9__gnu_cxx17__normal_iteratorIPS0_S2_EERKS0_@GDAL_1.8 1.10.1 1
 _ZNSt6vectorI8OGRPointSaIS0_EE13_M_insert_auxEN9__gnu_cxx17__normal_iteratorIPS0_S2_EERKS0_@GDAL_1.8 1.8.0 1
 _ZNSt6vectorI8OGRPointSaIS0_EE15_M_range_insertIN9__gnu_cxx17__normal_iteratorIPS0_S2_EEEEvS7_T_S8_St20forward_iterator_tag@GDAL_1.8 1.8.0 1
 _ZNSt6vectorI8OGRPointSaIS0_EE15_M_range_insertISt16reverse_iteratorIN9__gnu_cxx17__normal_iteratorIPS0_S2_EEEEEvS8_T_SA_St20forward_iterator_tag@GDAL_1.8 1.8.0 1
 _ZNSt6vectorI9CPLStringSaIS0_EE13_M_insert_auxEN9__gnu_cxx17__normal_iteratorIPS0_S2_EERKS0_@GDAL_1.8 1.8.0 1
 _ZNSt6vectorI9CPLStringSaIS0_EE14_M_fill_insertEN9__gnu_cxx17__normal_iteratorIPS0_S2_EEmRKS0_@GDAL_1.8 1.9.0 1
 _ZNSt6vectorI9CPLStringSaIS0_EE9push_backERKS0_@GDAL_1.8 1.10.1 1
 _ZNSt6vectorI9CPLStringSaIS0_EEC1ERKS2_@GDAL_1.8 1.10.1 1
 _ZNSt6vectorI9CPLStringSaIS0_EEC2ERKS2_@GDAL_1.8 1.10.1 1
 _ZNSt6vectorI9CPLStringSaIS0_EED1Ev@GDAL_1.8 1.8.0 1
 _ZNSt6vectorI9CPLStringSaIS0_EED2Ev@GDAL_1.8 1.8.0 1
 _ZNSt6vectorI9CPLStringSaIS0_EEaSERKS2_@GDAL_1.8 1.8.0 1
 _ZNSt6vectorIN6PCIDSK14ShapeFieldTypeESaIS1_EE13_M_insert_auxEN9__gnu_cxx17__normal_iteratorIPS1_S3_EERKS1_@GDAL_1.8 1.8.0 1
 _ZNSt6vectorIN6PCIDSK9eChanTypeESaIS1_EE14_M_fill_insertEN9__gnu_cxx17__normal_iteratorIPS1_S3_EEmRKS1_@GDAL_1.8 1.9.0 1
 _ZNSt6vectorINSt7__cxx1112basic_stringIcSt11char_traitsIcESaIcEEESaIS5_EE13_M_insert_auxEN9__gnu_cxx17__normal_iteratorIPS5_S7_EERKS5_@GDAL_1.8 1.11.2 1
 _ZNSt6vectorINSt7__cxx1112basic_stringIcSt11char_traitsIcESaIcEEESaIS5_EE14_M_fill_insertEN9__gnu_cxx17__normal_iteratorIPS5_S7_EEmRKS5_@GDAL_1.8 1.11.2 1
 _ZNSt6vectorINSt7__cxx1112basic_stringIcSt11char_traitsIcESaIcEEESaIS5_EED1Ev@GDAL_1.8 1.11.2 1
 _ZNSt6vectorINSt7__cxx1112basic_stringIcSt11char_traitsIcESaIcEEESaIS5_EED2Ev@GDAL_1.8 1.11.2 1
 _ZNSt6vectorINSt7__cxx1112basic_stringIcSt11char_traitsIcESaIcEEESaIS5_EEaSERKS7_@GDAL_1.8 1.11.2 1
 _ZNSt6vectorIP10OGRFeatureSaIS1_EE13_M_insert_auxEN9__gnu_cxx17__normal_iteratorIPS1_S3_EERKS1_@GDAL_1.8 1.8.0 1
 _ZNSt6vectorIP10OGRFeatureSaIS1_EEaSERKS3_@GDAL_1.8 1.8.0 1
 _ZNSt6vectorIP10VFKFeatureSaIS1_EE13_M_insert_auxEN9__gnu_cxx17__normal_iteratorIPS1_S3_EERKS1_@GDAL_1.8 1.8.0 1
 _ZNSt6vectorIP10VFKFeatureSaIS1_EE8_M_eraseEN9__gnu_cxx17__normal_iteratorIPS1_S3_EE@GDAL_1.8 1.11.0 1
 _ZNSt6vectorIP10VFKFeatureSaIS1_EEaSERKS3_@GDAL_1.8 1.8.0 1
 _ZNSt6vectorIP11GDALDatasetSaIS1_EE13_M_insert_auxEN9__gnu_cxx17__normal_iteratorIPS1_S3_EERKS1_@GDAL_1.8 1.8.0 1
 _ZNSt6vectorIP11OGRGeometrySaIS1_EE13_M_insert_auxEN9__gnu_cxx17__normal_iteratorIPS1_S3_EERKS1_@GDAL_1.8 1.9.0 1
 _ZNSt6vectorIP11S57AttrInfoSaIS1_EE14_M_fill_insertEN9__gnu_cxx17__normal_iteratorIPS1_S3_EEmRKS1_@GDAL_1.8 1.11.0 1
 _ZNSt6vectorIP13OGRDataSourceSaIS1_EE13_M_insert_auxEN9__gnu_cxx17__normal_iteratorIPS1_S3_EERKS1_@GDAL_1.8 1.10.1 1
 _ZNSt6vectorIP13OGRLinearRingSaIS1_EE13_M_insert_auxEN9__gnu_cxx17__normal_iteratorIPS1_S3_EERKS1_@GDAL_1.8 1.9.0 1
 _ZNSt6vectorIP14GDALRasterBandSaIS1_EE13_M_insert_auxEN9__gnu_cxx17__normal_iteratorIPS1_S3_EERKS1_@GDAL_1.8 1.10.1 1
 _ZNSt6vectorIP14GDALRasterBandSaIS1_EE14_M_fill_insertEN9__gnu_cxx17__normal_iteratorIPS1_S3_EEmRKS1_@GDAL_1.8 1.10.1 1
 _ZNSt6vectorIP14OGRFeatureDefnSaIS1_EE14_M_fill_insertEN9__gnu_cxx17__normal_iteratorIPS1_S3_EEmRKS1_@GDAL_1.8 1.11.0 1
 _ZNSt6vectorIP15GMLFeatureClassSaIS1_EE13_M_insert_auxEN9__gnu_cxx17__normal_iteratorIPS1_S3_EERKS1_@GDAL_1.8 1.8.0 1
 _ZNSt6vectorIP16VFKFeatureSQLiteSaIS1_EE13_M_insert_auxEN9__gnu_cxx17__normal_iteratorIPS1_S3_EERKS1_@GDAL_1.8 1.10.1 1
 _ZNSt6vectorIP19OGRSpatialReferenceSaIS1_EE13_M_insert_auxEN9__gnu_cxx17__normal_iteratorIPS1_S3_EERKS1_@GDAL_1.8 1.9.0 1
 _ZNSt6vectorIP8OGRLayerSaIS1_EE13_M_insert_auxEN9__gnu_cxx17__normal_iteratorIPS1_S3_EERKS1_@GDAL_1.8 1.8.0 1
 _ZNSt6vectorIPKS_ISt4pairIddESaIS1_EESaIS5_EE13_M_insert_auxEN9__gnu_cxx17__normal_iteratorIPS5_S7_EERKS5_@GDAL_1.8 1.9.0 1
 _ZNSt6vectorIPPcSaIS1_EE14_M_fill_insertEN9__gnu_cxx17__normal_iteratorIPS1_S3_EEmRKS1_@GDAL_1.8 1.9.0 1
 _ZNSt6vectorIPS_I8OGRPointSaIS0_EESaIS3_EE13_M_insert_auxEN9__gnu_cxx17__normal_iteratorIPS3_S5_EERKS3_@GDAL_1.8 1.8.0 1
 _ZNSt6vectorIPcSaIS0_EE13_M_insert_auxEN9__gnu_cxx17__normal_iteratorIPS0_S2_EERKS0_@GDAL_1.8 1.8.0 1
 _ZNSt6vectorIPcSaIS0_EE9push_backERKS0_@GDAL_1.8 1.10.1 1
 _ZNSt6vectorIPhSaIS0_EE13_M_insert_auxEN9__gnu_cxx17__normal_iteratorIPS0_S2_EERKS0_@GDAL_1.8 1.8.0 1
 _ZNSt6vectorIS_ISt4pairIddESaIS1_EESaIS3_EE13_M_insert_auxEN9__gnu_cxx17__normal_iteratorIPS3_S5_EERKS3_@GDAL_1.8 1.9.0 1
 _ZNSt6vectorIS_IiSaIiEESaIS1_EE14_M_fill_insertEN9__gnu_cxx17__normal_iteratorIPS1_S3_EEmRKS1_@GDAL_1.8 1.9.0 1
 _ZNSt6vectorIS_IiSaIiEESaIS1_EED1Ev@GDAL_1.8 1.9.0 1
 _ZNSt6vectorIS_IiSaIiEESaIS1_EED2Ev@GDAL_1.8 1.9.0 1
 _ZNSt6vectorIS_IySaIyEESaIS1_EE14_M_fill_insertEN9__gnu_cxx17__normal_iteratorIPS1_S3_EEmRKS1_@GDAL_1.8 1.9.0 1
 _ZNSt6vectorIS_IySaIyEESaIS1_EED1Ev@GDAL_1.8 1.9.0 1
 _ZNSt6vectorIS_IySaIyEESaIS1_EED2Ev@GDAL_1.8 1.9.0 1
 _ZNSt6vectorISt4pairI9CPLStringS1_ESaIS2_EE13_M_insert_auxEN9__gnu_cxx17__normal_iteratorIPS2_S4_EERKS2_@GDAL_1.8 1.9.0 1
 _ZNSt6vectorISt4pairI9CPLStringS1_ESaIS2_EE14_M_fill_insertEN9__gnu_cxx17__normal_iteratorIPS2_S4_EEmRKS2_@GDAL_1.8 1.10.1 1
 _ZNSt6vectorISt4pairI9CPLStringS1_ESaIS2_EE9push_backERKS2_@GDAL_1.8 1.9.0 1
 _ZNSt6vectorISt4pairI9CPLStringS1_ESaIS2_EED1Ev@GDAL_1.8 1.9.0 1
 _ZNSt6vectorISt4pairI9CPLStringS1_ESaIS2_EED2Ev@GDAL_1.8 1.9.0 1
 _ZNSt6vectorISt4pairI9CPLStringS1_ESaIS2_EEaSERKS4_@GDAL_1.8 1.9.0 1
 _ZNSt6vectorISt4pairI9CPLStringS_IS1_SaIS1_EEESaIS4_EE13_M_insert_auxEN9__gnu_cxx17__normal_iteratorIPS4_S6_EERKS4_@GDAL_1.8 1.9.0 1
 _ZNSt6vectorISt4pairI9CPLStringS_IS1_SaIS1_EEESaIS4_EED1Ev@GDAL_1.8 1.9.0 1
 _ZNSt6vectorISt4pairI9CPLStringS_IS1_SaIS1_EEESaIS4_EED2Ev@GDAL_1.8 1.9.0 1
 _ZNSt6vectorISt4pairINSt7__cxx1112basic_stringIcSt11char_traitsIcESaIcEEEdESaIS7_EE13_M_insert_auxEN9__gnu_cxx17__normal_iteratorIPS7_S9_EERKS7_@GDAL_1.8 1.11.2 1
 _ZNSt6vectorISt4pairIddESaIS1_EE13_M_insert_auxEN9__gnu_cxx17__normal_iteratorIPS1_S3_EERKS1_@GDAL_1.8 1.9.0 1
 _ZNSt6vectorISt4pairIddESaIS1_EE14_M_fill_insertEN9__gnu_cxx17__normal_iteratorIPS1_S3_EEmRKS1_@GDAL_1.8 1.10.1 1
 _ZNSt6vectorISt4pairIddESaIS1_EEC1ERKS3_@GDAL_1.8 1.10.1 1
 _ZNSt6vectorISt4pairIddESaIS1_EEC2ERKS3_@GDAL_1.8 1.10.1 1
 _ZNSt6vectorISt4pairIddESaIS1_EEaSERKS3_@GDAL_1.8 1.9.0 1
 _ZNSt6vectorISt4pairIiiESaIS1_EE13_M_insert_auxEN9__gnu_cxx17__normal_iteratorIPS1_S3_EERKS1_@GDAL_1.8 1.11.2 1
 _ZNSt6vectorISt4pairIiiESaIS1_EEaSERKS3_@GDAL_1.8 1.11.2 1
 _ZNSt6vectorIbSaIbEE14_M_fill_insertESt13_Bit_iteratormb@GDAL_1.8 1.9.0 1
 _ZNSt6vectorIdSaIdEE13_M_insert_auxEN9__gnu_cxx17__normal_iteratorIPdS1_EERKd@GDAL_1.8 1.8.0 1
 _ZNSt6vectorIdSaIdEE14_M_fill_insertEN9__gnu_cxx17__normal_iteratorIPdS1_EEmRKd@GDAL_1.8 1.9.0 1
 _ZNSt6vectorIdSaIdEE7reserveEm@GDAL_1.8 1.9.0 1
 _ZNSt6vectorIdSaIdEE9push_backERKd@GDAL_1.8 1.10.1 1
 _ZNSt6vectorIdSaIdEEaSERKS1_@GDAL_1.8 1.8.0 1
 _ZNSt6vectorIhSaIhEE14_M_fill_insertEN9__gnu_cxx17__normal_iteratorIPhS1_EEmRKh@GDAL_1.8 1.9.0 1
 _ZNSt6vectorIiSaIiEE13_M_insert_auxEN9__gnu_cxx17__normal_iteratorIPiS1_EERKi@GDAL_1.8 1.8.0 1
 _ZNSt6vectorIiSaIiEE14_M_fill_insertEN9__gnu_cxx17__normal_iteratorIPiS1_EEmRKi@GDAL_1.8 1.9.0 1
 _ZNSt6vectorIiSaIiEEaSERKS1_@GDAL_1.8 1.8.0 1
 _ZNSt6vectorIjSaIjEE13_M_insert_auxEN9__gnu_cxx17__normal_iteratorIPjS1_EERKj@GDAL_1.8 1.8.0 1
 _ZNSt6vectorIjSaIjEE14_M_fill_insertEN9__gnu_cxx17__normal_iteratorIPjS1_EEmRKj@GDAL_1.8 1.9.0 1
 _ZNSt6vectorIjSaIjEE6insertEN9__gnu_cxx17__normal_iteratorIPjS1_EERKj@GDAL_1.8 1.8.0 1
 _ZNSt6vectorIjSaIjEEaSERKS1_@GDAL_1.8 1.9.0 1
 _ZNSt6vectorIlSaIlEE13_M_insert_auxEN9__gnu_cxx17__normal_iteratorIPlS1_EERKl@GDAL_1.8 1.11.0 1
 _ZNSt6vectorItSaItEE13_M_insert_auxEN9__gnu_cxx17__normal_iteratorIPtS1_EERKt@GDAL_1.8 1.8.0 1
 _ZNSt6vectorItSaItEE14_M_fill_insertEN9__gnu_cxx17__normal_iteratorIPtS1_EEmRKt@GDAL_1.8 1.9.0 1
 _ZNSt6vectorItSaItEE6resizeEmt@GDAL_1.8 1.9.0 1
 _ZNSt6vectorIySaIyEE13_M_insert_auxEN9__gnu_cxx17__normal_iteratorIPyS1_EERKy@GDAL_1.8 1.8.0 1
 _ZNSt6vectorIySaIyEE14_M_fill_insertEN9__gnu_cxx17__normal_iteratorIPyS1_EEmRKy@GDAL_1.8 1.9.0 1
 _ZNSt6vectorIySaIyEEaSERKS1_@GDAL_1.8 1.9.0 1
 _ZNSt7__cxx1110_List_baseINS_12basic_stringIcSt11char_traitsIcESaIcEEESaIS5_EE8_M_clearEv@GDAL_1.8 1.11.2 1
 _ZNSt7__cxx1115basic_stringbufIcSt11char_traitsIcESaIcEED0Ev@GDAL_1.8 1.11.2 1
 _ZNSt7__cxx1115basic_stringbufIcSt11char_traitsIcESaIcEED1Ev@GDAL_1.8 1.11.2 1
 _ZNSt7__cxx1115basic_stringbufIcSt11char_traitsIcESaIcEED2Ev@GDAL_1.8 1.11.2 1
 _ZNSt7__cxx114listINS_12basic_stringIcSt11char_traitsIcESaIcEEESaIS5_EE4sortEv@GDAL_1.8 1.11.2 1
 _ZNSt7__cxx114listINS_12basic_stringIcSt11char_traitsIcESaIcEEESaIS5_EE5mergeERS7_@GDAL_1.8 1.11.2 1
 _ZNSt7__cxx114listINS_12basic_stringIcSt11char_traitsIcESaIcEEESaIS5_EE6uniqueEv@GDAL_1.8 1.11.2 1
 _ZNSt7__cxx114listIP8OGRLayerSaIS2_EEaSERKS4_@GDAL_1.8 1.11.2 1
 _ZNSt8_Rb_treeI9CPLStringS0_St9_IdentityIS0_ESt4lessIS0_ESaIS0_EE16_M_insert_uniqueERKS0_@GDAL_1.8 1.8.0 1
 _ZNSt8_Rb_treeI9CPLStringS0_St9_IdentityIS0_ESt4lessIS0_ESaIS0_EE4findERKS0_@GDAL_1.8 1.10.1 1
 _ZNSt8_Rb_treeI9CPLStringS0_St9_IdentityIS0_ESt4lessIS0_ESaIS0_EE7_M_copyINS6_11_Alloc_nodeEEEPSt13_Rb_tree_nodeIS0_EPKSA_SB_RT_@GDAL_1.8 1.11.2 1
 _ZNSt8_Rb_treeI9CPLStringS0_St9_IdentityIS0_ESt4lessIS0_ESaIS0_EE8_M_eraseEPSt13_Rb_tree_nodeIS0_E@GDAL_1.8 1.8.0 1
 _ZNSt8_Rb_treeI9CPLStringSt4pairIKS0_11OGREnvelopeESt10_Select1stIS4_ESt4lessIS0_ESaIS4_EE24_M_get_insert_unique_posERS2_@GDAL_1.8 1.10.1 1
 _ZNSt8_Rb_treeI9CPLStringSt4pairIKS0_11OGREnvelopeESt10_Select1stIS4_ESt4lessIS0_ESaIS4_EE29_M_get_insert_hint_unique_posESt23_Rb_tree_const_iteratorIS4_ERS2_@GDAL_1.8 1.10.1 1
 _ZNSt8_Rb_treeI9CPLStringSt4pairIKS0_11OGREnvelopeESt10_Select1stIS4_ESt4lessIS0_ESaIS4_EE8_M_eraseEPSt13_Rb_tree_nodeIS4_E@GDAL_1.8 1.10.1 1
 _ZNSt8_Rb_treeI9CPLStringSt4pairIKS0_P8OGRLayerESt10_Select1stIS5_ESt4lessIS0_ESaIS5_EE24_M_get_insert_unique_posERS2_@GDAL_1.8 1.10.1 1
 _ZNSt8_Rb_treeI9CPLStringSt4pairIKS0_P8OGRLayerESt10_Select1stIS5_ESt4lessIS0_ESaIS5_EE29_M_get_insert_hint_unique_posESt23_Rb_tree_const_iteratorIS5_ERS2_@GDAL_1.8 1.10.1 1
 _ZNSt8_Rb_treeI9CPLStringSt4pairIKS0_P8OGRLayerESt10_Select1stIS5_ESt4lessIS0_ESaIS5_EE8_M_eraseEPSt13_Rb_tree_nodeIS5_E@GDAL_1.8 1.10.1 1
 _ZNSt8_Rb_treeI9CPLStringSt4pairIKS0_PF6CPLErrPPviS4_ii12GDALDataTypeS6_iiEESt10_Select1stIS9_ESt4lessIS0_ESaIS9_EE24_M_get_insert_unique_posERS2_@GDAL_1.8 1.10.1 1
 _ZNSt8_Rb_treeI9CPLStringSt4pairIKS0_PF6CPLErrPPviS4_ii12GDALDataTypeS6_iiEESt10_Select1stIS9_ESt4lessIS0_ESaIS9_EE29_M_get_insert_hint_unique_posESt23_Rb_tree_const_iteratorIS9_ERS2_@GDAL_1.8 1.10.1 1
 _ZNSt8_Rb_treeI9CPLStringSt4pairIKS0_PF6CPLErrPPviS4_ii12GDALDataTypeS6_iiEESt10_Select1stIS9_ESt4lessIS0_ESaIS9_EE8_M_eraseEPSt13_Rb_tree_nodeIS9_E@GDAL_1.8 1.9.0 1
 _ZNSt8_Rb_treeI9CPLStringSt4pairIKS0_PPcESt10_Select1stIS5_ESt4lessIS0_ESaIS5_EE12_M_erase_auxESt23_Rb_tree_const_iteratorIS5_E@GDAL_1.8 1.10.1 1
 _ZNSt8_Rb_treeI9CPLStringSt4pairIKS0_PPcESt10_Select1stIS5_ESt4lessIS0_ESaIS5_EE24_M_get_insert_unique_posERS2_@GDAL_1.8 1.10.1 1
 _ZNSt8_Rb_treeI9CPLStringSt4pairIKS0_PPcESt10_Select1stIS5_ESt4lessIS0_ESaIS5_EE29_M_get_insert_hint_unique_posESt23_Rb_tree_const_iteratorIS5_ERS2_@GDAL_1.8 1.10.1 1
 _ZNSt8_Rb_treeI9CPLStringSt4pairIKS0_PPcESt10_Select1stIS5_ESt4lessIS0_ESaIS5_EE4findERS2_@GDAL_1.8 1.10.1 1
 _ZNSt8_Rb_treeI9CPLStringSt4pairIKS0_PPcESt10_Select1stIS5_ESt4lessIS0_ESaIS5_EE8_M_eraseEPSt13_Rb_tree_nodeIS5_E@GDAL_1.8 1.9.0 1
 _ZNSt8_Rb_treeI9CPLStringSt4pairIKS0_PvESt10_Select1stIS4_ESt4lessIS0_ESaIS4_EE24_M_get_insert_unique_posERS2_@GDAL_1.8 1.10.1 1
 _ZNSt8_Rb_treeI9CPLStringSt4pairIKS0_PvESt10_Select1stIS4_ESt4lessIS0_ESaIS4_EE29_M_get_insert_hint_unique_posESt23_Rb_tree_const_iteratorIS4_ERS2_@GDAL_1.8 1.10.1 1
 _ZNSt8_Rb_treeI9CPLStringSt4pairIKS0_PvESt10_Select1stIS4_ESt4lessIS0_ESaIS4_EE8_M_eraseEPSt13_Rb_tree_nodeIS4_E@GDAL_1.8 1.8.0 1
 _ZNSt8_Rb_treeI9CPLStringSt4pairIKS0_S0_ESt10_Select1stIS3_ESt4lessIS0_ESaIS3_EE24_M_get_insert_unique_posERS2_@GDAL_1.8 1.10.1 1
 _ZNSt8_Rb_treeI9CPLStringSt4pairIKS0_S0_ESt10_Select1stIS3_ESt4lessIS0_ESaIS3_EE29_M_get_insert_hint_unique_posESt23_Rb_tree_const_iteratorIS3_ERS2_@GDAL_1.8 1.10.1 1
 _ZNSt8_Rb_treeI9CPLStringSt4pairIKS0_S0_ESt10_Select1stIS3_ESt4lessIS0_ESaIS3_EE4findERS2_@GDAL_1.8 1.10.1 1
 _ZNSt8_Rb_treeI9CPLStringSt4pairIKS0_S0_ESt10_Select1stIS3_ESt4lessIS0_ESaIS3_EE7_M_copyINS9_11_Alloc_nodeEEEPSt13_Rb_tree_nodeIS3_EPKSD_SE_RT_@GDAL_1.8 1.11.2 1
 _ZNSt8_Rb_treeI9CPLStringSt4pairIKS0_S0_ESt10_Select1stIS3_ESt4lessIS0_ESaIS3_EE7_M_copyINS9_20_Reuse_or_alloc_nodeEEEPSt13_Rb_tree_nodeIS3_EPKSD_SE_RT_@GDAL_1.8 1.11.2 1
 _ZNSt8_Rb_treeI9CPLStringSt4pairIKS0_S0_ESt10_Select1stIS3_ESt4lessIS0_ESaIS3_EE8_M_eraseEPSt13_Rb_tree_nodeIS3_E@GDAL_1.8 1.8.0 1
 _ZNSt8_Rb_treeI9CPLStringSt4pairIKS0_S1_IddEESt10_Select1stIS4_ESt4lessIS0_ESaIS4_EE24_M_get_insert_unique_posERS2_@GDAL_1.8 1.10.1 1
 _ZNSt8_Rb_treeI9CPLStringSt4pairIKS0_S1_IddEESt10_Select1stIS4_ESt4lessIS0_ESaIS4_EE29_M_get_insert_hint_unique_posESt23_Rb_tree_const_iteratorIS4_ERS2_@GDAL_1.8 1.10.1 1
 _ZNSt8_Rb_treeI9CPLStringSt4pairIKS0_S1_IddEESt10_Select1stIS4_ESt4lessIS0_ESaIS4_EE8_M_eraseEPSt13_Rb_tree_nodeIS4_E@GDAL_1.8 1.9.0 1
 _ZNSt8_Rb_treeI9CPLStringSt4pairIKS0_S1_IiiEESt10_Select1stIS4_ESt4lessIS0_ESaIS4_EE24_M_get_insert_unique_posERS2_@GDAL_1.8 1.10.1 1
 _ZNSt8_Rb_treeI9CPLStringSt4pairIKS0_S1_IiiEESt10_Select1stIS4_ESt4lessIS0_ESaIS4_EE29_M_get_insert_hint_unique_posESt23_Rb_tree_const_iteratorIS4_ERS2_@GDAL_1.8 1.10.1 1
 _ZNSt8_Rb_treeI9CPLStringSt4pairIKS0_S1_IiiEESt10_Select1stIS4_ESt4lessIS0_ESaIS4_EE8_M_eraseEPSt13_Rb_tree_nodeIS4_E@GDAL_1.8 1.9.0 1
 _ZNSt8_Rb_treeI9CPLStringSt4pairIKS0_St3mapIS0_S0_St4lessIS0_ESaIS1_IS2_S0_EEEESt10_Select1stIS9_ES5_SaIS9_EE24_M_get_insert_unique_posERS2_@GDAL_1.8 1.10.1 1
 _ZNSt8_Rb_treeI9CPLStringSt4pairIKS0_St3mapIS0_S0_St4lessIS0_ESaIS1_IS2_S0_EEEESt10_Select1stIS9_ES5_SaIS9_EE29_M_get_insert_hint_unique_posESt23_Rb_tree_const_iteratorIS9_ERS2_@GDAL_1.8 1.10.1 1
 _ZNSt8_Rb_treeI9CPLStringSt4pairIKS0_St3mapIS0_S0_St4lessIS0_ESaIS1_IS2_S0_EEEESt10_Select1stIS9_ES5_SaIS9_EE8_M_eraseEPSt13_Rb_tree_nodeIS9_E@GDAL_1.8 1.8.0 1
 _ZNSt8_Rb_treeI9CPLStringSt4pairIKS0_St3setIS0_St4lessIS0_ESaIS0_EEESt10_Select1stIS8_ES5_SaIS8_EE24_M_get_insert_unique_posERS2_@GDAL_1.8 1.10.1 1
 _ZNSt8_Rb_treeI9CPLStringSt4pairIKS0_St3setIS0_St4lessIS0_ESaIS0_EEESt10_Select1stIS8_ES5_SaIS8_EE29_M_get_insert_hint_unique_posESt23_Rb_tree_const_iteratorIS8_ERS2_@GDAL_1.8 1.10.1 1
 _ZNSt8_Rb_treeI9CPLStringSt4pairIKS0_St3setIS0_St4lessIS0_ESaIS0_EEESt10_Select1stIS8_ES5_SaIS8_EE8_M_eraseEPSt13_Rb_tree_nodeIS8_E@GDAL_1.8 1.10.1 1
 _ZNSt8_Rb_treeI9CPLStringSt4pairIKS0_St6vectorIS0_SaIS0_EEESt10_Select1stIS6_ESt4lessIS0_ESaIS6_EE24_M_get_insert_unique_posERS2_@GDAL_1.8 1.10.1 1
 _ZNSt8_Rb_treeI9CPLStringSt4pairIKS0_St6vectorIS0_SaIS0_EEESt10_Select1stIS6_ESt4lessIS0_ESaIS6_EE29_M_get_insert_hint_unique_posESt23_Rb_tree_const_iteratorIS6_ERS2_@GDAL_1.8 1.10.1 1
 _ZNSt8_Rb_treeI9CPLStringSt4pairIKS0_St6vectorIS0_SaIS0_EEESt10_Select1stIS6_ESt4lessIS0_ESaIS6_EE4findERS2_@GDAL_1.8 1.10.1 1
 _ZNSt8_Rb_treeI9CPLStringSt4pairIKS0_St6vectorIS0_SaIS0_EEESt10_Select1stIS6_ESt4lessIS0_ESaIS6_EE8_M_eraseEPSt13_Rb_tree_nodeIS6_E@GDAL_1.8 1.9.0 1
 _ZNSt8_Rb_treeI9CPLStringSt4pairIKS0_St6vectorIS1_IddESaIS4_EEESt10_Select1stIS7_ESt4lessIS0_ESaIS7_EE24_M_get_insert_unique_posERS2_@GDAL_1.8 1.10.1 1
 _ZNSt8_Rb_treeI9CPLStringSt4pairIKS0_St6vectorIS1_IddESaIS4_EEESt10_Select1stIS7_ESt4lessIS0_ESaIS7_EE29_M_get_insert_hint_unique_posESt23_Rb_tree_const_iteratorIS7_ERS2_@GDAL_1.8 1.10.1 1
 _ZNSt8_Rb_treeI9CPLStringSt4pairIKS0_St6vectorIS1_IddESaIS4_EEESt10_Select1stIS7_ESt4lessIS0_ESaIS7_EE4findERS2_@GDAL_1.8 1.10.1 1
 _ZNSt8_Rb_treeI9CPLStringSt4pairIKS0_St6vectorIS1_IddESaIS4_EEESt10_Select1stIS7_ESt4lessIS0_ESaIS7_EE8_M_eraseEPSt13_Rb_tree_nodeIS7_E@GDAL_1.8 1.9.0 1
 _ZNSt8_Rb_treeI9CPLStringSt4pairIKS0_iESt10_Select1stIS3_ESt4lessIS0_ESaIS3_EE24_M_get_insert_unique_posERS2_@GDAL_1.8 1.10.1 1
 _ZNSt8_Rb_treeI9CPLStringSt4pairIKS0_iESt10_Select1stIS3_ESt4lessIS0_ESaIS3_EE29_M_get_insert_hint_unique_posESt23_Rb_tree_const_iteratorIS3_ERS2_@GDAL_1.8 1.10.1 1
 _ZNSt8_Rb_treeI9CPLStringSt4pairIKS0_iESt10_Select1stIS3_ESt4lessIS0_ESaIS3_EE4findERS2_@GDAL_1.8 1.10.1 1
 _ZNSt8_Rb_treeI9CPLStringSt4pairIKS0_iESt10_Select1stIS3_ESt4lessIS0_ESaIS3_EE8_M_eraseEPSt13_Rb_tree_nodeIS3_E@GDAL_1.8 1.8.0 1
 _ZNSt8_Rb_treeINSt7__cxx1112basic_stringIcSt11char_traitsIcESaIcEEES5_St9_IdentityIS5_ESt4lessIS5_ESaIS5_EE16_M_insert_uniqueERKS5_@GDAL_1.8 1.11.2 1
 _ZNSt8_Rb_treeINSt7__cxx1112basic_stringIcSt11char_traitsIcESaIcEEES5_St9_IdentityIS5_ESt4lessIS5_ESaIS5_EE8_M_eraseEPSt13_Rb_tree_nodeIS5_E@GDAL_1.8 1.11.2 1
 _ZNSt8_Rb_treeINSt7__cxx1112basic_stringIcSt11char_traitsIcESaIcEEESt4pairIKS5_P20VSIFilesystemHandlerESt10_Select1stISA_ESt4lessIS5_ESaISA_EE24_M_get_insert_unique_posERS7_@GDAL_1.8 1.11.2 1
 _ZNSt8_Rb_treeINSt7__cxx1112basic_stringIcSt11char_traitsIcESaIcEEESt4pairIKS5_P20VSIFilesystemHandlerESt10_Select1stISA_ESt4lessIS5_ESaISA_EE29_M_get_insert_hint_unique_posESt23_Rb_tree_const_iteratorISA_ERS7_@GDAL_1.8 1.11.2 1
 _ZNSt8_Rb_treeINSt7__cxx1112basic_stringIcSt11char_traitsIcESaIcEEESt4pairIKS5_P20VSIFilesystemHandlerESt10_Select1stISA_ESt4lessIS5_ESaISA_EE8_M_eraseEPSt13_Rb_tree_nodeISA_E@GDAL_1.8 1.11.2 1
 _ZNSt8_Rb_treeINSt7__cxx1112basic_stringIcSt11char_traitsIcESaIcEEESt4pairIKS5_PSt3mapIS5_S5_St4lessIS5_ESaIS6_IS7_S5_EEEESt10_Select1stISF_ESA_SaISF_EE24_M_get_insert_unique_posERS7_@GDAL_1.8 1.11.2 1
 _ZNSt8_Rb_treeINSt7__cxx1112basic_stringIcSt11char_traitsIcESaIcEEESt4pairIKS5_PSt3mapIS5_S5_St4lessIS5_ESaIS6_IS7_S5_EEEESt10_Select1stISF_ESA_SaISF_EE29_M_get_insert_hint_unique_posESt23_Rb_tree_const_iteratorISF_ERS7_@GDAL_1.8 1.11.2 1
 _ZNSt8_Rb_treeINSt7__cxx1112basic_stringIcSt11char_traitsIcESaIcEEESt4pairIKS5_PSt3mapIS5_S5_St4lessIS5_ESaIS6_IS7_S5_EEEESt10_Select1stISF_ESA_SaISF_EE4findERS7_@GDAL_1.8 1.11.2 1
 _ZNSt8_Rb_treeINSt7__cxx1112basic_stringIcSt11char_traitsIcESaIcEEESt4pairIKS5_PSt3mapIS5_S5_St4lessIS5_ESaIS6_IS7_S5_EEEESt10_Select1stISF_ESA_SaISF_EE8_M_eraseEPSt13_Rb_tree_nodeISF_E@GDAL_1.8 1.11.2 1
 _ZNSt8_Rb_treeINSt7__cxx1112basic_stringIcSt11char_traitsIcESaIcEEESt4pairIKS5_S5_ESt10_Select1stIS8_ESt4lessIS5_ESaIS8_EE11equal_rangeERS7_@GDAL_1.8 1.11.2 1
 _ZNSt8_Rb_treeINSt7__cxx1112basic_stringIcSt11char_traitsIcESaIcEEESt4pairIKS5_S5_ESt10_Select1stIS8_ESt4lessIS5_ESaIS8_EE24_M_get_insert_unique_posERS7_@GDAL_1.8 1.11.2 1
 _ZNSt8_Rb_treeINSt7__cxx1112basic_stringIcSt11char_traitsIcESaIcEEESt4pairIKS5_S5_ESt10_Select1stIS8_ESt4lessIS5_ESaIS8_EE29_M_get_insert_hint_unique_posESt23_Rb_tree_const_iteratorIS8_ERS7_@GDAL_1.8 1.11.2 1
 _ZNSt8_Rb_treeINSt7__cxx1112basic_stringIcSt11char_traitsIcESaIcEEESt4pairIKS5_S5_ESt10_Select1stIS8_ESt4lessIS5_ESaIS8_EE8_M_eraseEPSt13_Rb_tree_nodeIS8_E@GDAL_1.8 1.11.2 1
 _ZNSt8_Rb_treeINSt7__cxx1112basic_stringIcSt11char_traitsIcESaIcEEESt4pairIKS5_dESt10_Select1stIS8_ESt4lessIS5_ESaIS8_EE24_M_get_insert_unique_posERS7_@GDAL_1.8 1.11.2 1
 _ZNSt8_Rb_treeINSt7__cxx1112basic_stringIcSt11char_traitsIcESaIcEEESt4pairIKS5_dESt10_Select1stIS8_ESt4lessIS5_ESaIS8_EE29_M_get_insert_hint_unique_posESt23_Rb_tree_const_iteratorIS8_ERS7_@GDAL_1.8 1.11.2 1
 _ZNSt8_Rb_treeINSt7__cxx1112basic_stringIcSt11char_traitsIcESaIcEEESt4pairIKS5_dESt10_Select1stIS8_ESt4lessIS5_ESaIS8_EE4findERS7_@GDAL_1.8 1.11.2 1
 _ZNSt8_Rb_treeINSt7__cxx1112basic_stringIcSt11char_traitsIcESaIcEEESt4pairIKS5_dESt10_Select1stIS8_ESt4lessIS5_ESaIS8_EE8_M_eraseEPSt13_Rb_tree_nodeIS8_E@GDAL_1.8 1.11.2 1
 _ZNSt8_Rb_treeINSt7__cxx1112basic_stringIcSt11char_traitsIcESaIcEEESt4pairIKS5_iESt10_Select1stIS8_ESt4lessIS5_ESaIS8_EE24_M_get_insert_unique_posERS7_@GDAL_1.8 1.11.2 1
 _ZNSt8_Rb_treeINSt7__cxx1112basic_stringIcSt11char_traitsIcESaIcEEESt4pairIKS5_iESt10_Select1stIS8_ESt4lessIS5_ESaIS8_EE29_M_get_insert_hint_unique_posESt23_Rb_tree_const_iteratorIS8_ERS7_@GDAL_1.8 1.11.2 1
 _ZNSt8_Rb_treeINSt7__cxx1112basic_stringIcSt11char_traitsIcESaIcEEESt4pairIKS5_iESt10_Select1stIS8_ESt4lessIS5_ESaIS8_EE4findERS7_@GDAL_1.8 1.11.2 1
 _ZNSt8_Rb_treeINSt7__cxx1112basic_stringIcSt11char_traitsIcESaIcEEESt4pairIKS5_iESt10_Select1stIS8_ESt4lessIS5_ESaIS8_EE8_M_eraseEPSt13_Rb_tree_nodeIS8_E@GDAL_1.8 1.11.2 1
 _ZNSt8_Rb_treeIP8OGRLayerSt4pairIKS1_S1_ESt10_Select1stIS4_ESt4lessIS1_ESaIS4_EE24_M_get_insert_unique_posERS3_@GDAL_1.8 1.10.1 1
 _ZNSt8_Rb_treeIP8OGRLayerSt4pairIKS1_S1_ESt10_Select1stIS4_ESt4lessIS1_ESaIS4_EE29_M_get_insert_hint_unique_posESt23_Rb_tree_const_iteratorIS4_ERS3_@GDAL_1.8 1.10.1 1
 _ZNSt8_Rb_treeIP8OGRLayerSt4pairIKS1_S1_ESt10_Select1stIS4_ESt4lessIS1_ESaIS4_EE8_M_eraseEPSt13_Rb_tree_nodeIS4_E@GDAL_1.8 1.10.1 1
 _ZNSt8_Rb_treeISt4pairI9CPLStringS1_ES0_IKS2_PcESt10_Select1stIS5_ESt4lessIS2_ESaIS5_EE12_M_erase_auxESt23_Rb_tree_const_iteratorIS5_E@GDAL_1.8 1.10.1 1
 _ZNSt8_Rb_treeISt4pairI9CPLStringS1_ES0_IKS2_PcESt10_Select1stIS5_ESt4lessIS2_ESaIS5_EE24_M_get_insert_unique_posERS3_@GDAL_1.8 1.10.1 1
 _ZNSt8_Rb_treeISt4pairI9CPLStringS1_ES0_IKS2_PcESt10_Select1stIS5_ESt4lessIS2_ESaIS5_EE29_M_get_insert_hint_unique_posESt23_Rb_tree_const_iteratorIS5_ERS3_@GDAL_1.8 1.10.1 1
 _ZNSt8_Rb_treeISt4pairI9CPLStringS1_ES0_IKS2_PcESt10_Select1stIS5_ESt4lessIS2_ESaIS5_EE4findERS3_@GDAL_1.8 1.10.1 1
 _ZNSt8_Rb_treeISt4pairI9CPLStringS1_ES0_IKS2_PcESt10_Select1stIS5_ESt4lessIS2_ESaIS5_EE8_M_eraseEPSt13_Rb_tree_nodeIS5_E@GDAL_1.8 1.10.1 1
 _ZNSt8_Rb_treeISt4pairIddES0_IKS1_St6vectorIiSaIiEEESt10_Select1stIS6_ESt4lessIS1_ESaIS6_EE24_M_get_insert_unique_posERS2_@GDAL_1.8 1.11.0 1
 _ZNSt8_Rb_treeISt4pairIddES0_IKS1_St6vectorIiSaIiEEESt10_Select1stIS6_ESt4lessIS1_ESaIS6_EE29_M_get_insert_hint_unique_posESt23_Rb_tree_const_iteratorIS6_ERS2_@GDAL_1.8 1.11.0 1
 _ZNSt8_Rb_treeISt4pairIddES0_IKS1_St6vectorIiSaIiEEESt10_Select1stIS6_ESt4lessIS1_ESaIS6_EE8_M_eraseEPSt13_Rb_tree_nodeIS6_E@GDAL_1.8 1.11.0 1
 _ZNSt8_Rb_treeISt4pairIiiES0_IKS1_P27OGRCoordinateTransformationESt10_Select1stIS5_ESt4lessIS1_ESaIS5_EE24_M_get_insert_unique_posERS2_@GDAL_1.8 1.10.1 1
 _ZNSt8_Rb_treeISt4pairIiiES0_IKS1_P27OGRCoordinateTransformationESt10_Select1stIS5_ESt4lessIS1_ESaIS5_EE29_M_get_insert_hint_unique_posESt23_Rb_tree_const_iteratorIS5_ERS2_@GDAL_1.8 1.10.1 1
 _ZNSt8_Rb_treeISt4pairIiiES0_IKS1_P27OGRCoordinateTransformationESt10_Select1stIS5_ESt4lessIS1_ESaIS5_EE8_M_eraseEPSt13_Rb_tree_nodeIS5_E@GDAL_1.8 1.10.1 1
 _ZNSt8_Rb_treeISt4pairIiiES1_St9_IdentityIS1_ESt4lessIS1_ESaIS1_EE16_M_insert_uniqueERKS1_@GDAL_1.8 1.10.1 1
 _ZNSt8_Rb_treeISt4pairIiiES1_St9_IdentityIS1_ESt4lessIS1_ESaIS1_EE8_M_eraseEPSt13_Rb_tree_nodeIS1_E@GDAL_1.8 1.10.1 1
 _ZNSt8_Rb_treeIiSt4pairIKi12OGRFieldTypeESt10_Select1stIS3_ESt4lessIiESaIS3_EE24_M_get_insert_unique_posERS1_@GDAL_1.8 1.10.1 1
 _ZNSt8_Rb_treeIiSt4pairIKi12OGRFieldTypeESt10_Select1stIS3_ESt4lessIiESaIS3_EE29_M_get_insert_hint_unique_posESt23_Rb_tree_const_iteratorIS3_ERS1_@GDAL_1.8 1.10.1 1
 _ZNSt8_Rb_treeIiSt4pairIKi12OGRFieldTypeESt10_Select1stIS3_ESt4lessIiESaIS3_EE8_M_eraseEPSt13_Rb_tree_nodeIS3_E@GDAL_1.8 1.10.1 1
 _ZNSt8_Rb_treeIiSt4pairIKi9CPLStringESt10_Select1stIS3_ESt4lessIiESaIS3_EE24_M_get_insert_unique_posERS1_@GDAL_1.8 1.11.0 1
 _ZNSt8_Rb_treeIiSt4pairIKi9CPLStringESt10_Select1stIS3_ESt4lessIiESaIS3_EE29_M_get_insert_hint_unique_posESt23_Rb_tree_const_iteratorIS3_ERS1_@GDAL_1.8 1.11.0 1
 _ZNSt8_Rb_treeIiSt4pairIKi9CPLStringESt10_Select1stIS3_ESt4lessIiESaIS3_EE8_M_eraseEPSt13_Rb_tree_nodeIS3_E@GDAL_1.8 1.11.0 1
 _ZNSt8_Rb_treeIiSt4pairIKiP10OGRFeatureESt10_Select1stIS4_ESt4lessIiESaIS4_EE24_M_get_insert_unique_posERS1_@GDAL_1.8 1.11.0 1
 _ZNSt8_Rb_treeIiSt4pairIKiP10OGRFeatureESt10_Select1stIS4_ESt4lessIiESaIS4_EE29_M_get_insert_hint_unique_posESt23_Rb_tree_const_iteratorIS4_ERS1_@GDAL_1.8 1.11.0 1
 _ZNSt8_Rb_treeIiSt4pairIKiP10OGRFeatureESt10_Select1stIS4_ESt4lessIiESaIS4_EE8_M_eraseEPSt13_Rb_tree_nodeIS4_E@GDAL_1.8 1.11.0 1
 _ZNSt8_Rb_treeIiSt4pairIKiP11OGRGeometryESt10_Select1stIS4_ESt4lessIiESaIS4_EE24_M_get_insert_unique_posERS1_@GDAL_1.8 1.10.1 1
 _ZNSt8_Rb_treeIiSt4pairIKiP11OGRGeometryESt10_Select1stIS4_ESt4lessIiESaIS4_EE29_M_get_insert_hint_unique_posESt23_Rb_tree_const_iteratorIS4_ERS1_@GDAL_1.8 1.10.1 1
 _ZNSt8_Rb_treeIiSt4pairIKiP11OGRGeometryESt10_Select1stIS4_ESt4lessIiESaIS4_EE8_M_eraseEPSt13_Rb_tree_nodeIS4_E@GDAL_1.8 1.10.1 1
 _ZNSt8_Rb_treeIiSt4pairIKiP14GDALRasterBandESt10_Select1stIS4_ESt4lessIiESaIS4_EE24_M_get_insert_unique_posERS1_@GDAL_1.8 1.10.1 1
 _ZNSt8_Rb_treeIiSt4pairIKiP14GDALRasterBandESt10_Select1stIS4_ESt4lessIiESaIS4_EE29_M_get_insert_hint_unique_posESt23_Rb_tree_const_iteratorIS4_ERS1_@GDAL_1.8 1.10.1 1
 _ZNSt8_Rb_treeIiSt4pairIKiP14GDALRasterBandESt10_Select1stIS4_ESt4lessIiESaIS4_EE8_M_eraseEPSt13_Rb_tree_nodeIS4_E@GDAL_1.8 1.10.1 1
 _ZNSt8_Rb_treeIiSt4pairIKiiESt10_Select1stIS2_ESt4lessIiESaIS2_EE24_M_get_insert_unique_posERS1_@GDAL_1.8 1.10.1 1
 _ZNSt8_Rb_treeIiSt4pairIKiiESt10_Select1stIS2_ESt4lessIiESaIS2_EE29_M_get_insert_hint_unique_posESt23_Rb_tree_const_iteratorIS2_ERS1_@GDAL_1.8 1.10.1 1
 _ZNSt8_Rb_treeIiSt4pairIKiiESt10_Select1stIS2_ESt4lessIiESaIS2_EE5eraseERS1_@GDAL_1.8 1.11.2 1
 _ZNSt8_Rb_treeIiSt4pairIKiiESt10_Select1stIS2_ESt4lessIiESaIS2_EE8_M_eraseEPSt13_Rb_tree_nodeIS2_E@GDAL_1.8 1.8.0 1
 _ZNSt8_Rb_treeIiSt4pairIKijESt10_Select1stIS2_ESt4lessIiESaIS2_EE24_M_get_insert_unique_posERS1_@GDAL_1.8 1.10.1 1
 _ZNSt8_Rb_treeIiSt4pairIKijESt10_Select1stIS2_ESt4lessIiESaIS2_EE29_M_get_insert_hint_unique_posESt23_Rb_tree_const_iteratorIS2_ERS1_@GDAL_1.8 1.10.1 1
 _ZNSt8_Rb_treeIiSt4pairIKijESt10_Select1stIS2_ESt4lessIiESaIS2_EE8_M_eraseEPSt13_Rb_tree_nodeIS2_E@GDAL_1.8 1.8.0 1
 _ZNSt8_Rb_treeIiiSt9_IdentityIiESt4lessIiESaIiEE16_M_insert_uniqueERKi@GDAL_1.8 1.10.1 1
 _ZNSt8_Rb_treeIiiSt9_IdentityIiESt4lessIiESaIiEE8_M_eraseEPSt13_Rb_tree_nodeIiE@GDAL_1.8 1.10.1 1
 _ZNSt8_Rb_treeIjSt4pairIKj9CPLStringESt10_Select1stIS3_ESt4lessIjESaIS3_EE24_M_get_insert_unique_posERS1_@GDAL_1.8 1.11.0 1
 _ZNSt8_Rb_treeIjSt4pairIKj9CPLStringESt10_Select1stIS3_ESt4lessIjESaIS3_EE29_M_get_insert_hint_unique_posESt23_Rb_tree_const_iteratorIS3_ERS1_@GDAL_1.8 1.11.0 1
 _ZNSt8_Rb_treeIjSt4pairIKj9CPLStringESt10_Select1stIS3_ESt4lessIjESaIS3_EE8_M_eraseEPSt13_Rb_tree_nodeIS3_E@GDAL_1.8 1.11.0 1
 _ZNSt8_Rb_treeIlSt4pairIKlyESt10_Select1stIS2_ESt4lessIlESaIS2_EE24_M_get_insert_unique_posERS1_@GDAL_1.8 1.11.0 1
 _ZNSt8_Rb_treeIlSt4pairIKlyESt10_Select1stIS2_ESt4lessIlESaIS2_EE29_M_get_insert_hint_unique_posESt23_Rb_tree_const_iteratorIS2_ERS1_@GDAL_1.8 1.11.0 1
 _ZNSt8_Rb_treeIlSt4pairIKlyESt10_Select1stIS2_ESt4lessIlESaIS2_EE8_M_eraseEPSt13_Rb_tree_nodeIS2_E@GDAL_1.8 1.11.0 1
 _ZNSt8_Rb_treeIttSt9_IdentityItESt4lessItESaItEE16_M_insert_uniqueERKt@GDAL_1.8 1.11.0 1
 _ZNSt8_Rb_treeIttSt9_IdentityItESt4lessItESaItEE8_M_eraseEPSt13_Rb_tree_nodeItE@GDAL_1.8 1.11.0 1
 _ZNSt8_Rb_treeIxSt4pairIKxS0_IiPvEESt10_Select1stIS4_ESt4lessIxESaIS4_EE24_M_get_insert_unique_posERS1_@GDAL_1.8 1.10.1 1
 _ZNSt8_Rb_treeIxSt4pairIKxS0_IiPvEESt10_Select1stIS4_ESt4lessIxESaIS4_EE29_M_get_insert_hint_unique_posESt23_Rb_tree_const_iteratorIS4_ERS1_@GDAL_1.8 1.10.1 1
 _ZNSt8_Rb_treeIxSt4pairIKxS0_IiPvEESt10_Select1stIS4_ESt4lessIxESaIS4_EE8_M_eraseEPSt13_Rb_tree_nodeIS4_E@GDAL_1.8 1.10.1 1
 _ZNSt8_Rb_treeIxSt4pairIKxiESt10_Select1stIS2_ESt4lessIxESaIS2_EE24_M_get_insert_unique_posERS1_@GDAL_1.8 1.10.1 1
 _ZNSt8_Rb_treeIxSt4pairIKxiESt10_Select1stIS2_ESt4lessIxESaIS2_EE29_M_get_insert_hint_unique_posESt23_Rb_tree_const_iteratorIS2_ERS1_@GDAL_1.8 1.10.1 1
 _ZNSt8_Rb_treeIxSt4pairIKxiESt10_Select1stIS2_ESt4lessIxESaIS2_EE8_M_eraseEPSt13_Rb_tree_nodeIS2_E@GDAL_1.8 1.10.1 1
 _ZStltI9CPLStringS0_EbRKSt4pairIT_T0_ES6_@GDAL_1.8 1.11.2 1
 _ZStplIcSt11char_traitsIcESaIcEENSt7__cxx1112basic_stringIT_T0_T1_EEPKS5_RKS8_@GDAL_1.8 1.11.2 1
 _ZStplIcSt11char_traitsIcESaIcEENSt7__cxx1112basic_stringIT_T0_T1_EERKS8_PKS5_@GDAL_1.8 1.11.2 1
 _ZStplIcSt11char_traitsIcESaIcEENSt7__cxx1112basic_stringIT_T0_T1_EERKS8_SA_@GDAL_1.8 1.11.2 1
 _ZTI10AIGDataset@GDAL_1.8 1.8.0 1
 _ZTI10GDALDriver@GDAL_1.8 1.8.0 1
 _ZTI10HFADataset@GDAL_1.8 1.8.0 1
 _ZTI10IGMLReader@GDAL_1.8 1.8.0 1
 _ZTI10IVFKReader@GDAL_1.8 1.8.0 1
 _ZTI10MAPDataset@GDAL_1.8 1.10.1 1
 _ZTI10MEMDataset@GDAL_1.8 1.8.0 1
 _ZTI10OGRFeature@GDAL_1.8 1.8.0 1
 _ZTI10OGRPolygon@GDAL_1.8 1.8.0 1
 _ZTI10OGRSurface@GDAL_1.8 1.8.0 1
 _ZTI10RawDataset@GDAL_1.8 1.8.0 1
 _ZTI10TILDataset@GDAL_1.8 1.8.0 1
 _ZTI10VFKFeature@GDAL_1.8 1.10.1 1
 _ZTI10VRTDataset@GDAL_1.8 1.8.0 1
 _ZTI10WCSDataset@GDAL_1.8 1.8.0 1
 _ZTI11AAIGDataset@GDAL_1.8 1.8.0 1
 _ZTI11GDALDataset@GDAL_1.8 1.8.0 1
 _ZTI11IILI1Reader@GDAL_1.8 1.8.0 1
 _ZTI11IILI2Reader@GDAL_1.8 1.8.0 1
 _ZTI11IVFKFeature@GDAL_1.8 1.10.1 1
 _ZTI11OGDIDataset@GDAL_1.8 1.8.0 1
 _ZTI11OGRGeometry@GDAL_1.8 1.8.0 1
 _ZTI11OGRSFDriver@GDAL_1.8 1.8.0 1
 _ZTI11OGRStylePen@GDAL_1.8 1.8.0 1
 _ZTI11VFKProperty@GDAL_1.8 1.10.1 1
 _ZTI12OGRAttrIndex@GDAL_1.8 1.8.0 1
 _ZTI12OGRStyleTool@GDAL_1.8 1.8.0 1
 _ZTI12VFKDataBlock@GDAL_1.8 1.10.1 1
 _ZTI13IVFKDataBlock@GDAL_1.8 1.10.1 1
 _ZTI13MEMRasterBand@GDAL_1.8 1.8.0 1
 _ZTI13OGRDataSource@GDAL_1.8 1.8.0 1
 _ZTI13OGRLineString@GDAL_1.8 1.8.0 1
 _ZTI13OGRLinearRing@GDAL_1.8 1.8.0 1
 _ZTI13OGRMultiPoint@GDAL_1.8 1.8.0 1
 _ZTI13OGRStyleBrush@GDAL_1.8 1.8.0 1
 _ZTI13OGRStyleLabel@GDAL_1.8 1.8.0 1
 _ZTI13RawRasterBand@GDAL_1.8 1.8.0 1
 _ZTI13VRTRasterBand@GDAL_1.8 1.8.0 1
 _ZTI14GDALPamDataset@GDAL_1.8 1.8.0 1
 _ZTI14GDALRasterBand@GDAL_1.8 1.8.0 1
 _ZTI14GDALWarpKernel@GDAL_1.8 1.8.0 1
 _ZTI14OGRFeatureDefn@GDAL_1.8 1.8.0 1
 _ZTI14OGRStyleSymbol@GDAL_1.8 1.8.0 1
 _ZTI15GDALAsyncReader@GDAL_1.8 1.8.0 1
 _ZTI15GDALMajorObject@GDAL_1.8 1.8.0 1
 _ZTI15GDALRasterBlock@GDAL_1.8 1.8.0 1
 _ZTI15OGRMultiPolygon@GDAL_1.8 1.8.0 1
 _ZTI15OGRMutexedLayer@GDAL_1.8 1.11.0 1
 _ZTI15VFKPropertyDefn@GDAL_1.8 1.10.1 1
 _ZTI15VRTSimpleSource@GDAL_1.8 1.11.0 1
 _ZTI16GDALProxyDataset@GDAL_1.8 1.8.0 1
 _ZTI16OGRGeomFieldDefn@GDAL_1.8 1.11.0 1
 _ZTI16VFKFeatureSQLite@GDAL_1.8 1.10.1 1
 _ZTI16VRTComplexSource@GDAL_1.8 1.11.0 1
 _ZTI16VRTRawRasterBand@GDAL_1.8 1.8.0 1
 _ZTI16VRTWarpedDataset@GDAL_1.8 1.8.0 1
 _ZTI16VSIVirtualHandle@GDAL_1.8 1.8.0 1
 _ZTI17GDALDriverManager@GDAL_1.8 1.8.0 1
 _ZTI17GDALPamRasterBand@GDAL_1.8 1.8.0 1
 _ZTI17GDALWarpOperation@GDAL_1.8 1.8.0 1
 _ZTI17OGRLayerAttrIndex@GDAL_1.8 1.8.0 1
 _ZTI18GDALNoDataMaskBand@GDAL_1.8 1.8.0 1
 _ZTI18OGRMultiLineString@GDAL_1.8 1.8.0 1
 _ZTI18VFKDataBlockSQLite@GDAL_1.8 1.10.1 1
 _ZTI19GDALProxyRasterBand@GDAL_1.8 1.8.0 1
 _ZTI19OGRSpatialReference@GDAL_1.8 1.8.0 1
 _ZTI19VRTWarpedRasterBand@GDAL_1.8 1.8.0 1
 _ZTI20GDALAllValidMaskBand@GDAL_1.8 1.8.0 1
 _ZTI20GDALGeorefPamDataset@GDAL_1.8 1.11.0 1
 _ZTI20GDALProxyPoolDataset@GDAL_1.8 1.8.0 1
 _ZTI20OGRMutexedDataSource@GDAL_1.8 1.11.0 1
 _ZTI20VRTDerivedRasterBand@GDAL_1.8 1.8.0 1
 _ZTI20VRTSourcedRasterBand@GDAL_1.8 1.8.0 1
 _ZTI20VSIFilesystemHandler@GDAL_1.8 1.8.0 1
 _ZTI21OGRGenSQLResultsLayer@GDAL_1.8 1.8.0 1
 _ZTI21OGRGeometryCollection@GDAL_1.8 1.8.0 1
 _ZTI22GDALJP2AbstractDataset@GDAL_1.8 1.11.0 1
 _ZTI23GDALProxyPoolRasterBand@GDAL_1.8 1.8.0 1
 _ZTI24GDALNoDataValuesMaskBand@GDAL_1.8 1.8.0 1
 _ZTI24GDALRasterAttributeTable@GDAL_1.8 1.11.0 1
 _ZTI27OGRCoordinateTransformation@GDAL_1.8 1.8.0 1
 _ZTI31GDALDefaultRasterAttributeTable@GDAL_1.8 1.11.0 1
 _ZTI8OGRCurve@GDAL_1.8 1.8.0 1
 _ZTI8OGRLayer@GDAL_1.8 1.8.0 1
 _ZTI8OGRPoint@GDAL_1.8 1.8.0 1
 _ZTI9VRTSource@GDAL_1.8 1.11.0 1
 _ZTS10AIGDataset@GDAL_1.8 1.8.0 1
 _ZTS10GDALDriver@GDAL_1.8 1.8.0 1
 _ZTS10HFADataset@GDAL_1.8 1.8.0 1
 _ZTS10IGMLReader@GDAL_1.8 1.8.0 1
 _ZTS10IVFKReader@GDAL_1.8 1.8.0 1
 _ZTS10MAPDataset@GDAL_1.8 1.10.1 1
 _ZTS10MEMDataset@GDAL_1.8 1.8.0 1
 _ZTS10OGRFeature@GDAL_1.8 1.8.0 1
 _ZTS10OGRPolygon@GDAL_1.8 1.8.0 1
 _ZTS10OGRSurface@GDAL_1.8 1.8.0 1
 _ZTS10RawDataset@GDAL_1.8 1.8.0 1
 _ZTS10TILDataset@GDAL_1.8 1.8.0 1
 _ZTS10VFKFeature@GDAL_1.8 1.10.1 1
 _ZTS10VRTDataset@GDAL_1.8 1.8.0 1
 _ZTS10WCSDataset@GDAL_1.8 1.8.0 1
 _ZTS11AAIGDataset@GDAL_1.8 1.8.0 1
 _ZTS11GDALDataset@GDAL_1.8 1.8.0 1
 _ZTS11IILI1Reader@GDAL_1.8 1.8.0 1
 _ZTS11IILI2Reader@GDAL_1.8 1.8.0 1
 _ZTS11IVFKFeature@GDAL_1.8 1.10.1 1
 _ZTS11OGDIDataset@GDAL_1.8 1.8.0 1
 _ZTS11OGRGeometry@GDAL_1.8 1.8.0 1
 _ZTS11OGRSFDriver@GDAL_1.8 1.8.0 1
 _ZTS11OGRStylePen@GDAL_1.8 1.8.0 1
 _ZTS11VFKProperty@GDAL_1.8 1.10.1 1
 _ZTS12OGRAttrIndex@GDAL_1.8 1.8.0 1
 _ZTS12OGRStyleTool@GDAL_1.8 1.8.0 1
 _ZTS12VFKDataBlock@GDAL_1.8 1.10.1 1
 _ZTS13IVFKDataBlock@GDAL_1.8 1.10.1 1
 _ZTS13MEMRasterBand@GDAL_1.8 1.8.0 1
 _ZTS13OGRDataSource@GDAL_1.8 1.8.0 1
 _ZTS13OGRLineString@GDAL_1.8 1.8.0 1
 _ZTS13OGRLinearRing@GDAL_1.8 1.8.0 1
 _ZTS13OGRMultiPoint@GDAL_1.8 1.8.0 1
 _ZTS13OGRStyleBrush@GDAL_1.8 1.8.0 1
 _ZTS13OGRStyleLabel@GDAL_1.8 1.8.0 1
 _ZTS13RawRasterBand@GDAL_1.8 1.8.0 1
 _ZTS13VRTRasterBand@GDAL_1.8 1.8.0 1
 _ZTS14GDALPamDataset@GDAL_1.8 1.8.0 1
 _ZTS14GDALRasterBand@GDAL_1.8 1.8.0 1
 _ZTS14GDALWarpKernel@GDAL_1.8 1.8.0 1
 _ZTS14OGRFeatureDefn@GDAL_1.8 1.8.0 1
 _ZTS14OGRStyleSymbol@GDAL_1.8 1.8.0 1
 _ZTS15GDALAsyncReader@GDAL_1.8 1.8.0 1
 _ZTS15GDALMajorObject@GDAL_1.8 1.8.0 1
 _ZTS15GDALRasterBlock@GDAL_1.8 1.8.0 1
 _ZTS15OGRMultiPolygon@GDAL_1.8 1.8.0 1
 _ZTS15OGRMutexedLayer@GDAL_1.8 1.11.0 1
 _ZTS15VFKPropertyDefn@GDAL_1.8 1.10.1 1
 _ZTS15VRTSimpleSource@GDAL_1.8 1.11.0 1
 _ZTS16GDALProxyDataset@GDAL_1.8 1.8.0 1
 _ZTS16OGRGeomFieldDefn@GDAL_1.8 1.11.0 1
 _ZTS16VFKFeatureSQLite@GDAL_1.8 1.10.1 1
 _ZTS16VRTComplexSource@GDAL_1.8 1.11.0 1
 _ZTS16VRTRawRasterBand@GDAL_1.8 1.8.0 1
 _ZTS16VRTWarpedDataset@GDAL_1.8 1.8.0 1
 _ZTS16VSIVirtualHandle@GDAL_1.8 1.8.0 1
 _ZTS17GDALDriverManager@GDAL_1.8 1.8.0 1
 _ZTS17GDALPamRasterBand@GDAL_1.8 1.8.0 1
 _ZTS17GDALWarpOperation@GDAL_1.8 1.8.0 1
 _ZTS17OGRLayerAttrIndex@GDAL_1.8 1.8.0 1
 _ZTS18GDALNoDataMaskBand@GDAL_1.8 1.8.0 1
 _ZTS18OGRMultiLineString@GDAL_1.8 1.8.0 1
 _ZTS18VFKDataBlockSQLite@GDAL_1.8 1.10.1 1
 _ZTS19GDALProxyRasterBand@GDAL_1.8 1.8.0 1
 _ZTS19OGRSpatialReference@GDAL_1.8 1.8.0 1
 _ZTS19VRTWarpedRasterBand@GDAL_1.8 1.8.0 1
 _ZTS20GDALAllValidMaskBand@GDAL_1.8 1.8.0 1
 _ZTS20GDALGeorefPamDataset@GDAL_1.8 1.11.0 1
 _ZTS20GDALProxyPoolDataset@GDAL_1.8 1.8.0 1
 _ZTS20OGRMutexedDataSource@GDAL_1.8 1.11.0 1
 _ZTS20VRTDerivedRasterBand@GDAL_1.8 1.8.0 1
 _ZTS20VRTSourcedRasterBand@GDAL_1.8 1.8.0 1
 _ZTS20VSIFilesystemHandler@GDAL_1.8 1.8.0 1
 _ZTS21OGRGenSQLResultsLayer@GDAL_1.8 1.8.0 1
 _ZTS21OGRGeometryCollection@GDAL_1.8 1.8.0 1
 _ZTS22GDALJP2AbstractDataset@GDAL_1.8 1.11.0 1
 _ZTS23GDALProxyPoolRasterBand@GDAL_1.8 1.8.0 1
 _ZTS24GDALNoDataValuesMaskBand@GDAL_1.8 1.8.0 1
 _ZTS24GDALRasterAttributeTable@GDAL_1.8 1.11.0 1
 _ZTS27OGRCoordinateTransformation@GDAL_1.8 1.8.0 1
 _ZTS31GDALDefaultRasterAttributeTable@GDAL_1.8 1.11.0 1
 _ZTS8OGRCurve@GDAL_1.8 1.8.0 1
 _ZTS8OGRLayer@GDAL_1.8 1.8.0 1
 _ZTS8OGRPoint@GDAL_1.8 1.8.0 1
 _ZTS9VRTSource@GDAL_1.8 1.11.0 1
 _ZTV10AIGDataset@GDAL_1.8 1.8.0 1
 _ZTV10GDALDriver@GDAL_1.8 1.8.0 1
 _ZTV10HFADataset@GDAL_1.8 1.8.0 1
 _ZTV10IGMLReader@GDAL_1.8 1.8.0 1
 _ZTV10IVFKReader@GDAL_1.8 1.8.0 1
 _ZTV10MAPDataset@GDAL_1.8 1.10.1 1
 _ZTV10MEMDataset@GDAL_1.8 1.8.0 1
 _ZTV10OGRFeature@GDAL_1.8 1.8.0 1
 _ZTV10OGRPolygon@GDAL_1.8 1.8.0 1
 _ZTV10OGRSurface@GDAL_1.8 1.8.0 1
 _ZTV10RawDataset@GDAL_1.8 1.8.0 1
 _ZTV10TILDataset@GDAL_1.8 1.8.0 1
 _ZTV10VFKFeature@GDAL_1.8 1.10.1 1
 _ZTV10VRTDataset@GDAL_1.8 1.8.0 1
 _ZTV10WCSDataset@GDAL_1.8 1.8.0 1
 _ZTV11AAIGDataset@GDAL_1.8 1.8.0 1
 _ZTV11GDALDataset@GDAL_1.8 1.8.0 1
 _ZTV11IILI1Reader@GDAL_1.8 1.8.0 1
 _ZTV11IILI2Reader@GDAL_1.8 1.8.0 1
 _ZTV11IVFKFeature@GDAL_1.8 1.10.1 1
 _ZTV11OGDIDataset@GDAL_1.8 1.8.0 1
 _ZTV11OGRGeometry@GDAL_1.8 1.8.0 1
 _ZTV11OGRSFDriver@GDAL_1.8 1.8.0 1
 _ZTV11OGRStylePen@GDAL_1.8 1.8.0 1
 _ZTV11VFKProperty@GDAL_1.8 1.10.1 1
 _ZTV12OGRAttrIndex@GDAL_1.8 1.8.0 1
 _ZTV12OGRStyleTool@GDAL_1.8 1.8.0 1
 _ZTV12VFKDataBlock@GDAL_1.8 1.10.1 1
 _ZTV13IVFKDataBlock@GDAL_1.8 1.10.1 1
 _ZTV13MEMRasterBand@GDAL_1.8 1.8.0 1
 _ZTV13OGRDataSource@GDAL_1.8 1.8.0 1
 _ZTV13OGRLineString@GDAL_1.8 1.8.0 1
 _ZTV13OGRLinearRing@GDAL_1.8 1.8.0 1
 _ZTV13OGRMultiPoint@GDAL_1.8 1.8.0 1
 _ZTV13OGRStyleBrush@GDAL_1.8 1.8.0 1
 _ZTV13OGRStyleLabel@GDAL_1.8 1.8.0 1
 _ZTV13RawRasterBand@GDAL_1.8 1.8.0 1
 _ZTV13VRTRasterBand@GDAL_1.8 1.8.0 1
 _ZTV14GDALPamDataset@GDAL_1.8 1.8.0 1
 _ZTV14GDALRasterBand@GDAL_1.8 1.8.0 1
 _ZTV14GDALWarpKernel@GDAL_1.8 1.8.0 1
 _ZTV14OGRFeatureDefn@GDAL_1.8 1.8.0 1
 _ZTV14OGRStyleSymbol@GDAL_1.8 1.8.0 1
 _ZTV15GDALAsyncReader@GDAL_1.8 1.8.0 1
 _ZTV15GDALMajorObject@GDAL_1.8 1.8.0 1
 _ZTV15GDALRasterBlock@GDAL_1.8 1.8.0 1
 _ZTV15OGRMultiPolygon@GDAL_1.8 1.8.0 1
 _ZTV15OGRMutexedLayer@GDAL_1.8 1.11.0 1
 _ZTV15VFKPropertyDefn@GDAL_1.8 1.10.1 1
 _ZTV15VRTSimpleSource@GDAL_1.8 1.11.0 1
 _ZTV16GDALProxyDataset@GDAL_1.8 1.8.0 1
 _ZTV16OGRGeomFieldDefn@GDAL_1.8 1.11.0 1
 _ZTV16VFKFeatureSQLite@GDAL_1.8 1.10.1 1
 _ZTV16VRTComplexSource@GDAL_1.8 1.11.0 1
 _ZTV16VRTRawRasterBand@GDAL_1.8 1.8.0 1
 _ZTV16VRTWarpedDataset@GDAL_1.8 1.8.0 1
 _ZTV16VSIVirtualHandle@GDAL_1.8 1.8.0 1
 _ZTV17GDALDriverManager@GDAL_1.8 1.8.0 1
 _ZTV17GDALPamRasterBand@GDAL_1.8 1.8.0 1
 _ZTV17GDALWarpOperation@GDAL_1.8 1.8.0 1
 _ZTV17OGRLayerAttrIndex@GDAL_1.8 1.8.0 1
 _ZTV18GDALNoDataMaskBand@GDAL_1.8 1.8.0 1
 _ZTV18OGRMultiLineString@GDAL_1.8 1.8.0 1
 _ZTV18VFKDataBlockSQLite@GDAL_1.8 1.10.1 1
 _ZTV19GDALProxyRasterBand@GDAL_1.8 1.8.0 1
 _ZTV19OGRSpatialReference@GDAL_1.8 1.8.0 1
 _ZTV19VRTWarpedRasterBand@GDAL_1.8 1.8.0 1
 _ZTV20GDALAllValidMaskBand@GDAL_1.8 1.8.0 1
 _ZTV20GDALGeorefPamDataset@GDAL_1.8 1.11.0 1
 _ZTV20GDALProxyPoolDataset@GDAL_1.8 1.8.0 1
 _ZTV20OGRMutexedDataSource@GDAL_1.8 1.11.0 1
 _ZTV20VRTDerivedRasterBand@GDAL_1.8 1.8.0 1
 _ZTV20VRTSourcedRasterBand@GDAL_1.8 1.8.0 1
 _ZTV21OGRGenSQLResultsLayer@GDAL_1.8 1.8.0 1
 _ZTV21OGRGeometryCollection@GDAL_1.8 1.8.0 1
 _ZTV22GDALJP2AbstractDataset@GDAL_1.8 1.11.0 1
 _ZTV23GDALProxyPoolRasterBand@GDAL_1.8 1.8.0 1
 _ZTV24GDALNoDataValuesMaskBand@GDAL_1.8 1.8.0 1
 _ZTV24GDALRasterAttributeTable@GDAL_1.8 1.11.0 1
 _ZTV31GDALDefaultRasterAttributeTable@GDAL_1.8 1.11.0 1
 _ZTV8OGRCurve@GDAL_1.8 1.8.0 1
 _ZTV8OGRLayer@GDAL_1.8 1.8.0 1
 _ZTV8OGRPoint@GDAL_1.8 1.8.0 1
 _ZTV9VRTSource@GDAL_1.8 1.11.0 1
 gdal_GTIFAngleStringToDD@GDAL_1.8 1.10.1
 gdal_GTIFAngleToDD@GDAL_1.8 1.10.1
 gdal_GTIFDeaccessCSV@GDAL_1.8 1.10.1
 gdal_GTIFDecToDMS@GDAL_1.8 1.10.1
 gdal_GTIFFreeMemory@GDAL_1.8 1.10.1
 gdal_GTIFGetDatumInfo@GDAL_1.8 1.10.1
 gdal_GTIFGetDefn@GDAL_1.8 1.10.1
 gdal_GTIFGetEllipsoidInfo@GDAL_1.8 1.10.1
 gdal_GTIFGetGCSInfo@GDAL_1.8 1.10.1
 gdal_GTIFGetPCSInfo@GDAL_1.8 1.10.1
 gdal_GTIFGetPMInfo@GDAL_1.8 1.10.1
 gdal_GTIFGetProj4Defn@GDAL_1.8 1.10.1
 gdal_GTIFGetProjTRFInfo@GDAL_1.8 1.10.1
 gdal_GTIFGetUOMAngleInfo@GDAL_1.8 1.10.1
 gdal_GTIFGetUOMLengthInfo@GDAL_1.8 1.10.1
 gdal_GTIFPrintDefn@GDAL_1.8 1.10.1
 gdal_GTIFProj4FromLatLong@GDAL_1.8 1.10.1
 gdal_GTIFProj4ToLatLong@GDAL_1.8 1.10.1
 gdal_GTIFSetFromProj4@GDAL_1.8 1.10.1
 gdal_XTIFFClientOpen@GDAL_1.8 1.10.1
 gdal_XTIFFClose@GDAL_1.8 1.10.1
 gdal_XTIFFFdOpen@GDAL_1.8 1.10.1
 gdal_XTIFFInitialize@GDAL_1.8 1.10.1
 gdal_XTIFFOpen@GDAL_1.8 1.10.1
 sqlite3_extension_init@GDAL_1.8 1.10.1
