libkmldom.so.1 libkmldom1 #MINVER#
 _ZN6kmldom10AsDocumentEN5boost13intrusive_ptrINS_7ElementEEE@Base 1.3.0~r864
 _ZN6kmldom10AsGeometryEN5boost13intrusive_ptrINS_7ElementEEE@Base 1.3.0~r864
 _ZN6kmldom10AsItemIconEN5boost13intrusive_ptrINS_7ElementEEE@Base 1.3.0~r864
 _ZN6kmldom10AsLocationEN5boost13intrusive_ptrINS_7ElementEEE@Base 1.3.0~r864
 _ZN6kmldom10AsScreenXYEN5boost13intrusive_ptrINS_7ElementEEE@Base 1.3.0~r864
 _ZN6kmldom10AsStyleMapEN5boost13intrusive_ptrINS_7ElementEEE@Base 1.3.0~r864
 _ZN6kmldom10AsSubStyleEN5boost13intrusive_ptrINS_7ElementEEE@Base 1.3.0~r864
 _ZN6kmldom10AsTimeSpanEN5boost13intrusive_ptrINS_7ElementEEE@Base 1.3.0~r864
 _ZN6kmldom10AtomAuthor10AddElementERKN5boost13intrusive_ptrINS_7ElementEEE@Base 1.3.0~r864
 _ZN6kmldom10AtomAuthorC1Ev@Base 1.3.0~r864
 _ZN6kmldom10AtomAuthorC2Ev@Base 1.3.0~r864
 _ZN6kmldom10AtomAuthorD0Ev@Base 1.3.0~r864
 _ZN6kmldom10AtomAuthorD1Ev@Base 1.3.0~r864
 _ZN6kmldom10AtomAuthorD2Ev@Base 1.3.0~r864
 _ZN6kmldom10AtomCommon10AddElementERKN5boost13intrusive_ptrINS_7ElementEEE@Base 1.3.0~r864
 _ZN6kmldom10AtomCommon12add_categoryERKN5boost13intrusive_ptrINS_12AtomCategoryEEE@Base 1.3.0~r864
 _ZN6kmldom10AtomCommon8add_linkERKN5boost13intrusive_ptrINS_8AtomLinkEEE@Base 1.3.0~r864
 _ZN6kmldom10AtomCommonC1Ev@Base 1.3.0~r864
 _ZN6kmldom10AtomCommonC2Ev@Base 1.3.0~r864
 _ZN6kmldom10AtomCommonD0Ev@Base 1.3.0~r864
 _ZN6kmldom10AtomCommonD1Ev@Base 1.3.0~r864
 _ZN6kmldom10AtomCommonD2Ev@Base 1.3.0~r864
 _ZN6kmldom10ColorStyle10AddElementERKN5boost13intrusive_ptrINS_7ElementEEE@Base 1.3.0~r864
 _ZN6kmldom10ColorStyleC1Ev@Base 1.3.0~r864
 _ZN6kmldom10ColorStyleC2Ev@Base 1.3.0~r864
 _ZN6kmldom10ColorStyleD0Ev@Base 1.3.0~r864
 _ZN6kmldom10ColorStyleD1Ev@Base 1.3.0~r864
 _ZN6kmldom10ColorStyleD2Ev@Base 1.3.0~r864
 _ZN6kmldom10GxPlaylist10AddElementERKN5boost13intrusive_ptrINS_7ElementEEE@Base 1.3.0~r864
 _ZN6kmldom10GxPlaylist14AcceptChildrenEPNS_13VisitorDriverE@Base 1.3.0~r864
 _ZN6kmldom10GxPlaylist20add_gx_tourprimitiveERKN5boost13intrusive_ptrINS_15GxTourPrimitiveEEE@Base 1.3.0~r864
 _ZN6kmldom10GxPlaylist6AcceptEPNS_7VisitorE@Base 1.3.0~r864
 _ZN6kmldom10GxPlaylistC1Ev@Base 1.3.0~r864
 _ZN6kmldom10GxPlaylistC2Ev@Base 1.3.0~r864
 _ZN6kmldom10GxPlaylistD0Ev@Base 1.3.0~r864
 _ZN6kmldom10GxPlaylistD1Ev@Base 1.3.0~r864
 _ZN6kmldom10GxPlaylistD2Ev@Base 1.3.0~r864
 _ZN6kmldom10GxSoundCue10AddElementERKN5boost13intrusive_ptrINS_7ElementEEE@Base 1.3.0~r864
 _ZN6kmldom10GxSoundCue6AcceptEPNS_7VisitorE@Base 1.3.0~r864
 _ZN6kmldom10GxSoundCueC1Ev@Base 1.3.0~r864
 _ZN6kmldom10GxSoundCueC2Ev@Base 1.3.0~r864
 _ZN6kmldom10GxSoundCueD0Ev@Base 1.3.0~r864
 _ZN6kmldom10GxSoundCueD1Ev@Base 1.3.0~r864
 _ZN6kmldom10GxSoundCueD2Ev@Base 1.3.0~r864
 _ZN6kmldom10GxTimeSpan6AcceptEPNS_7VisitorE@Base 1.3.0~r864
 _ZN6kmldom10GxTimeSpanC1Ev@Base 1.3.0~r864
 _ZN6kmldom10GxTimeSpanC2Ev@Base 1.3.0~r864
 _ZN6kmldom10GxTimeSpanD0Ev@Base 1.3.0~r864
 _ZN6kmldom10GxTimeSpanD1Ev@Base 1.3.0~r864
 _ZN6kmldom10GxTimeSpanD2Ev@Base 1.3.0~r864
 _ZN6kmldom10KmlFactory10GetFactoryEv@Base 1.3.0~r864
 _ZN6kmldom10KmlFactory8factory_E@Base 1.3.0~r864
 _ZN6kmldom10KmlHandler10EndElementERKNSt7__cxx1112basic_stringIcSt11char_traitsIcESaIcEEE@Base 1.3.0~r864
 _ZN6kmldom10KmlHandler12StartElementERKNSt7__cxx1112basic_stringIcSt11char_traitsIcESaIcEEERKSt6vectorIS6_SaIS6_EE@Base 1.3.0~r864
 _ZN6kmldom10KmlHandler19ParseOldSchemaChildERKNSt7__cxx1112basic_stringIcSt11char_traitsIcESaIcEEERKSt6vectorIS6_SaIS6_EEPS9_IN5boost13intrusive_ptrINS_10SimpleDataEEESaISH_EE@Base 1.3.0~r864
 _ZN6kmldom10KmlHandler21CallAddChildObserversERKSt6vectorIPNS_14ParserObserverESaIS3_EERKN5boost13intrusive_ptrINS_7ElementEEESD_@Base 1.3.0~r864
 _ZN6kmldom10KmlHandler23CallEndElementObserversERKSt6vectorIPNS_14ParserObserverESaIS3_EERKN5boost13intrusive_ptrINS_7ElementEEESD_@Base 1.3.0~r864
 _ZN6kmldom10KmlHandler23CallNewElementObserversERKSt6vectorIPNS_14ParserObserverESaIS3_EERKN5boost13intrusive_ptrINS_7ElementEEE@Base 1.3.0~r864
 _ZN6kmldom10KmlHandler23FindOldSchemaParentNameERKSt6vectorINSt7__cxx1112basic_stringIcSt11char_traitsIcESaIcEEESaIS7_EEPS7_@Base 1.3.0~r864
 _ZN6kmldom10KmlHandler23InsertUnknownEndElementERKNSt7__cxx1112basic_stringIcSt11char_traitsIcESaIcEEE@Base 1.3.0~r864
 _ZN6kmldom10KmlHandler25HandleOldSchemaEndElementERKN5boost13intrusive_ptrINS_6SchemaEEERKNSt7__cxx1112basic_stringIcSt11char_traitsIcESaIcEEEPSt6vectorISC_SaISC_EE@Base 1.3.0~r864
 _ZN6kmldom10KmlHandler25InsertUnknownStartElementERKNSt7__cxx1112basic_stringIcSt11char_traitsIcESaIcEEERKSt6vectorIS6_SaIS6_EE@Base 1.3.0~r864
 _ZN6kmldom10KmlHandler31HandleOldSchemaParentEndElementERKN5boost13intrusive_ptrINS_9PlacemarkEEERKNSt7__cxx1112basic_stringIcSt11char_traitsIcESaIcEEERKNS_10KmlFactoryESt6vectorINS2_INS_10SimpleDataEEESaISK_EE@Base 1.3.0~r864
 _ZN6kmldom10KmlHandler7PopRootEv@Base 1.3.0~r864
 _ZN6kmldom10KmlHandler8CharDataERKNSt7__cxx1112basic_stringIcSt11char_traitsIcESaIcEEE@Base 1.3.0~r864
 _ZN6kmldom10KmlHandlerC1ERSt6vectorIPNS_14ParserObserverESaIS3_EE@Base 1.3.0~r864
 _ZN6kmldom10KmlHandlerC2ERSt6vectorIPNS_14ParserObserverESaIS3_EE@Base 1.3.0~r864
 _ZN6kmldom10KmlHandlerD0Ev@Base 1.3.0~r864
 _ZN6kmldom10KmlHandlerD1Ev@Base 1.3.0~r864
 _ZN6kmldom10KmlHandlerD2Ev@Base 1.3.0~r864
 _ZN6kmldom10LabelStyle10AddElementERKN5boost13intrusive_ptrINS_7ElementEEE@Base 1.3.0~r864
 _ZN6kmldom10LabelStyle6AcceptEPNS_7VisitorE@Base 1.3.0~r864
 _ZN6kmldom10LabelStyleC1Ev@Base 1.3.0~r864
 _ZN6kmldom10LabelStyleC2Ev@Base 1.3.0~r864
 _ZN6kmldom10LabelStyleD0Ev@Base 1.3.0~r864
 _ZN6kmldom10LabelStyleD1Ev@Base 1.3.0~r864
 _ZN6kmldom10LabelStyleD2Ev@Base 1.3.0~r864
 _ZN6kmldom10LineCommon10AddElementERKN5boost13intrusive_ptrINS_7ElementEEE@Base 1.3.0~r864
 _ZN6kmldom10LineCommonC1Ev@Base 1.3.0~r864
 _ZN6kmldom10LineCommonC2Ev@Base 1.3.0~r864
 _ZN6kmldom10LineCommonD0Ev@Base 1.3.0~r864
 _ZN6kmldom10LineCommonD1Ev@Base 1.3.0~r864
 _ZN6kmldom10LineCommonD2Ev@Base 1.3.0~r864
 _ZN6kmldom10LineString6AcceptEPNS_7VisitorE@Base 1.3.0~r864
 _ZN6kmldom10LineStringC1Ev@Base 1.3.0~r864
 _ZN6kmldom10LineStringC2Ev@Base 1.3.0~r864
 _ZN6kmldom10LineStringD0Ev@Base 1.3.0~r864
 _ZN6kmldom10LineStringD1Ev@Base 1.3.0~r864
 _ZN6kmldom10LineStringD2Ev@Base 1.3.0~r864
 _ZN6kmldom10LinearRing6AcceptEPNS_7VisitorE@Base 1.3.0~r864
 _ZN6kmldom10LinearRingC1Ev@Base 1.3.0~r864
 _ZN6kmldom10LinearRingC2Ev@Base 1.3.0~r864
 _ZN6kmldom10LinearRingD0Ev@Base 1.3.0~r864
 _ZN6kmldom10LinearRingD1Ev@Base 1.3.0~r864
 _ZN6kmldom10LinearRingD2Ev@Base 1.3.0~r864
 _ZN6kmldom10RotationXY6AcceptEPNS_7VisitorE@Base 1.3.0~r864
 _ZN6kmldom10RotationXYC1Ev@Base 1.3.0~r864
 _ZN6kmldom10RotationXYC2Ev@Base 1.3.0~r864
 _ZN6kmldom10RotationXYD0Ev@Base 1.3.0~r864
 _ZN6kmldom10RotationXYD1Ev@Base 1.3.0~r864
 _ZN6kmldom10RotationXYD2Ev@Base 1.3.0~r864
 _ZN6kmldom10SchemaData10AddElementERKN5boost13intrusive_ptrINS_7ElementEEE@Base 1.3.0~r864
 _ZN6kmldom10SchemaData14AcceptChildrenEPNS_13VisitorDriverE@Base 1.3.0~r864
 _ZN6kmldom10SchemaData15ParseAttributesEPN7kmlbase10AttributesE@Base 1.3.0~r864
 _ZN6kmldom10SchemaData6AcceptEPNS_7VisitorE@Base 1.3.0~r864
 _ZN6kmldom10SchemaDataC1Ev@Base 1.3.0~r864
 _ZN6kmldom10SchemaDataC2Ev@Base 1.3.0~r864
 _ZN6kmldom10SchemaDataD0Ev@Base 1.3.0~r864
 _ZN6kmldom10SchemaDataD1Ev@Base 1.3.0~r864
 _ZN6kmldom10SchemaDataD2Ev@Base 1.3.0~r864
 _ZN6kmldom10Serializer11SaveContentERKNSt7__cxx1112basic_stringIcSt11char_traitsIcESaIcEEEb@Base 1.3.0~r864
 _ZN6kmldom10Serializer11SaveElementERKN5boost13intrusive_ptrINS_7ElementEEE@Base 1.3.0~r864
 _ZN6kmldom10Serializer13SaveFieldByIdINSt7__cxx1112basic_stringIcSt11char_traitsIcESaIcEEEEEviT_@Base 1.3.0~r864
 _ZN6kmldom10Serializer14SaveSimpleVec3EiRKN7kmlbase4Vec3ERKNSt7__cxx1112basic_stringIcSt11char_traitsIcESaIcEEE@Base 1.3.0~r864
 _ZN6kmldom10Serializer15EndElementArrayEi@Base 1.3.0~r864
 _ZN6kmldom10Serializer16MaybeQuoteStringERKNSt7__cxx1112basic_stringIcSt11char_traitsIcESaIcEEE@Base 1.3.0~r864
 _ZN6kmldom10Serializer16SaveElementGroupERKN5boost13intrusive_ptrINS_7ElementEEEi@Base 1.3.0~r864
 _ZN6kmldom10Serializer17BeginElementArrayEim@Base 1.3.0~rc2
 _ZN6kmldom10Serializer19SaveStringFieldByIdEiNSt7__cxx1112basic_stringIcSt11char_traitsIcESaIcEEE@Base 1.3.0~r864
 _ZN6kmldom10Serializer20EndElementGroupArrayEi@Base 1.3.0~r864
 _ZN6kmldom10Serializer22BeginElementGroupArrayEim@Base 1.3.0~rc2
 _ZN6kmldom10Serializer3EndEv@Base 1.3.0~r864
 _ZN6kmldom10Serializer6IndentEv@Base 1.3.0~r864
 _ZN6kmldom10Serializer8SaveEnumEii@Base 1.3.0~r864
 _ZN6kmldom10Serializer8SaveVec3ERKN7kmlbase4Vec3E@Base 1.3.0~r864
 _ZN6kmldom10Serializer9BeginByIdEiRKN7kmlbase10AttributesE@Base 1.3.0~r864
 _ZN6kmldom10Serializer9SaveColorEiRKN7kmlbase7Color32E@Base 1.3.0~r864
 _ZN6kmldom10SerializerC1Ev@Base 1.3.0~r864
 _ZN6kmldom10SerializerC2Ev@Base 1.3.0~r864
 _ZN6kmldom10SerializerD0Ev@Base 1.3.0~r864
 _ZN6kmldom10SerializerD1Ev@Base 1.3.0~r864
 _ZN6kmldom10SerializerD2Ev@Base 1.3.0~r864
 _ZN6kmldom10SimpleData10AddElementERKN5boost13intrusive_ptrINS_7ElementEEE@Base 1.3.0~r864
 _ZN6kmldom10SimpleData15ParseAttributesEPN7kmlbase10AttributesE@Base 1.3.0~r864
 _ZN6kmldom10SimpleData6AcceptEPNS_7VisitorE@Base 1.3.0~r864
 _ZN6kmldom10SimpleDataC1Ev@Base 1.3.0~r864
 _ZN6kmldom10SimpleDataC2Ev@Base 1.3.0~r864
 _ZN6kmldom10SimpleDataD0Ev@Base 1.3.0~r864
 _ZN6kmldom10SimpleDataD1Ev@Base 1.3.0~r864
 _ZN6kmldom10SimpleDataD2Ev@Base 1.3.0~r864
 _ZN6kmldom10ViewVolume10AddElementERKN5boost13intrusive_ptrINS_7ElementEEE@Base 1.3.0~r864
 _ZN6kmldom10ViewVolume6AcceptEPNS_7VisitorE@Base 1.3.0~r864
 _ZN6kmldom10ViewVolumeC1Ev@Base 1.3.0~r864
 _ZN6kmldom10ViewVolumeC2Ev@Base 1.3.0~r864
 _ZN6kmldom10ViewVolumeD0Ev@Base 1.3.0~r864
 _ZN6kmldom10ViewVolumeD1Ev@Base 1.3.0~r864
 _ZN6kmldom10ViewVolumeD2Ev@Base 1.3.0~r864
 _ZN6kmldom10XalCountry10AddElementERKN5boost13intrusive_ptrINS_7ElementEEE@Base 1.3.0~r864
 _ZN6kmldom10XalCountryC1Ev@Base 1.3.0~r864
 _ZN6kmldom10XalCountryC2Ev@Base 1.3.0~r864
 _ZN6kmldom10XalCountryD0Ev@Base 1.3.0~r864
 _ZN6kmldom10XalCountryD1Ev@Base 1.3.0~r864
 _ZN6kmldom10XalCountryD2Ev@Base 1.3.0~r864
 _ZN6kmldom11AsContainerEN5boost13intrusive_ptrINS_7ElementEEE@Base 1.3.0~r864
 _ZN6kmldom11AsIconStyleEN5boost13intrusive_ptrINS_7ElementEEE@Base 1.3.0~r864
 _ZN6kmldom11AsLatLonBoxEN5boost13intrusive_ptrINS_7ElementEEE@Base 1.3.0~r864
 _ZN6kmldom11AsLineStyleEN5boost13intrusive_ptrINS_7ElementEEE@Base 1.3.0~r864
 _ZN6kmldom11AsListStyleEN5boost13intrusive_ptrINS_7ElementEEE@Base 1.3.0~r864
 _ZN6kmldom11AsOverlayXYEN5boost13intrusive_ptrINS_7ElementEEE@Base 1.3.0~r864
 _ZN6kmldom11AsPlacemarkEN5boost13intrusive_ptrINS_7ElementEEE@Base 1.3.0~r864
 _ZN6kmldom11AsPolyStyleEN5boost13intrusive_ptrINS_7ElementEEE@Base 1.3.0~r864
 _ZN6kmldom11AsTimeStampEN5boost13intrusive_ptrINS_7ElementEEE@Base 1.3.0~r864
 _ZN6kmldom11AtomContent15ParseAttributesEPN7kmlbase10AttributesE@Base 1.3.0~r864
 _ZN6kmldom11AtomContentC1Ev@Base 1.3.0~r864
 _ZN6kmldom11AtomContentC2Ev@Base 1.3.0~r864
 _ZN6kmldom11AtomContentD0Ev@Base 1.3.0~r864
 _ZN6kmldom11AtomContentD1Ev@Base 1.3.0~r864
 _ZN6kmldom11AtomContentD2Ev@Base 1.3.0~r864
 _ZN6kmldom11Coordinates10AddElementERKN5boost13intrusive_ptrINS_7ElementEEE@Base 1.3.0~r864
 _ZN6kmldom11Coordinates5ParseERKNSt7__cxx1112basic_stringIcSt11char_traitsIcESaIcEEE@Base 1.3.0~r864
 _ZN6kmldom11Coordinates6AcceptEPNS_7VisitorE@Base 1.3.0~r864
 _ZN6kmldom11Coordinates9ParseVec3EPKcPPcPN7kmlbase4Vec3E@Base 1.3.0~r864
 _ZN6kmldom11CoordinatesC1Ev@Base 1.3.0~r864
 _ZN6kmldom11CoordinatesC2Ev@Base 1.3.0~r864
 _ZN6kmldom11CoordinatesD0Ev@Base 1.3.0~r864
 _ZN6kmldom11CoordinatesD1Ev@Base 1.3.0~r864
 _ZN6kmldom11CoordinatesD2Ev@Base 1.3.0~r864
 _ZN6kmldom11GxTimeStamp6AcceptEPNS_7VisitorE@Base 1.3.0~r864
 _ZN6kmldom11GxTimeStampC1Ev@Base 1.3.0~r864
 _ZN6kmldom11GxTimeStampC2Ev@Base 1.3.0~r864
 _ZN6kmldom11GxTimeStampD0Ev@Base 1.3.0~r864
 _ZN6kmldom11GxTimeStampD1Ev@Base 1.3.0~r864
 _ZN6kmldom11GxTimeStampD2Ev@Base 1.3.0~r864
 _ZN6kmldom11LinkSnippet6AcceptEPNS_7VisitorE@Base 1.3.0~r864
 _ZN6kmldom11LinkSnippetC1Ev@Base 1.3.0~r864
 _ZN6kmldom11LinkSnippetC2Ev@Base 1.3.0~r864
 _ZN6kmldom11LinkSnippetD0Ev@Base 1.3.0~r864
 _ZN6kmldom11LinkSnippetD1Ev@Base 1.3.0~r864
 _ZN6kmldom11LinkSnippetD2Ev@Base 1.3.0~r864
 _ZN6kmldom11NetworkLink10AddElementERKN5boost13intrusive_ptrINS_7ElementEEE@Base 1.3.0~r864
 _ZN6kmldom11NetworkLink14AcceptChildrenEPNS_13VisitorDriverE@Base 1.3.0~r864
 _ZN6kmldom11NetworkLink6AcceptEPNS_7VisitorE@Base 1.3.0~r864
 _ZN6kmldom11NetworkLinkC1Ev@Base 1.3.0~r864
 _ZN6kmldom11NetworkLinkC2Ev@Base 1.3.0~r864
 _ZN6kmldom11NetworkLinkD0Ev@Base 1.3.0~r864
 _ZN6kmldom11NetworkLinkD1Ev@Base 1.3.0~r864
 _ZN6kmldom11NetworkLinkD2Ev@Base 1.3.0~r864
 _ZN6kmldom11Orientation10AddElementERKN5boost13intrusive_ptrINS_7ElementEEE@Base 1.3.0~r864
 _ZN6kmldom11Orientation6AcceptEPNS_7VisitorE@Base 1.3.0~r864
 _ZN6kmldom11OrientationC1Ev@Base 1.3.0~r864
 _ZN6kmldom11OrientationC2Ev@Base 1.3.0~r864
 _ZN6kmldom11OrientationD0Ev@Base 1.3.0~r864
 _ZN6kmldom11OrientationD1Ev@Base 1.3.0~r864
 _ZN6kmldom11OrientationD2Ev@Base 1.3.0~r864
 _ZN6kmldom11ResourceMap10AddElementERKN5boost13intrusive_ptrINS_7ElementEEE@Base 1.3.0~r864
 _ZN6kmldom11ResourceMap14AcceptChildrenEPNS_13VisitorDriverE@Base 1.3.0~r864
 _ZN6kmldom11ResourceMap6AcceptEPNS_7VisitorE@Base 1.3.0~r864
 _ZN6kmldom11ResourceMap9add_aliasERKN5boost13intrusive_ptrINS_5AliasEEE@Base 1.3.0~r864
 _ZN6kmldom11ResourceMapC1Ev@Base 1.3.0~r864
 _ZN6kmldom11ResourceMapC2Ev@Base 1.3.0~r864
 _ZN6kmldom11ResourceMapD0Ev@Base 1.3.0~r864
 _ZN6kmldom11ResourceMapD1Ev@Base 1.3.0~r864
 _ZN6kmldom11ResourceMapD2Ev@Base 1.3.0~r864
 _ZN6kmldom11SimpleField10AddElementERKN5boost13intrusive_ptrINS_7ElementEEE@Base 1.3.0~r864
 _ZN6kmldom11SimpleField15ParseAttributesEPN7kmlbase10AttributesE@Base 1.3.0~r864
 _ZN6kmldom11SimpleField6AcceptEPNS_7VisitorE@Base 1.3.0~r864
 _ZN6kmldom11SimpleFieldC1Ev@Base 1.3.0~r864
 _ZN6kmldom11SimpleFieldC2Ev@Base 1.3.0~r864
 _ZN6kmldom11SimpleFieldD0Ev@Base 1.3.0~r864
 _ZN6kmldom11SimpleFieldD1Ev@Base 1.3.0~r864
 _ZN6kmldom11SimpleFieldD2Ev@Base 1.3.0~r864
 _ZN6kmldom11XalLocality10AddElementERKN5boost13intrusive_ptrINS_7ElementEEE@Base 1.3.0~r864
 _ZN6kmldom11XalLocalityC1Ev@Base 1.3.0~r864
 _ZN6kmldom11XalLocalityC2Ev@Base 1.3.0~r864
 _ZN6kmldom11XalLocalityD0Ev@Base 1.3.0~r864
 _ZN6kmldom11XalLocalityD1Ev@Base 1.3.0~r864
 _ZN6kmldom11XalLocalityD2Ev@Base 1.3.0~r864
 _ZN6kmldom12AbstractLink10AddElementERKN5boost13intrusive_ptrINS_7ElementEEE@Base 1.3.0~r864
 _ZN6kmldom12AbstractLinkC1Ev@Base 1.3.0~r864
 _ZN6kmldom12AbstractLinkC2Ev@Base 1.3.0~r864
 _ZN6kmldom12AbstractLinkD0Ev@Base 1.3.0~r864
 _ZN6kmldom12AbstractLinkD1Ev@Base 1.3.0~r864
 _ZN6kmldom12AbstractLinkD2Ev@Base 1.3.0~r864
 _ZN6kmldom12AbstractView10AddElementERKN5boost13intrusive_ptrINS_7ElementEEE@Base 1.3.0~r864
 _ZN6kmldom12AbstractView14AcceptChildrenEPNS_13VisitorDriverE@Base 1.3.0~r864
 _ZN6kmldom12AbstractViewD0Ev@Base 1.3.0~r864
 _ZN6kmldom12AbstractViewD1Ev@Base 1.3.0~r864
 _ZN6kmldom12AbstractViewD2Ev@Base 1.3.0~r864
 _ZN6kmldom12AsColorStyleEN5boost13intrusive_ptrINS_7ElementEEE@Base 1.3.0~r864
 _ZN6kmldom12AsLabelStyleEN5boost13intrusive_ptrINS_7ElementEEE@Base 1.3.0~r864
 _ZN6kmldom12AsLineStringEN5boost13intrusive_ptrINS_7ElementEEE@Base 1.3.0~r864
 _ZN6kmldom12AsLinearRingEN5boost13intrusive_ptrINS_7ElementEEE@Base 1.3.0~r864
 _ZN6kmldom12AsRotationXYEN5boost13intrusive_ptrINS_7ElementEEE@Base 1.3.0~r864
 _ZN6kmldom12AsSchemaDataEN5boost13intrusive_ptrINS_7ElementEEE@Base 1.3.0~r864
 _ZN6kmldom12AsViewVolumeEN5boost13intrusive_ptrINS_7ElementEEE@Base 1.3.0~r864
 _ZN6kmldom12AtomCategory10AddElementERKN5boost13intrusive_ptrINS_7ElementEEE@Base 1.3.0~r864
 _ZN6kmldom12AtomCategory15ParseAttributesEPN7kmlbase10AttributesE@Base 1.3.0~r864
 _ZN6kmldom12AtomCategoryC1Ev@Base 1.3.0~r864
 _ZN6kmldom12AtomCategoryC2Ev@Base 1.3.0~r864
 _ZN6kmldom12AtomCategoryD0Ev@Base 1.3.0~r864
 _ZN6kmldom12AtomCategoryD1Ev@Base 1.3.0~r864
 _ZN6kmldom12AtomCategoryD2Ev@Base 1.3.0~r864
 _ZN6kmldom12BalloonStyle10AddElementERKN5boost13intrusive_ptrINS_7ElementEEE@Base 1.3.0~r864
 _ZN6kmldom12BalloonStyle6AcceptEPNS_7VisitorE@Base 1.3.0~r864
 _ZN6kmldom12BalloonStyleC1Ev@Base 1.3.0~r864
 _ZN6kmldom12BalloonStyleC2Ev@Base 1.3.0~r864
 _ZN6kmldom12BalloonStyleD0Ev@Base 1.3.0~r864
 _ZN6kmldom12BalloonStyleD1Ev@Base 1.3.0~r864
 _ZN6kmldom12BalloonStyleD2Ev@Base 1.3.0~r864
 _ZN6kmldom12BasicElementILi163EED0Ev@Base 1.3.0~r864
 _ZN6kmldom12BasicElementILi163EED1Ev@Base 1.3.0~r864
 _ZN6kmldom12BasicElementILi163EED2Ev@Base 1.3.0~r864
 _ZN6kmldom12BasicElementILi164EED0Ev@Base 1.3.0~r864
 _ZN6kmldom12BasicElementILi164EED1Ev@Base 1.3.0~r864
 _ZN6kmldom12BasicElementILi164EED2Ev@Base 1.3.0~r864
 _ZN6kmldom12BasicElementILi165EED0Ev@Base 1.3.0~r864
 _ZN6kmldom12BasicElementILi165EED1Ev@Base 1.3.0~r864
 _ZN6kmldom12BasicElementILi165EED2Ev@Base 1.3.0~r864
 _ZN6kmldom12BasicElementILi168EED0Ev@Base 1.3.0~r864
 _ZN6kmldom12BasicElementILi168EED1Ev@Base 1.3.0~r864
 _ZN6kmldom12BasicElementILi168EED2Ev@Base 1.3.0~r864
 _ZN6kmldom12BasicElementILi179EED0Ev@Base 1.3.0~r864
 _ZN6kmldom12BasicElementILi179EED1Ev@Base 1.3.0~r864
 _ZN6kmldom12BasicElementILi179EED2Ev@Base 1.3.0~r864
 _ZN6kmldom12BasicElementILi180EED0Ev@Base 1.3.0~r864
 _ZN6kmldom12BasicElementILi180EED1Ev@Base 1.3.0~r864
 _ZN6kmldom12BasicElementILi180EED2Ev@Base 1.3.0~r864
 _ZN6kmldom12BasicElementILi181EED0Ev@Base 1.3.0~r864
 _ZN6kmldom12BasicElementILi181EED1Ev@Base 1.3.0~r864
 _ZN6kmldom12BasicElementILi181EED2Ev@Base 1.3.0~r864
 _ZN6kmldom12BasicElementILi182EED0Ev@Base 1.3.0~r864
 _ZN6kmldom12BasicElementILi182EED1Ev@Base 1.3.0~r864
 _ZN6kmldom12BasicElementILi182EED2Ev@Base 1.3.0~r864
 _ZN6kmldom12BasicElementILi183EED0Ev@Base 1.3.0~r864
 _ZN6kmldom12BasicElementILi183EED1Ev@Base 1.3.0~r864
 _ZN6kmldom12BasicElementILi183EED2Ev@Base 1.3.0~r864
 _ZN6kmldom12BasicElementILi184EED0Ev@Base 1.3.0~r864
 _ZN6kmldom12BasicElementILi184EED1Ev@Base 1.3.0~r864
 _ZN6kmldom12BasicElementILi184EED2Ev@Base 1.3.0~r864
 _ZN6kmldom12BasicElementILi185EED0Ev@Base 1.3.0~r864
 _ZN6kmldom12BasicElementILi185EED1Ev@Base 1.3.0~r864
 _ZN6kmldom12BasicElementILi185EED2Ev@Base 1.3.0~r864
 _ZN6kmldom12BasicElementILi199EED0Ev@Base 1.3.0~r864
 _ZN6kmldom12BasicElementILi199EED1Ev@Base 1.3.0~r864
 _ZN6kmldom12BasicElementILi199EED2Ev@Base 1.3.0~r864
 _ZN6kmldom12BasicElementILi22EED0Ev@Base 1.3.0~r864
 _ZN6kmldom12BasicElementILi22EED1Ev@Base 1.3.0~r864
 _ZN6kmldom12BasicElementILi22EED2Ev@Base 1.3.0~r864
 _ZN6kmldom12BasicElementILi41EED0Ev@Base 1.3.0~r864
 _ZN6kmldom12BasicElementILi41EED1Ev@Base 1.3.0~r864
 _ZN6kmldom12BasicElementILi41EED2Ev@Base 1.3.0~r864
 _ZN6kmldom12BasicElementILi45EED0Ev@Base 1.3.0~r864
 _ZN6kmldom12BasicElementILi45EED1Ev@Base 1.3.0~r864
 _ZN6kmldom12BasicElementILi45EED2Ev@Base 1.3.0~r864
 _ZN6kmldom12BasicElementILi59EED0Ev@Base 1.3.0~r864
 _ZN6kmldom12BasicElementILi59EED1Ev@Base 1.3.0~r864
 _ZN6kmldom12BasicElementILi59EED2Ev@Base 1.3.0~r864
 _ZN6kmldom12BasicElementILi60EED0Ev@Base 1.3.0~r864
 _ZN6kmldom12BasicElementILi60EED1Ev@Base 1.3.0~r864
 _ZN6kmldom12BasicElementILi60EED2Ev@Base 1.3.0~r864
 _ZN6kmldom12BasicElementILi66EED0Ev@Base 1.3.0~r864
 _ZN6kmldom12BasicElementILi66EED1Ev@Base 1.3.0~r864
 _ZN6kmldom12BasicElementILi66EED2Ev@Base 1.3.0~r864
 _ZN6kmldom12BasicElementILi79EED0Ev@Base 1.3.0~r864
 _ZN6kmldom12BasicElementILi79EED1Ev@Base 1.3.0~r864
 _ZN6kmldom12BasicElementILi79EED2Ev@Base 1.3.0~r864
 _ZN6kmldom12BasicElementILi97EED0Ev@Base 1.3.0~r864
 _ZN6kmldom12BasicElementILi97EED1Ev@Base 1.3.0~r864
 _ZN6kmldom12BasicElementILi97EED2Ev@Base 1.3.0~r864
 _ZN6kmldom12ExtendedData10AddElementERKN5boost13intrusive_ptrINS_7ElementEEE@Base 1.3.0~r864
 _ZN6kmldom12ExtendedData14AcceptChildrenEPNS_13VisitorDriverE@Base 1.3.0~r864
 _ZN6kmldom12ExtendedData6AcceptEPNS_7VisitorE@Base 1.3.0~r864
 _ZN6kmldom12ExtendedDataC1Ev@Base 1.3.0~r864
 _ZN6kmldom12ExtendedDataC2Ev@Base 1.3.0~r864
 _ZN6kmldom12ExtendedDataD0Ev@Base 1.3.0~r864
 _ZN6kmldom12ExtendedDataD1Ev@Base 1.3.0~r864
 _ZN6kmldom12ExtendedDataD2Ev@Base 1.3.0~r864
 _ZN6kmldom12GxLatLonQuad10AddElementERKN5boost13intrusive_ptrINS_7ElementEEE@Base 1.3.0~r864
 _ZN6kmldom12GxLatLonQuad14AcceptChildrenEPNS_13VisitorDriverE@Base 1.3.0~r864
 _ZN6kmldom12GxLatLonQuad6AcceptEPNS_7VisitorE@Base 1.3.0~r864
 _ZN6kmldom12GxLatLonQuadC1Ev@Base 1.3.0~r864
 _ZN6kmldom12GxLatLonQuadC2Ev@Base 1.3.0~r864
 _ZN6kmldom12GxLatLonQuadD0Ev@Base 1.3.0~r864
 _ZN6kmldom12GxLatLonQuadD1Ev@Base 1.3.0~r864
 _ZN6kmldom12GxLatLonQuadD2Ev@Base 1.3.0~r864
 _ZN6kmldom12GxMultiTrack10AddElementERKN5boost13intrusive_ptrINS_7ElementEEE@Base 1.3.0~r864
 _ZN6kmldom12GxMultiTrack12add_gx_trackERKN5boost13intrusive_ptrINS_7GxTrackEEE@Base 1.3.0~r864
 _ZN6kmldom12GxMultiTrack14AcceptChildrenEPNS_13VisitorDriverE@Base 1.3.0~r864
 _ZN6kmldom12GxMultiTrack6AcceptEPNS_7VisitorE@Base 1.3.0~r864
 _ZN6kmldom12GxMultiTrackC1Ev@Base 1.3.0~r864
 _ZN6kmldom12GxMultiTrackC2Ev@Base 1.3.0~r864
 _ZN6kmldom12GxMultiTrackD0Ev@Base 1.3.0~r864
 _ZN6kmldom12GxMultiTrackD1Ev@Base 1.3.0~r864
 _ZN6kmldom12GxMultiTrackD2Ev@Base 1.3.0~r864
 _ZN6kmldom12ImagePyramid10AddElementERKN5boost13intrusive_ptrINS_7ElementEEE@Base 1.3.0~r864
 _ZN6kmldom12ImagePyramid6AcceptEPNS_7VisitorE@Base 1.3.0~r864
 _ZN6kmldom12ImagePyramidC1Ev@Base 1.3.0~r864
 _ZN6kmldom12ImagePyramidC2Ev@Base 1.3.0~r864
 _ZN6kmldom12ImagePyramidD0Ev@Base 1.3.0~r864
 _ZN6kmldom12ImagePyramidD1Ev@Base 1.3.0~r864
 _ZN6kmldom12ImagePyramidD2Ev@Base 1.3.0~r864
 _ZN6kmldom12KmlHandlerNS10EndElementERKNSt7__cxx1112basic_stringIcSt11char_traitsIcESaIcEEE@Base 1.3.0~r864
 _ZN6kmldom12KmlHandlerNS12EndNamespaceERKNSt7__cxx1112basic_stringIcSt11char_traitsIcESaIcEEE@Base 1.3.0~r864
 _ZN6kmldom12KmlHandlerNS12StartElementERKNSt7__cxx1112basic_stringIcSt11char_traitsIcESaIcEEERKSt6vectorIS6_SaIS6_EE@Base 1.3.0~r864
 _ZN6kmldom12KmlHandlerNS14StartNamespaceERKNSt7__cxx1112basic_stringIcSt11char_traitsIcESaIcEEES8_@Base 1.3.0~r864
 _ZN6kmldom12KmlHandlerNS8CharDataERKNSt7__cxx1112basic_stringIcSt11char_traitsIcESaIcEEE@Base 1.3.0~r864
 _ZN6kmldom12KmlHandlerNSC1ERSt6vectorIPNS_14ParserObserverESaIS3_EE@Base 1.3.0~r864
 _ZN6kmldom12KmlHandlerNSC2ERSt6vectorIPNS_14ParserObserverESaIS3_EE@Base 1.3.0~r864
 _ZN6kmldom12KmlHandlerNSD0Ev@Base 1.3.0~r864
 _ZN6kmldom12KmlHandlerNSD1Ev@Base 1.3.0~r864
 _ZN6kmldom12KmlHandlerNSD2Ev@Base 1.3.0~r864
 _ZN6kmldom12LatLonAltBox10AddElementERKN5boost13intrusive_ptrINS_7ElementEEE@Base 1.3.0~r864
 _ZN6kmldom12LatLonAltBox6AcceptEPNS_7VisitorE@Base 1.3.0~r864
 _ZN6kmldom12LatLonAltBoxC1Ev@Base 1.3.0~r864
 _ZN6kmldom12LatLonAltBoxC2Ev@Base 1.3.0~r864
 _ZN6kmldom12LatLonAltBoxD0Ev@Base 1.3.0~r864
 _ZN6kmldom12LatLonAltBoxD1Ev@Base 1.3.0~r864
 _ZN6kmldom12LatLonAltBoxD2Ev@Base 1.3.0~r864
 _ZN6kmldom12PhotoOverlay10AddElementERKN5boost13intrusive_ptrINS_7ElementEEE@Base 1.3.0~r864
 _ZN6kmldom12PhotoOverlay14AcceptChildrenEPNS_13VisitorDriverE@Base 1.3.0~r864
 _ZN6kmldom12PhotoOverlay6AcceptEPNS_7VisitorE@Base 1.3.0~r864
 _ZN6kmldom12PhotoOverlayC1Ev@Base 1.3.0~r864
 _ZN6kmldom12PhotoOverlayC2Ev@Base 1.3.0~r864
 _ZN6kmldom12PhotoOverlayD0Ev@Base 1.3.0~r864
 _ZN6kmldom12PhotoOverlayD1Ev@Base 1.3.0~r864
 _ZN6kmldom12PhotoOverlayD2Ev@Base 1.3.0~r864
 _ZN6kmldom12SerializeRawB5cxx11ERKN5boost13intrusive_ptrINS_7ElementEEE@Base 1.3.0~r864
 _ZN6kmldom13AsLinkSnippetEN5boost13intrusive_ptrINS_7ElementEEE@Base 1.3.0~r864
 _ZN6kmldom13AsNetworkLinkEN5boost13intrusive_ptrINS_7ElementEEE@Base 1.3.0~r864
 _ZN6kmldom13AsOrientationEN5boost13intrusive_ptrINS_7ElementEEE@Base 1.3.0~r864
 _ZN6kmldom13AsResourceMapEN5boost13intrusive_ptrINS_7ElementEEE@Base 1.3.0~r864
 _ZN6kmldom13GroundOverlay10AddElementERKN5boost13intrusive_ptrINS_7ElementEEE@Base 1.3.0~r864
 _ZN6kmldom13GroundOverlay14AcceptChildrenEPNS_13VisitorDriverE@Base 1.3.0~r864
 _ZN6kmldom13GroundOverlay6AcceptEPNS_7VisitorE@Base 1.3.0~r864
 _ZN6kmldom13GroundOverlayC1Ev@Base 1.3.0~r864
 _ZN6kmldom13GroundOverlayC2Ev@Base 1.3.0~r864
 _ZN6kmldom13GroundOverlayD0Ev@Base 1.3.0~r864
 _ZN6kmldom13GroundOverlayD1Ev@Base 1.3.0~r864
 _ZN6kmldom13GroundOverlayD2Ev@Base 1.3.0~r864
 _ZN6kmldom13GxTourControl10AddElementERKN5boost13intrusive_ptrINS_7ElementEEE@Base 1.3.0~r864
 _ZN6kmldom13GxTourControl6AcceptEPNS_7VisitorE@Base 1.3.0~r864
 _ZN6kmldom13GxTourControlC1Ev@Base 1.3.0~r864
 _ZN6kmldom13GxTourControlC2Ev@Base 1.3.0~r864
 _ZN6kmldom13GxTourControlD0Ev@Base 1.3.0~r864
 _ZN6kmldom13GxTourControlD1Ev@Base 1.3.0~r864
 _ZN6kmldom13GxTourControlD2Ev@Base 1.3.0~r864
 _ZN6kmldom13IconStyleIcon10AddElementERKN5boost13intrusive_ptrINS_7ElementEEE@Base 1.3.0~r864
 _ZN6kmldom13IconStyleIcon6AcceptEPNS_7VisitorE@Base 1.3.0~r864
 _ZN6kmldom13IconStyleIconC1Ev@Base 1.3.0~r864
 _ZN6kmldom13IconStyleIconC2Ev@Base 1.3.0~r864
 _ZN6kmldom13IconStyleIconD0Ev@Base 1.3.0~r864
 _ZN6kmldom13IconStyleIconD1Ev@Base 1.3.0~r864
 _ZN6kmldom13IconStyleIconD2Ev@Base 1.3.0~r864
 _ZN6kmldom13MultiGeometry10AddElementERKN5boost13intrusive_ptrINS_7ElementEEE@Base 1.3.0~r864
 _ZN6kmldom13MultiGeometry12add_geometryERKN5boost13intrusive_ptrINS_8GeometryEEE@Base 1.3.0~r864
 _ZN6kmldom13MultiGeometry14AcceptChildrenEPNS_13VisitorDriverE@Base 1.3.0~r864
 _ZN6kmldom13MultiGeometry6AcceptEPNS_7VisitorE@Base 1.3.0~r864
 _ZN6kmldom13MultiGeometryC1Ev@Base 1.3.0~r864
 _ZN6kmldom13MultiGeometryC2Ev@Base 1.3.0~r864
 _ZN6kmldom13MultiGeometryD0Ev@Base 1.3.0~r864
 _ZN6kmldom13MultiGeometryD1Ev@Base 1.3.0~r864
 _ZN6kmldom13MultiGeometryD2Ev@Base 1.3.0~r864
 _ZN6kmldom13ScreenOverlay10AddElementERKN5boost13intrusive_ptrINS_7ElementEEE@Base 1.3.0~r864
 _ZN6kmldom13ScreenOverlay14AcceptChildrenEPNS_13VisitorDriverE@Base 1.3.0~r864
 _ZN6kmldom13ScreenOverlay6AcceptEPNS_7VisitorE@Base 1.3.0~r864
 _ZN6kmldom13ScreenOverlayC1Ev@Base 1.3.0~r864
 _ZN6kmldom13ScreenOverlayC2Ev@Base 1.3.0~r864
 _ZN6kmldom13ScreenOverlayD0Ev@Base 1.3.0~r864
 _ZN6kmldom13ScreenOverlayD1Ev@Base 1.3.0~r864
 _ZN6kmldom13ScreenOverlayD2Ev@Base 1.3.0~r864
 _ZN6kmldom13SnippetCommon10AddElementERKN5boost13intrusive_ptrINS_7ElementEEE@Base 1.3.0~r864
 _ZN6kmldom13SnippetCommon15ParseAttributesEPN7kmlbase10AttributesE@Base 1.3.0~r864
 _ZN6kmldom13SnippetCommonC1Ev@Base 1.3.0~r864
 _ZN6kmldom13SnippetCommonC2Ev@Base 1.3.0~r864
 _ZN6kmldom13SnippetCommonD0Ev@Base 1.3.0~r864
 _ZN6kmldom13SnippetCommonD1Ev@Base 1.3.0~r864
 _ZN6kmldom13SnippetCommonD2Ev@Base 1.3.0~r864
 _ZN6kmldom13StyleSelectorC1Ev@Base 1.3.0~r864
 _ZN6kmldom13StyleSelectorC2Ev@Base 1.3.0~r864
 _ZN6kmldom13StyleSelectorD0Ev@Base 1.3.0~r864
 _ZN6kmldom13StyleSelectorD1Ev@Base 1.3.0~r864
 _ZN6kmldom13StyleSelectorD2Ev@Base 1.3.0~r864
 _ZN6kmldom13TimePrimitive10AddElementERKN5boost13intrusive_ptrINS_7ElementEEE@Base 1.3.0~r864
 _ZN6kmldom13TimePrimitiveC1Ev@Base 1.3.0~r864
 _ZN6kmldom13TimePrimitiveC2Ev@Base 1.3.0~r864
 _ZN6kmldom13TimePrimitiveD0Ev@Base 1.3.0~r864
 _ZN6kmldom13TimePrimitiveD1Ev@Base 1.3.0~r864
 _ZN6kmldom13TimePrimitiveD2Ev@Base 1.3.0~r864
 _ZN6kmldom13VisitorDriverC1Ev@Base 1.3.0~r864
 _ZN6kmldom13VisitorDriverC2Ev@Base 1.3.0~r864
 _ZN6kmldom13VisitorDriverD0Ev@Base 1.3.0~r864
 _ZN6kmldom13VisitorDriverD1Ev@Base 1.3.0~r864
 _ZN6kmldom13VisitorDriverD2Ev@Base 1.3.0~r864
 _ZN6kmldom13XalPostalCode10AddElementERKN5boost13intrusive_ptrINS_7ElementEEE@Base 1.3.0~r864
 _ZN6kmldom13XalPostalCodeC1Ev@Base 1.3.0~r864
 _ZN6kmldom13XalPostalCodeC2Ev@Base 1.3.0~r864
 _ZN6kmldom13XalPostalCodeD0Ev@Base 1.3.0~r864
 _ZN6kmldom13XalPostalCodeD1Ev@Base 1.3.0~r864
 _ZN6kmldom13XalPostalCodeD2Ev@Base 1.3.0~r864
 _ZN6kmldom13XmlSerializerINS_13StringAdapterEE11SaveContentERKNSt7__cxx1112basic_stringIcSt11char_traitsIcESaIcEEEb@Base 1.3.0~r864
 _ZN6kmldom13XmlSerializerINS_13StringAdapterEE19SaveStringFieldByIdEiNSt7__cxx1112basic_stringIcSt11char_traitsIcESaIcEEE@Base 1.3.0~r864
 _ZN6kmldom13XmlSerializerINS_13StringAdapterEE3EndEv@Base 1.3.0~r864
 _ZN6kmldom13XmlSerializerINS_13StringAdapterEE6IndentEv@Base 1.3.0~r864
 _ZN6kmldom13XmlSerializerINS_13StringAdapterEE8SaveVec3ERKN7kmlbase4Vec3E@Base 1.3.0~r864
 _ZN6kmldom13XmlSerializerINS_13StringAdapterEE9BeginByIdEiRKN7kmlbase10AttributesE@Base 1.3.0~r864
 _ZN6kmldom13XmlSerializerINS_13StringAdapterEE9SaveColorEiRKN7kmlbase7Color32E@Base 1.3.0~r864
 _ZN6kmldom13XmlSerializerINS_13StringAdapterEED0Ev@Base 1.3.0~r864
 _ZN6kmldom13XmlSerializerINS_13StringAdapterEED1Ev@Base 1.3.0~r864
 _ZN6kmldom13XmlSerializerINS_13StringAdapterEED2Ev@Base 1.3.0~r864
 _ZN6kmldom14AsAbstractViewEN5boost13intrusive_ptrINS_7ElementEEE@Base 1.3.0~r864
 _ZN6kmldom14AsBalloonStyleEN5boost13intrusive_ptrINS_7ElementEEE@Base 1.3.0~r864
 _ZN6kmldom14AsImagePyramidEN5boost13intrusive_ptrINS_7ElementEEE@Base 1.3.0~r864
 _ZN6kmldom14AsLatLonAltBoxEN5boost13intrusive_ptrINS_7ElementEEE@Base 1.3.0~r864
 _ZN6kmldom14AsPhotoOverlayEN5boost13intrusive_ptrINS_7ElementEEE@Base 1.3.0~r864
 _ZN6kmldom14BoundaryCommon10AddElementERKN5boost13intrusive_ptrINS_7ElementEEE@Base 1.3.0~r864
 _ZN6kmldom14BoundaryCommon14AcceptChildrenEPNS_13VisitorDriverE@Base 1.3.0~r864
 _ZN6kmldom14BoundaryCommonC1Ev@Base 1.3.0~r864
 _ZN6kmldom14BoundaryCommonC2Ev@Base 1.3.0~r864
 _ZN6kmldom14BoundaryCommonD0Ev@Base 1.3.0~r864
 _ZN6kmldom14BoundaryCommonD1Ev@Base 1.3.0~r864
 _ZN6kmldom14BoundaryCommonD2Ev@Base 1.3.0~r864
 _ZN6kmldom14GetElementNameB5cxx11ERKN5boost13intrusive_ptrINS_7ElementEEE@Base 1.3.0~r864
 _ZN6kmldom14ParserObserver10NewElementERKN5boost13intrusive_ptrINS_7ElementEEE@Base 1.3.0~r864
 _ZN6kmldom14ParserObserver8AddChildERKN5boost13intrusive_ptrINS_7ElementEEES6_@Base 1.3.0~r864
 _ZN6kmldom15AsGroundOverlayEN5boost13intrusive_ptrINS_7ElementEEE@Base 1.3.0~r864
 _ZN6kmldom15AsIconStyleIconEN5boost13intrusive_ptrINS_7ElementEEE@Base 1.3.0~r864
 _ZN6kmldom15AsMultiGeometryEN5boost13intrusive_ptrINS_7ElementEEE@Base 1.3.0~r864
 _ZN6kmldom15AsScreenOverlayEN5boost13intrusive_ptrINS_7ElementEEE@Base 1.3.0~r864
 _ZN6kmldom15AsStyleSelectorEN5boost13intrusive_ptrINS_7ElementEEE@Base 1.3.0~r864
 _ZN6kmldom15AsTimePrimitiveEN5boost13intrusive_ptrINS_7ElementEEE@Base 1.3.0~r864
 _ZN6kmldom15GxTourPrimitiveD0Ev@Base 1.3.0~r864
 _ZN6kmldom15GxTourPrimitiveD1Ev@Base 1.3.0~r864
 _ZN6kmldom15GxTourPrimitiveD2Ev@Base 1.3.0~r864
 _ZN6kmldom15InnerBoundaryIs6AcceptEPNS_7VisitorE@Base 1.3.0~r864
 _ZN6kmldom15InnerBoundaryIsC1Ev@Base 1.3.0~r864
 _ZN6kmldom15InnerBoundaryIsC2Ev@Base 1.3.0~r864
 _ZN6kmldom15InnerBoundaryIsD0Ev@Base 1.3.0~r864
 _ZN6kmldom15InnerBoundaryIsD1Ev@Base 1.3.0~r864
 _ZN6kmldom15InnerBoundaryIsD2Ev@Base 1.3.0~r864
 _ZN6kmldom15OuterBoundaryIs6AcceptEPNS_7VisitorE@Base 1.3.0~r864
 _ZN6kmldom15OuterBoundaryIsC1Ev@Base 1.3.0~r864
 _ZN6kmldom15OuterBoundaryIsC2Ev@Base 1.3.0~r864
 _ZN6kmldom15OuterBoundaryIsD0Ev@Base 1.3.0~r864
 _ZN6kmldom15OuterBoundaryIsD1Ev@Base 1.3.0~r864
 _ZN6kmldom15OuterBoundaryIsD2Ev@Base 1.3.0~r864
 _ZN6kmldom15SerializePrettyB5cxx11ERKN5boost13intrusive_ptrINS_7ElementEEE@Base 1.3.0~r864
 _ZN6kmldom15UpdateOperation6AcceptEPNS_7VisitorE@Base 1.3.0~r864
 _ZN6kmldom15UpdateOperationC1Ev@Base 1.3.0~r864
 _ZN6kmldom15UpdateOperationC2Ev@Base 1.3.0~r864
 _ZN6kmldom15UpdateOperationD0Ev@Base 1.3.0~r864
 _ZN6kmldom15UpdateOperationD1Ev@Base 1.3.0~r864
 _ZN6kmldom15UpdateOperationD2Ev@Base 1.3.0~r864
 _ZN6kmldom15XalThoroughfare10AddElementERKN5boost13intrusive_ptrINS_7ElementEEE@Base 1.3.0~r864
 _ZN6kmldom15XalThoroughfareC1Ev@Base 1.3.0~r864
 _ZN6kmldom15XalThoroughfareC2Ev@Base 1.3.0~r864
 _ZN6kmldom15XalThoroughfareD0Ev@Base 1.3.0~r864
 _ZN6kmldom15XalThoroughfareD1Ev@Base 1.3.0~r864
 _ZN6kmldom15XalThoroughfareD2Ev@Base 1.3.0~r864
 _ZN6kmldom16GxAnimatedUpdate10AddElementERKN5boost13intrusive_ptrINS_7ElementEEE@Base 1.3.0~r864
 _ZN6kmldom16GxAnimatedUpdate14AcceptChildrenEPNS_13VisitorDriverE@Base 1.3.0~r864
 _ZN6kmldom16GxAnimatedUpdate6AcceptEPNS_7VisitorE@Base 1.3.0~r864
 _ZN6kmldom16GxAnimatedUpdateC1Ev@Base 1.3.0~r864
 _ZN6kmldom16GxAnimatedUpdateC2Ev@Base 1.3.0~r864
 _ZN6kmldom16GxAnimatedUpdateD0Ev@Base 1.3.0~r864
 _ZN6kmldom16GxAnimatedUpdateD1Ev@Base 1.3.0~r864
 _ZN6kmldom16GxAnimatedUpdateD2Ev@Base 1.3.0~r864
 _ZN6kmldom17AbstractLatLonBox10AddElementERKN5boost13intrusive_ptrINS_7ElementEEE@Base 1.3.0~r864
 _ZN6kmldom17AbstractLatLonBoxC1Ev@Base 1.3.0~r864
 _ZN6kmldom17AbstractLatLonBoxC2Ev@Base 1.3.0~r864
 _ZN6kmldom17AbstractLatLonBoxD0Ev@Base 1.3.0~r864
 _ZN6kmldom17AbstractLatLonBoxD1Ev@Base 1.3.0~r864
 _ZN6kmldom17AbstractLatLonBoxD2Ev@Base 1.3.0~r864
 _ZN6kmldom17AsInnerBoundaryIsEN5boost13intrusive_ptrINS_7ElementEEE@Base 1.3.0~r864
 _ZN6kmldom17AsOuterBoundaryIsEN5boost13intrusive_ptrINS_7ElementEEE@Base 1.3.0~r864
 _ZN6kmldom17ElementSerializerC1ERKNS_7ElementERNS_10SerializerE@Base 1.3.0~r864
 _ZN6kmldom17ElementSerializerC2ERKNS_7ElementERNS_10SerializerE@Base 1.3.0~r864
 _ZN6kmldom17ElementSerializerD1Ev@Base 1.3.0~r864
 _ZN6kmldom17ElementSerializerD2Ev@Base 1.3.0~r864
 _ZN6kmldom17GxSimpleArrayData10AddElementERKN5boost13intrusive_ptrINS_7ElementEEE@Base 1.3.0~r864
 _ZN6kmldom17GxSimpleArrayData15ParseAttributesEPN7kmlbase10AttributesE@Base 1.3.0~r864
 _ZN6kmldom17GxSimpleArrayData6AcceptEPNS_7VisitorE@Base 1.3.0~r864
 _ZN6kmldom17GxSimpleArrayDataC1Ev@Base 1.3.0~r864
 _ZN6kmldom17GxSimpleArrayDataC2Ev@Base 1.3.0~r864
 _ZN6kmldom17GxSimpleArrayDataD0Ev@Base 1.3.0~r864
 _ZN6kmldom17GxSimpleArrayDataD1Ev@Base 1.3.0~r864
 _ZN6kmldom17GxSimpleArrayDataD2Ev@Base 1.3.0~r864
 _ZN6kmldom17XalAddressDetails10AddElementERKN5boost13intrusive_ptrINS_7ElementEEE@Base 1.3.0~r864
 _ZN6kmldom17XalAddressDetailsC1Ev@Base 1.3.0~r864
 _ZN6kmldom17XalAddressDetailsC2Ev@Base 1.3.0~r864
 _ZN6kmldom17XalAddressDetailsD0Ev@Base 1.3.0~r864
 _ZN6kmldom17XalAddressDetailsD1Ev@Base 1.3.0~r864
 _ZN6kmldom17XalAddressDetailsD2Ev@Base 1.3.0~r864
 _ZN6kmldom18AbstractViewCommon10AddElementERKN5boost13intrusive_ptrINS_7ElementEEE@Base 1.3.0~r864
 _ZN6kmldom18AbstractViewCommonC1Ev@Base 1.3.0~r864
 _ZN6kmldom18AbstractViewCommonC2Ev@Base 1.3.0~r864
 _ZN6kmldom18AbstractViewCommonD0Ev@Base 1.3.0~r864
 _ZN6kmldom18AbstractViewCommonD1Ev@Base 1.3.0~r864
 _ZN6kmldom18AbstractViewCommonD2Ev@Base 1.3.0~r864
 _ZN6kmldom18GxSimpleArrayField6AcceptEPNS_7VisitorE@Base 1.3.0~r864
 _ZN6kmldom18GxSimpleArrayFieldC1Ev@Base 1.3.0~r864
 _ZN6kmldom18GxSimpleArrayFieldC2Ev@Base 1.3.0~r864
 _ZN6kmldom18GxSimpleArrayFieldD0Ev@Base 1.3.0~r864
 _ZN6kmldom18GxSimpleArrayFieldD1Ev@Base 1.3.0~r864
 _ZN6kmldom18GxSimpleArrayFieldD2Ev@Base 1.3.0~r864
 _ZN6kmldom18NetworkLinkControl10AddElementERKN5boost13intrusive_ptrINS_7ElementEEE@Base 1.3.0~r864
 _ZN6kmldom18NetworkLinkControl14AcceptChildrenEPNS_13VisitorDriverE@Base 1.3.0~r864
 _ZN6kmldom18NetworkLinkControl6AcceptEPNS_7VisitorE@Base 1.3.0~r864
 _ZN6kmldom18NetworkLinkControlC1Ev@Base 1.3.0~r864
 _ZN6kmldom18NetworkLinkControlC2Ev@Base 1.3.0~r864
 _ZN6kmldom18NetworkLinkControlD0Ev@Base 1.3.0~r864
 _ZN6kmldom18NetworkLinkControlD1Ev@Base 1.3.0~r864
 _ZN6kmldom18NetworkLinkControlD2Ev@Base 1.3.0~r864
 _ZN6kmldom19AsAbstractLatLonBoxEN5boost13intrusive_ptrINS_7ElementEEE@Base 1.3.0~r864
 _ZN6kmldom20SimplePreorderDriver5VisitERKN5boost13intrusive_ptrINS_7ElementEEE@Base 1.3.0~r864
 _ZN6kmldom20SimplePreorderDriverC1EPNS_7VisitorE@Base 1.3.0~r864
 _ZN6kmldom20SimplePreorderDriverC2EPNS_7VisitorE@Base 1.3.0~r864
 _ZN6kmldom20SimplePreorderDriverD0Ev@Base 1.3.0~r864
 _ZN6kmldom20SimplePreorderDriverD1Ev@Base 1.3.0~r864
 _ZN6kmldom20SimplePreorderDriverD2Ev@Base 1.3.0~r864
 _ZN6kmldom21ExtrudeGeometryCommon10AddElementERKN5boost13intrusive_ptrINS_7ElementEEE@Base 1.3.0~r864
 _ZN6kmldom21ExtrudeGeometryCommonC1Ev@Base 1.3.0~r864
 _ZN6kmldom21ExtrudeGeometryCommonC2Ev@Base 1.3.0~r864
 _ZN6kmldom21ExtrudeGeometryCommonD0Ev@Base 1.3.0~r864
 _ZN6kmldom21ExtrudeGeometryCommonD1Ev@Base 1.3.0~r864
 _ZN6kmldom21ExtrudeGeometryCommonD2Ev@Base 1.3.0~r864
 _ZN6kmldom21GxTourPrimitiveCommon10AddElementERKN5boost13intrusive_ptrINS_7ElementEEE@Base 1.3.0~r864
 _ZN6kmldom21GxTourPrimitiveCommonD0Ev@Base 1.3.0~r864
 _ZN6kmldom21GxTourPrimitiveCommonD1Ev@Base 1.3.0~r864
 _ZN6kmldom21GxTourPrimitiveCommonD2Ev@Base 1.3.0~r864
 _ZN6kmldom21SimplePostorderDriver5VisitERKN5boost13intrusive_ptrINS_7ElementEEE@Base 1.3.0~r864
 _ZN6kmldom21SimplePostorderDriverC1EPNS_7VisitorE@Base 1.3.0~r864
 _ZN6kmldom21SimplePostorderDriverC2EPNS_7VisitorE@Base 1.3.0~r864
 _ZN6kmldom21SimplePostorderDriverD0Ev@Base 1.3.0~r864
 _ZN6kmldom21SimplePostorderDriverD1Ev@Base 1.3.0~r864
 _ZN6kmldom21SimplePostorderDriverD2Ev@Base 1.3.0~r864
 _ZN6kmldom21XalAdministrativeArea10AddElementERKN5boost13intrusive_ptrINS_7ElementEEE@Base 1.3.0~r864
 _ZN6kmldom21XalAdministrativeAreaC1Ev@Base 1.3.0~r864
 _ZN6kmldom21XalAdministrativeAreaC2Ev@Base 1.3.0~r864
 _ZN6kmldom21XalAdministrativeAreaD0Ev@Base 1.3.0~r864
 _ZN6kmldom21XalAdministrativeAreaD1Ev@Base 1.3.0~r864
 _ZN6kmldom21XalAdministrativeAreaD2Ev@Base 1.3.0~r864
 _ZN6kmldom22AltitudeGeometryCommon10AddElementERKN5boost13intrusive_ptrINS_7ElementEEE@Base 1.3.0~r864
 _ZN6kmldom22AltitudeGeometryCommonC1Ev@Base 1.3.0~r864
 _ZN6kmldom22AltitudeGeometryCommonC2Ev@Base 1.3.0~r864
 _ZN6kmldom22AltitudeGeometryCommonD0Ev@Base 1.3.0~r864
 _ZN6kmldom22AltitudeGeometryCommonD1Ev@Base 1.3.0~r864
 _ZN6kmldom22AltitudeGeometryCommonD2Ev@Base 1.3.0~r864
 _ZN6kmldom24XalSubAdministrativeArea10AddElementERKN5boost13intrusive_ptrINS_7ElementEEE@Base 1.3.0~r864
 _ZN6kmldom24XalSubAdministrativeAreaC1Ev@Base 1.3.0~r864
 _ZN6kmldom24XalSubAdministrativeAreaC2Ev@Base 1.3.0~r864
 _ZN6kmldom24XalSubAdministrativeAreaD0Ev@Base 1.3.0~r864
 _ZN6kmldom24XalSubAdministrativeAreaD1Ev@Base 1.3.0~r864
 _ZN6kmldom24XalSubAdministrativeAreaD2Ev@Base 1.3.0~r864
 _ZN6kmldom25CoordinatesGeometryCommon10AddElementERKN5boost13intrusive_ptrINS_7ElementEEE@Base 1.3.0~r864
 _ZN6kmldom25CoordinatesGeometryCommon14AcceptChildrenEPNS_13VisitorDriverE@Base 1.3.0~r864
 _ZN6kmldom25CoordinatesGeometryCommonC1Ev@Base 1.3.0~r864
 _ZN6kmldom25CoordinatesGeometryCommonC2Ev@Base 1.3.0~r864
 _ZN6kmldom25CoordinatesGeometryCommonD0Ev@Base 1.3.0~r864
 _ZN6kmldom25CoordinatesGeometryCommonD1Ev@Base 1.3.0~r864
 _ZN6kmldom25CoordinatesGeometryCommonD2Ev@Base 1.3.0~r864
 _ZN6kmldom3Kml10AddElementERKN5boost13intrusive_ptrINS_7ElementEEE@Base 1.3.0~r864
 _ZN6kmldom3Kml14AcceptChildrenEPNS_13VisitorDriverE@Base 1.3.0~r864
 _ZN6kmldom3Kml15ParseAttributesEPN7kmlbase10AttributesE@Base 1.3.0~r864
 _ZN6kmldom3Kml6AcceptEPNS_7VisitorE@Base 1.3.0~r864
 _ZN6kmldom3KmlC1Ev@Base 1.3.0~r864
 _ZN6kmldom3KmlC2Ev@Base 1.3.0~r864
 _ZN6kmldom3KmlD0Ev@Base 1.3.0~r864
 _ZN6kmldom3KmlD1Ev@Base 1.3.0~r864
 _ZN6kmldom3KmlD2Ev@Base 1.3.0~r864
 _ZN6kmldom3Lod10AddElementERKN5boost13intrusive_ptrINS_7ElementEEE@Base 1.3.0~r864
 _ZN6kmldom3Lod6AcceptEPNS_7VisitorE@Base 1.3.0~r864
 _ZN6kmldom3LodC1Ev@Base 1.3.0~r864
 _ZN6kmldom3LodC2Ev@Base 1.3.0~r864
 _ZN6kmldom3LodD0Ev@Base 1.3.0~r864
 _ZN6kmldom3LodD1Ev@Base 1.3.0~r864
 _ZN6kmldom3LodD2Ev@Base 1.3.0~r864
 _ZN6kmldom3Url6AcceptEPNS_7VisitorE@Base 1.3.0~r864
 _ZN6kmldom3UrlC1Ev@Base 1.3.0~r864
 _ZN6kmldom3UrlC2Ev@Base 1.3.0~r864
 _ZN6kmldom3UrlD0Ev@Base 1.3.0~r864
 _ZN6kmldom3UrlD1Ev@Base 1.3.0~r864
 _ZN6kmldom3UrlD2Ev@Base 1.3.0~r864
 _ZN6kmldom3Xsd7schema_E@Base 1.3.0~r864
 _ZN6kmldom3Xsd9GetSchemaEv@Base 1.3.0~r864
 _ZN6kmldom3XsdC1Ev@Base 1.3.0~r864
 _ZN6kmldom3XsdC2Ev@Base 1.3.0~r864
 _ZN6kmldom4Data10AddElementERKN5boost13intrusive_ptrINS_7ElementEEE@Base 1.3.0~r864
 _ZN6kmldom4Data15ParseAttributesEPN7kmlbase10AttributesE@Base 1.3.0~r864
 _ZN6kmldom4Data6AcceptEPNS_7VisitorE@Base 1.3.0~r864
 _ZN6kmldom4DataC1Ev@Base 1.3.0~r864
 _ZN6kmldom4DataC2Ev@Base 1.3.0~r864
 _ZN6kmldom4DataD0Ev@Base 1.3.0~r864
 _ZN6kmldom4DataD1Ev@Base 1.3.0~r864
 _ZN6kmldom4DataD2Ev@Base 1.3.0~r864
 _ZN6kmldom4Icon6AcceptEPNS_7VisitorE@Base 1.3.0~r864
 _ZN6kmldom4IconC1Ev@Base 1.3.0~r864
 _ZN6kmldom4IconC2Ev@Base 1.3.0~r864
 _ZN6kmldom4IconD0Ev@Base 1.3.0~r864
 _ZN6kmldom4IconD1Ev@Base 1.3.0~r864
 _ZN6kmldom4IconD2Ev@Base 1.3.0~r864
 _ZN6kmldom4Link6AcceptEPNS_7VisitorE@Base 1.3.0~r864
 _ZN6kmldom4LinkC1Ev@Base 1.3.0~r864
 _ZN6kmldom4LinkC2Ev@Base 1.3.0~r864
 _ZN6kmldom4LinkD0Ev@Base 1.3.0~r864
 _ZN6kmldom4LinkD1Ev@Base 1.3.0~r864
 _ZN6kmldom4LinkD2Ev@Base 1.3.0~r864
 _ZN6kmldom4Pair10AddElementERKN5boost13intrusive_ptrINS_7ElementEEE@Base 1.3.0~r864
 _ZN6kmldom4Pair14AcceptChildrenEPNS_13VisitorDriverE@Base 1.3.0~r864
 _ZN6kmldom4Pair6AcceptEPNS_7VisitorE@Base 1.3.0~r864
 _ZN6kmldom4PairC1Ev@Base 1.3.0~r864
 _ZN6kmldom4PairC2Ev@Base 1.3.0~r864
 _ZN6kmldom4PairD0Ev@Base 1.3.0~r864
 _ZN6kmldom4PairD1Ev@Base 1.3.0~r864
 _ZN6kmldom4PairD2Ev@Base 1.3.0~r864
 _ZN6kmldom4Size6AcceptEPNS_7VisitorE@Base 1.3.0~r864
 _ZN6kmldom4SizeC1Ev@Base 1.3.0~r864
 _ZN6kmldom4SizeC2Ev@Base 1.3.0~r864
 _ZN6kmldom4SizeD0Ev@Base 1.3.0~r864
 _ZN6kmldom4SizeD1Ev@Base 1.3.0~r864
 _ZN6kmldom4SizeD2Ev@Base 1.3.0~r864
 _ZN6kmldom4Vec215ParseAttributesEPN7kmlbase10AttributesE@Base 1.3.0~r864
 _ZN6kmldom4Vec26AcceptEPNS_7VisitorE@Base 1.3.0~r864
 _ZN6kmldom4Vec2C1Ev@Base 1.3.0~r864
 _ZN6kmldom4Vec2C2Ev@Base 1.3.0~r864
 _ZN6kmldom4Vec2D0Ev@Base 1.3.0~r864
 _ZN6kmldom4Vec2D1Ev@Base 1.3.0~r864
 _ZN6kmldom4Vec2D2Ev@Base 1.3.0~r864
 _ZN6kmldom5Alias10AddElementERKN5boost13intrusive_ptrINS_7ElementEEE@Base 1.3.0~r864
 _ZN6kmldom5Alias6AcceptEPNS_7VisitorE@Base 1.3.0~r864
 _ZN6kmldom5AliasC1Ev@Base 1.3.0~r864
 _ZN6kmldom5AliasC2Ev@Base 1.3.0~r864
 _ZN6kmldom5AliasD0Ev@Base 1.3.0~r864
 _ZN6kmldom5AliasD1Ev@Base 1.3.0~r864
 _ZN6kmldom5AliasD2Ev@Base 1.3.0~r864
 _ZN6kmldom5AsLodEN5boost13intrusive_ptrINS_7ElementEEE@Base 1.3.0~r864
 _ZN6kmldom5Field6SetIntEPi@Base 1.3.0~r864
 _ZN6kmldom5Field7SetBoolEPb@Base 1.3.0~r864
 _ZN6kmldom5Field7SetEnumEPi@Base 1.3.0~r864
 _ZN6kmldom5Field9SetDoubleEPd@Base 1.3.0~r864
 _ZN6kmldom5Field9SetStringEPNSt7__cxx1112basic_stringIcSt11char_traitsIcESaIcEEE@Base 1.3.0~r864
 _ZN6kmldom5FieldC1ENS_10KmlDomTypeE@Base 1.3.0~r864
 _ZN6kmldom5FieldC2ENS_10KmlDomTypeE@Base 1.3.0~r864
 _ZN6kmldom5FieldD0Ev@Base 1.3.0~r864
 _ZN6kmldom5FieldD1Ev@Base 1.3.0~r864
 _ZN6kmldom5FieldD2Ev@Base 1.3.0~r864
 _ZN6kmldom5Model10AddElementERKN5boost13intrusive_ptrINS_7ElementEEE@Base 1.3.0~r864
 _ZN6kmldom5Model14AcceptChildrenEPNS_13VisitorDriverE@Base 1.3.0~r864
 _ZN6kmldom5Model6AcceptEPNS_7VisitorE@Base 1.3.0~r864
 _ZN6kmldom5ModelC1Ev@Base 1.3.0~r864
 _ZN6kmldom5ModelC2Ev@Base 1.3.0~r864
 _ZN6kmldom5ModelD0Ev@Base 1.3.0~r864
 _ZN6kmldom5ModelD1Ev@Base 1.3.0~r864
 _ZN6kmldom5ModelD2Ev@Base 1.3.0~r864
 _ZN6kmldom5ParseERKNSt7__cxx1112basic_stringIcSt11char_traitsIcESaIcEEEPS5_@Base 1.3.0~r864
 _ZN6kmldom5Point6AcceptEPNS_7VisitorE@Base 1.3.0~r864
 _ZN6kmldom5PointC1Ev@Base 1.3.0~r864
 _ZN6kmldom5PointC2Ev@Base 1.3.0~r864
 _ZN6kmldom5PointD0Ev@Base 1.3.0~r864
 _ZN6kmldom5PointD1Ev@Base 1.3.0~r864
 _ZN6kmldom5PointD2Ev@Base 1.3.0~r864
 _ZN6kmldom5Scale10AddElementERKN5boost13intrusive_ptrINS_7ElementEEE@Base 1.3.0~r864
 _ZN6kmldom5Scale6AcceptEPNS_7VisitorE@Base 1.3.0~r864
 _ZN6kmldom5ScaleC1Ev@Base 1.3.0~r864
 _ZN6kmldom5ScaleC2Ev@Base 1.3.0~r864
 _ZN6kmldom5ScaleD0Ev@Base 1.3.0~r864
 _ZN6kmldom5ScaleD1Ev@Base 1.3.0~r864
 _ZN6kmldom5ScaleD2Ev@Base 1.3.0~r864
 _ZN6kmldom5Style10AddElementERKN5boost13intrusive_ptrINS_7ElementEEE@Base 1.3.0~r864
 _ZN6kmldom5Style14AcceptChildrenEPNS_13VisitorDriverE@Base 1.3.0~r864
 _ZN6kmldom5Style6AcceptEPNS_7VisitorE@Base 1.3.0~r864
 _ZN6kmldom5StyleC1Ev@Base 1.3.0~r864
 _ZN6kmldom5StyleC2Ev@Base 1.3.0~r864
 _ZN6kmldom5StyleD0Ev@Base 1.3.0~r864
 _ZN6kmldom5StyleD1Ev@Base 1.3.0~r864
 _ZN6kmldom5StyleD2Ev@Base 1.3.0~r864
 _ZN6kmldom6AsDataEN5boost13intrusive_ptrINS_7ElementEEE@Base 1.3.0~r864
 _ZN6kmldom6AsIconEN5boost13intrusive_ptrINS_7ElementEEE@Base 1.3.0~r864
 _ZN6kmldom6AsLinkEN5boost13intrusive_ptrINS_7ElementEEE@Base 1.3.0~r864
 _ZN6kmldom6AsPairEN5boost13intrusive_ptrINS_7ElementEEE@Base 1.3.0~r864
 _ZN6kmldom6AsSizeEN5boost13intrusive_ptrINS_7ElementEEE@Base 1.3.0~r864
 _ZN6kmldom6Camera10AddElementERKN5boost13intrusive_ptrINS_7ElementEEE@Base 1.3.0~r864
 _ZN6kmldom6Camera6AcceptEPNS_7VisitorE@Base 1.3.0~r864
 _ZN6kmldom6CameraC1Ev@Base 1.3.0~r864
 _ZN6kmldom6CameraC2Ev@Base 1.3.0~r864
 _ZN6kmldom6CameraD0Ev@Base 1.3.0~r864
 _ZN6kmldom6CameraD1Ev@Base 1.3.0~r864
 _ZN6kmldom6CameraD2Ev@Base 1.3.0~r864
 _ZN6kmldom6Change10AddElementERKN5boost13intrusive_ptrINS_7ElementEEE@Base 1.3.0~r864
 _ZN6kmldom6Change14AcceptChildrenEPNS_13VisitorDriverE@Base 1.3.0~r864
 _ZN6kmldom6Change6AcceptEPNS_7VisitorE@Base 1.3.0~r864
 _ZN6kmldom6ChangeC1Ev@Base 1.3.0~r864
 _ZN6kmldom6ChangeC2Ev@Base 1.3.0~r864
 _ZN6kmldom6ChangeD0Ev@Base 1.3.0~r864
 _ZN6kmldom6ChangeD1Ev@Base 1.3.0~r864
 _ZN6kmldom6ChangeD2Ev@Base 1.3.0~r864
 _ZN6kmldom6Create10AddElementERKN5boost13intrusive_ptrINS_7ElementEEE@Base 1.3.0~r864
 _ZN6kmldom6Create14AcceptChildrenEPNS_13VisitorDriverE@Base 1.3.0~r864
 _ZN6kmldom6Create6AcceptEPNS_7VisitorE@Base 1.3.0~r864
 _ZN6kmldom6CreateC1Ev@Base 1.3.0~r864
 _ZN6kmldom6CreateC2Ev@Base 1.3.0~r864
 _ZN6kmldom6CreateD0Ev@Base 1.3.0~r864
 _ZN6kmldom6CreateD1Ev@Base 1.3.0~r864
 _ZN6kmldom6CreateD2Ev@Base 1.3.0~r864
 _ZN6kmldom6Delete10AddElementERKN5boost13intrusive_ptrINS_7ElementEEE@Base 1.3.0~r864
 _ZN6kmldom6Delete14AcceptChildrenEPNS_13VisitorDriverE@Base 1.3.0~r864
 _ZN6kmldom6Delete6AcceptEPNS_7VisitorE@Base 1.3.0~r864
 _ZN6kmldom6DeleteC1Ev@Base 1.3.0~r864
 _ZN6kmldom6DeleteC2Ev@Base 1.3.0~r864
 _ZN6kmldom6DeleteD0Ev@Base 1.3.0~r864
 _ZN6kmldom6DeleteD1Ev@Base 1.3.0~r864
 _ZN6kmldom6DeleteD2Ev@Base 1.3.0~r864
 _ZN6kmldom6Folder6AcceptEPNS_7VisitorE@Base 1.3.0~r864
 _ZN6kmldom6FolderC1Ev@Base 1.3.0~r864
 _ZN6kmldom6FolderC2Ev@Base 1.3.0~r864
 _ZN6kmldom6FolderD0Ev@Base 1.3.0~r864
 _ZN6kmldom6FolderD1Ev@Base 1.3.0~r864
 _ZN6kmldom6FolderD2Ev@Base 1.3.0~r864
 _ZN6kmldom6GxTour10AddElementERKN5boost13intrusive_ptrINS_7ElementEEE@Base 1.3.0~r864
 _ZN6kmldom6GxTour14AcceptChildrenEPNS_13VisitorDriverE@Base 1.3.0~r864
 _ZN6kmldom6GxTour6AcceptEPNS_7VisitorE@Base 1.3.0~r864
 _ZN6kmldom6GxTourC1Ev@Base 1.3.0~r864
 _ZN6kmldom6GxTourC2Ev@Base 1.3.0~r864
 _ZN6kmldom6GxTourD0Ev@Base 1.3.0~r864
 _ZN6kmldom6GxTourD1Ev@Base 1.3.0~r864
 _ZN6kmldom6GxTourD2Ev@Base 1.3.0~r864
 _ZN6kmldom6GxWait6AcceptEPNS_7VisitorE@Base 1.3.0~r864
 _ZN6kmldom6GxWaitC1Ev@Base 1.3.0~r864
 _ZN6kmldom6GxWaitC2Ev@Base 1.3.0~r864
 _ZN6kmldom6GxWaitD0Ev@Base 1.3.0~r864
 _ZN6kmldom6GxWaitD1Ev@Base 1.3.0~r864
 _ZN6kmldom6GxWaitD2Ev@Base 1.3.0~r864
 _ZN6kmldom6LookAt10AddElementERKN5boost13intrusive_ptrINS_7ElementEEE@Base 1.3.0~r864
 _ZN6kmldom6LookAt6AcceptEPNS_7VisitorE@Base 1.3.0~r864
 _ZN6kmldom6LookAtC1Ev@Base 1.3.0~r864
 _ZN6kmldom6LookAtC2Ev@Base 1.3.0~r864
 _ZN6kmldom6LookAtD0Ev@Base 1.3.0~r864
 _ZN6kmldom6LookAtD1Ev@Base 1.3.0~r864
 _ZN6kmldom6LookAtD2Ev@Base 1.3.0~r864
 _ZN6kmldom6Object10AddElementERKN5boost13intrusive_ptrINS_7ElementEEE@Base 1.3.0~r864
 _ZN6kmldom6Object15ParseAttributesEPN7kmlbase10AttributesE@Base 1.3.0~r864
 _ZN6kmldom6ObjectC1Ev@Base 1.3.0~r864
 _ZN6kmldom6ObjectC2Ev@Base 1.3.0~r864
 _ZN6kmldom6ObjectD0Ev@Base 1.3.0~r864
 _ZN6kmldom6ObjectD1Ev@Base 1.3.0~r864
 _ZN6kmldom6ObjectD2Ev@Base 1.3.0~r864
 _ZN6kmldom6Parser11AddObserverEPNS_14ParserObserverE@Base 1.3.0~r864
 _ZN6kmldom6Parser5ParseERKNSt7__cxx1112basic_stringIcSt11char_traitsIcESaIcEEEPS6_@Base 1.3.0~r864
 _ZN6kmldom6Parser7ParseNSERKNSt7__cxx1112basic_stringIcSt11char_traitsIcESaIcEEEPS6_@Base 1.3.0~r864
 _ZN6kmldom6Parser9ParseAtomERKNSt7__cxx1112basic_stringIcSt11char_traitsIcESaIcEEEPS6_@Base 1.3.0~r864
 _ZN6kmldom6Region10AddElementERKN5boost13intrusive_ptrINS_7ElementEEE@Base 1.3.0~r864
 _ZN6kmldom6Region14AcceptChildrenEPNS_13VisitorDriverE@Base 1.3.0~r864
 _ZN6kmldom6Region6AcceptEPNS_7VisitorE@Base 1.3.0~r864
 _ZN6kmldom6RegionC1Ev@Base 1.3.0~r864
 _ZN6kmldom6RegionC2Ev@Base 1.3.0~r864
 _ZN6kmldom6RegionD0Ev@Base 1.3.0~r864
 _ZN6kmldom6RegionD1Ev@Base 1.3.0~r864
 _ZN6kmldom6RegionD2Ev@Base 1.3.0~r864
 _ZN6kmldom6Schema10AddElementERKN5boost13intrusive_ptrINS_7ElementEEE@Base 1.3.0~r864
 _ZN6kmldom6Schema14AcceptChildrenEPNS_13VisitorDriverE@Base 1.3.0~r864
 _ZN6kmldom6Schema15ParseAttributesEPN7kmlbase10AttributesE@Base 1.3.0~r864
 _ZN6kmldom6Schema6AcceptEPNS_7VisitorE@Base 1.3.0~r864
 _ZN6kmldom6SchemaC1Ev@Base 1.3.0~r864
 _ZN6kmldom6SchemaC2Ev@Base 1.3.0~r864
 _ZN6kmldom6SchemaD0Ev@Base 1.3.0~r864
 _ZN6kmldom6SchemaD1Ev@Base 1.3.0~r864
 _ZN6kmldom6SchemaD2Ev@Base 1.3.0~r864
 _ZN6kmldom6Update10AddElementERKN5boost13intrusive_ptrINS_7ElementEEE@Base 1.3.0~r864
 _ZN6kmldom6Update14AcceptChildrenEPNS_13VisitorDriverE@Base 1.3.0~r864
 _ZN6kmldom6Update6AcceptEPNS_7VisitorE@Base 1.3.0~r864
 _ZN6kmldom6UpdateC1Ev@Base 1.3.0~r864
 _ZN6kmldom6UpdateC2Ev@Base 1.3.0~r864
 _ZN6kmldom6UpdateD0Ev@Base 1.3.0~r864
 _ZN6kmldom6UpdateD1Ev@Base 1.3.0~r864
 _ZN6kmldom6UpdateD2Ev@Base 1.3.0~r864
 _ZN6kmldom7AsAliasEN5boost13intrusive_ptrINS_7ElementEEE@Base 1.3.0~r864
 _ZN6kmldom7AsModelEN5boost13intrusive_ptrINS_7ElementEEE@Base 1.3.0~r864
 _ZN6kmldom7AsPointEN5boost13intrusive_ptrINS_7ElementEEE@Base 1.3.0~r864
 _ZN6kmldom7AsScaleEN5boost13intrusive_ptrINS_7ElementEEE@Base 1.3.0~r864
 _ZN6kmldom7AsStyleEN5boost13intrusive_ptrINS_7ElementEEE@Base 1.3.0~r864
 _ZN6kmldom7Element10AddElementERKN5boost13intrusive_ptrIS0_EE@Base 1.3.0~r864
 _ZN6kmldom7Element10MergeXmlnsERKN7kmlbase10AttributesE@Base 1.3.0~r864
 _ZN6kmldom7Element14AcceptChildrenEPNS_13VisitorDriverE@Base 1.3.0~r864
 _ZN6kmldom7Element15ParseAttributesEPN7kmlbase10AttributesE@Base 1.3.0~r864
 _ZN6kmldom7Element17AddUnknownElementERKNSt7__cxx1112basic_stringIcSt11char_traitsIcESaIcEEE@Base 1.3.0~r864
 _ZN6kmldom7Element20AddUnknownAttributesEPN7kmlbase10AttributesE@Base 1.3.0~r864
 _ZN6kmldom7Element6AcceptEPNS_7VisitorE@Base 1.3.0~r864
 _ZN6kmldom7Element6SetIntEPi@Base 1.3.0~r864
 _ZN6kmldom7Element7SetBoolEPb@Base 1.3.0~r864
 _ZN6kmldom7Element7SetEnumEPi@Base 1.3.0~r864
 _ZN6kmldom7Element9SetDoubleEPd@Base 1.3.0~r864
 _ZN6kmldom7Element9SetStringEPNSt7__cxx1112basic_stringIcSt11char_traitsIcESaIcEEE@Base 1.3.0~r864
 _ZN6kmldom7ElementC1ENS_10KmlDomTypeE@Base 1.3.0~r864
 _ZN6kmldom7ElementC1Ev@Base 1.3.0~r864
 _ZN6kmldom7ElementC2ENS_10KmlDomTypeE@Base 1.3.0~r864
 _ZN6kmldom7ElementC2Ev@Base 1.3.0~r864
 _ZN6kmldom7ElementD0Ev@Base 1.3.0~r864
 _ZN6kmldom7ElementD1Ev@Base 1.3.0~r864
 _ZN6kmldom7ElementD2Ev@Base 1.3.0~r864
 _ZN6kmldom7Feature10AddElementERKN5boost13intrusive_ptrINS_7ElementEEE@Base 1.3.0~r864
 _ZN6kmldom7Feature14AcceptChildrenEPNS_13VisitorDriverE@Base 1.3.0~r864
 _ZN6kmldom7FeatureC1Ev@Base 1.3.0~r864
 _ZN6kmldom7FeatureC2Ev@Base 1.3.0~r864
 _ZN6kmldom7FeatureD0Ev@Base 1.3.0~r864
 _ZN6kmldom7FeatureD1Ev@Base 1.3.0~r864
 _ZN6kmldom7FeatureD2Ev@Base 1.3.0~r864
 _ZN6kmldom7GxFlyTo10AddElementERKN5boost13intrusive_ptrINS_7ElementEEE@Base 1.3.0~r864
 _ZN6kmldom7GxFlyTo14AcceptChildrenEPNS_13VisitorDriverE@Base 1.3.0~r864
 _ZN6kmldom7GxFlyTo6AcceptEPNS_7VisitorE@Base 1.3.0~r864
 _ZN6kmldom7GxFlyToC1Ev@Base 1.3.0~r864
 _ZN6kmldom7GxFlyToC2Ev@Base 1.3.0~r864
 _ZN6kmldom7GxFlyToD0Ev@Base 1.3.0~r864
 _ZN6kmldom7GxFlyToD1Ev@Base 1.3.0~r864
 _ZN6kmldom7GxFlyToD2Ev@Base 1.3.0~r864
 _ZN6kmldom7GxTrack10AddElementERKN5boost13intrusive_ptrINS_7ElementEEE@Base 1.3.0~r864
 _ZN6kmldom7GxTrack14AcceptChildrenEPNS_13VisitorDriverE@Base 1.3.0~r864
 _ZN6kmldom7GxTrack5ParseERKNSt7__cxx1112basic_stringIcSt11char_traitsIcESaIcEEEPSt6vectorIN7kmlbase4Vec3ESaISB_EE@Base 1.3.0~r864
 _ZN6kmldom7GxTrack6AcceptEPNS_7VisitorE@Base 1.3.0~r864
 _ZN6kmldom7GxTrackC1Ev@Base 1.3.0~r864
 _ZN6kmldom7GxTrackC2Ev@Base 1.3.0~r864
 _ZN6kmldom7GxTrackD0Ev@Base 1.3.0~r864
 _ZN6kmldom7GxTrackD1Ev@Base 1.3.0~r864
 _ZN6kmldom7GxTrackD2Ev@Base 1.3.0~r864
 _ZN6kmldom7HotSpotC1Ev@Base 1.3.0~r864
 _ZN6kmldom7HotSpotC2Ev@Base 1.3.0~r864
 _ZN6kmldom7HotSpotD0Ev@Base 1.3.0~r864
 _ZN6kmldom7HotSpotD1Ev@Base 1.3.0~r864
 _ZN6kmldom7HotSpotD2Ev@Base 1.3.0~r864
 _ZN6kmldom7Overlay10AddElementERKN5boost13intrusive_ptrINS_7ElementEEE@Base 1.3.0~r864
 _ZN6kmldom7Overlay14AcceptChildrenEPNS_13VisitorDriverE@Base 1.3.0~r864
 _ZN6kmldom7OverlayC1Ev@Base 1.3.0~r864
 _ZN6kmldom7OverlayC2Ev@Base 1.3.0~r864
 _ZN6kmldom7OverlayD0Ev@Base 1.3.0~r864
 _ZN6kmldom7OverlayD1Ev@Base 1.3.0~r864
 _ZN6kmldom7OverlayD2Ev@Base 1.3.0~r864
 _ZN6kmldom7ParseNSERKNSt7__cxx1112basic_stringIcSt11char_traitsIcESaIcEEEPS5_@Base 1.3.0~r864
 _ZN6kmldom7Polygon10AddElementERKN5boost13intrusive_ptrINS_7ElementEEE@Base 1.3.0~r864
 _ZN6kmldom7Polygon14AcceptChildrenEPNS_13VisitorDriverE@Base 1.3.0~r864
 _ZN6kmldom7Polygon6AcceptEPNS_7VisitorE@Base 1.3.0~r864
 _ZN6kmldom7PolygonC1Ev@Base 1.3.0~r864
 _ZN6kmldom7PolygonC2Ev@Base 1.3.0~r864
 _ZN6kmldom7PolygonD0Ev@Base 1.3.0~r864
 _ZN6kmldom7PolygonD1Ev@Base 1.3.0~r864
 _ZN6kmldom7PolygonD2Ev@Base 1.3.0~r864
 _ZN6kmldom7Snippet6AcceptEPNS_7VisitorE@Base 1.3.0~r864
 _ZN6kmldom7SnippetC1Ev@Base 1.3.0~r864
 _ZN6kmldom7SnippetC2Ev@Base 1.3.0~r864
 _ZN6kmldom7SnippetD0Ev@Base 1.3.0~r864
 _ZN6kmldom7SnippetD1Ev@Base 1.3.0~r864
 _ZN6kmldom7SnippetD2Ev@Base 1.3.0~r864
 _ZN6kmldom7Visitor10VisitAliasERKN5boost13intrusive_ptrINS_5AliasEEE@Base 1.3.0~r864
 _ZN6kmldom7Visitor10VisitFieldERKN5boost13intrusive_ptrINS_5FieldEEE@Base 1.3.0~r864
 _ZN6kmldom7Visitor10VisitModelERKN5boost13intrusive_ptrINS_5ModelEEE@Base 1.3.0~r864
 _ZN6kmldom7Visitor10VisitPointERKN5boost13intrusive_ptrINS_5PointEEE@Base 1.3.0~r864
 _ZN6kmldom7Visitor10VisitScaleERKN5boost13intrusive_ptrINS_5ScaleEEE@Base 1.3.0~r864
 _ZN6kmldom7Visitor10VisitStyleERKN5boost13intrusive_ptrINS_5StyleEEE@Base 1.3.0~r864
 _ZN6kmldom7Visitor11VisitCameraERKN5boost13intrusive_ptrINS_6CameraEEE@Base 1.3.0~r864
 _ZN6kmldom7Visitor11VisitChangeERKN5boost13intrusive_ptrINS_6ChangeEEE@Base 1.3.0~r864
 _ZN6kmldom7Visitor11VisitCreateERKN5boost13intrusive_ptrINS_6CreateEEE@Base 1.3.0~r864
 _ZN6kmldom7Visitor11VisitDeleteERKN5boost13intrusive_ptrINS_6DeleteEEE@Base 1.3.0~r864
 _ZN6kmldom7Visitor11VisitFolderERKN5boost13intrusive_ptrINS_6FolderEEE@Base 1.3.0~r864
 _ZN6kmldom7Visitor11VisitGxTourERKN5boost13intrusive_ptrINS_6GxTourEEE@Base 1.3.0~r864
 _ZN6kmldom7Visitor11VisitGxWaitERKN5boost13intrusive_ptrINS_6GxWaitEEE@Base 1.3.0~r864
 _ZN6kmldom7Visitor11VisitLookAtERKN5boost13intrusive_ptrINS_6LookAtEEE@Base 1.3.0~r864
 _ZN6kmldom7Visitor11VisitObjectERKN5boost13intrusive_ptrINS_6ObjectEEE@Base 1.3.0~r864
 _ZN6kmldom7Visitor11VisitRegionERKN5boost13intrusive_ptrINS_6RegionEEE@Base 1.3.0~r864
 _ZN6kmldom7Visitor11VisitSchemaERKN5boost13intrusive_ptrINS_6SchemaEEE@Base 1.3.0~r864
 _ZN6kmldom7Visitor11VisitUpdateERKN5boost13intrusive_ptrINS_6UpdateEEE@Base 1.3.0~r864
 _ZN6kmldom7Visitor12VisitElementERKN5boost13intrusive_ptrINS_7ElementEEE@Base 1.3.0~r864
 _ZN6kmldom7Visitor12VisitFeatureERKN5boost13intrusive_ptrINS_7FeatureEEE@Base 1.3.0~r864
 _ZN6kmldom7Visitor12VisitGxFlyToERKN5boost13intrusive_ptrINS_7GxFlyToEEE@Base 1.3.0~r864
 _ZN6kmldom7Visitor12VisitGxTrackERKN5boost13intrusive_ptrINS_7GxTrackEEE@Base 1.3.0~r864
 _ZN6kmldom7Visitor12VisitHotSpotERKN5boost13intrusive_ptrINS_7HotSpotEEE@Base 1.3.0~r864
 _ZN6kmldom7Visitor12VisitOverlayERKN5boost13intrusive_ptrINS_7OverlayEEE@Base 1.3.0~r864
 _ZN6kmldom7Visitor12VisitPolygonERKN5boost13intrusive_ptrINS_7PolygonEEE@Base 1.3.0~r864
 _ZN6kmldom7Visitor12VisitSnippetERKN5boost13intrusive_ptrINS_7SnippetEEE@Base 1.3.0~r864
 _ZN6kmldom7Visitor13VisitDocumentERKN5boost13intrusive_ptrINS_8DocumentEEE@Base 1.3.0~r864
 _ZN6kmldom7Visitor13VisitGeometryERKN5boost13intrusive_ptrINS_8GeometryEEE@Base 1.3.0~r864
 _ZN6kmldom7Visitor13VisitItemIconERKN5boost13intrusive_ptrINS_8ItemIconEEE@Base 1.3.0~r864
 _ZN6kmldom7Visitor13VisitLocationERKN5boost13intrusive_ptrINS_8LocationEEE@Base 1.3.0~r864
 _ZN6kmldom7Visitor13VisitMetadataERKN5boost13intrusive_ptrINS_8MetadataEEE@Base 1.3.0~r864
 _ZN6kmldom7Visitor13VisitScreenXYERKN5boost13intrusive_ptrINS_8ScreenXYEEE@Base 1.3.0~r864
 _ZN6kmldom7Visitor13VisitStyleMapERKN5boost13intrusive_ptrINS_8StyleMapEEE@Base 1.3.0~r864
 _ZN6kmldom7Visitor13VisitSubStyleERKN5boost13intrusive_ptrINS_8SubStyleEEE@Base 1.3.0~r864
 _ZN6kmldom7Visitor13VisitTimeSpanERKN5boost13intrusive_ptrINS_8TimeSpanEEE@Base 1.3.0~r864
 _ZN6kmldom7Visitor14VisitBasicLinkERKN5boost13intrusive_ptrINS_9BasicLinkEEE@Base 1.3.0~r864
 _ZN6kmldom7Visitor14VisitContainerERKN5boost13intrusive_ptrINS_9ContainerEEE@Base 1.3.0~r864
 _ZN6kmldom7Visitor14VisitIconStyleERKN5boost13intrusive_ptrINS_9IconStyleEEE@Base 1.3.0~r864
 _ZN6kmldom7Visitor14VisitLatLonBoxERKN5boost13intrusive_ptrINS_9LatLonBoxEEE@Base 1.3.0~r864
 _ZN6kmldom7Visitor14VisitLineStyleERKN5boost13intrusive_ptrINS_9LineStyleEEE@Base 1.3.0~r864
 _ZN6kmldom7Visitor14VisitListStyleERKN5boost13intrusive_ptrINS_9ListStyleEEE@Base 1.3.0~r864
 _ZN6kmldom7Visitor14VisitOverlayXYERKN5boost13intrusive_ptrINS_9OverlayXYEEE@Base 1.3.0~r864
 _ZN6kmldom7Visitor14VisitPlacemarkERKN5boost13intrusive_ptrINS_9PlacemarkEEE@Base 1.3.0~r864
 _ZN6kmldom7Visitor14VisitPolyStyleERKN5boost13intrusive_ptrINS_9PolyStyleEEE@Base 1.3.0~r864
 _ZN6kmldom7Visitor14VisitTimeStampERKN5boost13intrusive_ptrINS_9TimeStampEEE@Base 1.3.0~r864
 _ZN6kmldom7Visitor15VisitColorStyleERKN5boost13intrusive_ptrINS_10ColorStyleEEE@Base 1.3.0~r864
 _ZN6kmldom7Visitor15VisitGxPlaylistERKN5boost13intrusive_ptrINS_10GxPlaylistEEE@Base 1.3.0~r864
 _ZN6kmldom7Visitor15VisitGxSoundCueERKN5boost13intrusive_ptrINS_10GxSoundCueEEE@Base 1.3.0~r864
 _ZN6kmldom7Visitor15VisitGxTimeSpanERKN5boost13intrusive_ptrINS_10GxTimeSpanEEE@Base 1.3.0~r864
 _ZN6kmldom7Visitor15VisitLabelStyleERKN5boost13intrusive_ptrINS_10LabelStyleEEE@Base 1.3.0~r864
 _ZN6kmldom7Visitor15VisitLineStringERKN5boost13intrusive_ptrINS_10LineStringEEE@Base 1.3.0~r864
 _ZN6kmldom7Visitor15VisitLinearRingERKN5boost13intrusive_ptrINS_10LinearRingEEE@Base 1.3.0~r864
 _ZN6kmldom7Visitor15VisitRotationXYERKN5boost13intrusive_ptrINS_10RotationXYEEE@Base 1.3.0~r864
 _ZN6kmldom7Visitor15VisitSchemaDataERKN5boost13intrusive_ptrINS_10SchemaDataEEE@Base 1.3.0~r864
 _ZN6kmldom7Visitor15VisitSimpleDataERKN5boost13intrusive_ptrINS_10SimpleDataEEE@Base 1.3.0~r864
 _ZN6kmldom7Visitor15VisitViewVolumeERKN5boost13intrusive_ptrINS_10ViewVolumeEEE@Base 1.3.0~r864
 _ZN6kmldom7Visitor16VisitCoordinatesERKN5boost13intrusive_ptrINS_11CoordinatesEEE@Base 1.3.0~r864
 _ZN6kmldom7Visitor16VisitGxTimeStampERKN5boost13intrusive_ptrINS_11GxTimeStampEEE@Base 1.3.0~r864
 _ZN6kmldom7Visitor16VisitLinkSnippetERKN5boost13intrusive_ptrINS_11LinkSnippetEEE@Base 1.3.0~r864
 _ZN6kmldom7Visitor16VisitNetworkLinkERKN5boost13intrusive_ptrINS_11NetworkLinkEEE@Base 1.3.0~r864
 _ZN6kmldom7Visitor16VisitOrientationERKN5boost13intrusive_ptrINS_11OrientationEEE@Base 1.3.0~r864
 _ZN6kmldom7Visitor16VisitResourceMapERKN5boost13intrusive_ptrINS_11ResourceMapEEE@Base 1.3.0~r864
 _ZN6kmldom7Visitor16VisitSimpleFieldERKN5boost13intrusive_ptrINS_11SimpleFieldEEE@Base 1.3.0~r864
 _ZN6kmldom7Visitor17VisitAbstractLinkERKN5boost13intrusive_ptrINS_12AbstractLinkEEE@Base 1.3.0~r864
 _ZN6kmldom7Visitor17VisitAbstractViewERKN5boost13intrusive_ptrINS_12AbstractViewEEE@Base 1.3.0~r864
 _ZN6kmldom7Visitor17VisitBalloonStyleERKN5boost13intrusive_ptrINS_12BalloonStyleEEE@Base 1.3.0~r864
 _ZN6kmldom7Visitor17VisitExtendedDataERKN5boost13intrusive_ptrINS_12ExtendedDataEEE@Base 1.3.0~r864
 _ZN6kmldom7Visitor17VisitGxLatLonQuadERKN5boost13intrusive_ptrINS_12GxLatLonQuadEEE@Base 1.3.0~r864
 _ZN6kmldom7Visitor17VisitGxMultiTrackERKN5boost13intrusive_ptrINS_12GxMultiTrackEEE@Base 1.3.0~r864
 _ZN6kmldom7Visitor17VisitImagePyramidERKN5boost13intrusive_ptrINS_12ImagePyramidEEE@Base 1.3.0~r864
 _ZN6kmldom7Visitor17VisitLatLonAltBoxERKN5boost13intrusive_ptrINS_12LatLonAltBoxEEE@Base 1.3.0~r864
 _ZN6kmldom7Visitor17VisitPhotoOverlayERKN5boost13intrusive_ptrINS_12PhotoOverlayEEE@Base 1.3.0~r864
 _ZN6kmldom7Visitor18VisitGroundOverlayERKN5boost13intrusive_ptrINS_13GroundOverlayEEE@Base 1.3.0~r864
 _ZN6kmldom7Visitor18VisitGxTourControlERKN5boost13intrusive_ptrINS_13GxTourControlEEE@Base 1.3.0~r864
 _ZN6kmldom7Visitor18VisitIconStyleIconERKN5boost13intrusive_ptrINS_13IconStyleIconEEE@Base 1.3.0~r864
 _ZN6kmldom7Visitor18VisitMultiGeometryERKN5boost13intrusive_ptrINS_13MultiGeometryEEE@Base 1.3.0~r864
 _ZN6kmldom7Visitor18VisitScreenOverlayERKN5boost13intrusive_ptrINS_13ScreenOverlayEEE@Base 1.3.0~r864
 _ZN6kmldom7Visitor18VisitStyleSelectorERKN5boost13intrusive_ptrINS_13StyleSelectorEEE@Base 1.3.0~r864
 _ZN6kmldom7Visitor18VisitTimePrimitiveERKN5boost13intrusive_ptrINS_13TimePrimitiveEEE@Base 1.3.0~r864
 _ZN6kmldom7Visitor20VisitGxTourPrimitiveERKN5boost13intrusive_ptrINS_15GxTourPrimitiveEEE@Base 1.3.0~r864
 _ZN6kmldom7Visitor20VisitInnerBoundaryIsERKN5boost13intrusive_ptrINS_15InnerBoundaryIsEEE@Base 1.3.0~r864
 _ZN6kmldom7Visitor20VisitOuterBoundaryIsERKN5boost13intrusive_ptrINS_15OuterBoundaryIsEEE@Base 1.3.0~r864
 _ZN6kmldom7Visitor20VisitUpdateOperationERKN5boost13intrusive_ptrINS_15UpdateOperationEEE@Base 1.3.0~r864
 _ZN6kmldom7Visitor21VisitGxAnimatedUpdateERKN5boost13intrusive_ptrINS_16GxAnimatedUpdateEEE@Base 1.3.0~r864
 _ZN6kmldom7Visitor22VisitAbstractLatLonBoxERKN5boost13intrusive_ptrINS_17AbstractLatLonBoxEEE@Base 1.3.0~r864
 _ZN6kmldom7Visitor22VisitGxSimpleArrayDataERKN5boost13intrusive_ptrINS_17GxSimpleArrayDataEEE@Base 1.3.0~r864
 _ZN6kmldom7Visitor23VisitGxSimpleArrayFieldERKN5boost13intrusive_ptrINS_18GxSimpleArrayFieldEEE@Base 1.3.0~r864
 _ZN6kmldom7Visitor23VisitNetworkLinkControlERKN5boost13intrusive_ptrINS_18NetworkLinkControlEEE@Base 1.3.0~r864
 _ZN6kmldom7Visitor8VisitKmlERKN5boost13intrusive_ptrINS_3KmlEEE@Base 1.3.0~r864
 _ZN6kmldom7Visitor8VisitLodERKN5boost13intrusive_ptrINS_3LodEEE@Base 1.3.0~r864
 _ZN6kmldom7Visitor8VisitUrlERKN5boost13intrusive_ptrINS_3UrlEEE@Base 1.3.0~r864
 _ZN6kmldom7Visitor9VisitDataERKN5boost13intrusive_ptrINS_4DataEEE@Base 1.3.0~r864
 _ZN6kmldom7Visitor9VisitIconERKN5boost13intrusive_ptrINS_4IconEEE@Base 1.3.0~r864
 _ZN6kmldom7Visitor9VisitLinkERKN5boost13intrusive_ptrINS_4LinkEEE@Base 1.3.0~r864
 _ZN6kmldom7Visitor9VisitPairERKN5boost13intrusive_ptrINS_4PairEEE@Base 1.3.0~r864
 _ZN6kmldom7Visitor9VisitSizeERKN5boost13intrusive_ptrINS_4SizeEEE@Base 1.3.0~r864
 _ZN6kmldom7Visitor9VisitVec2ERKN5boost13intrusive_ptrINS_4Vec2EEE@Base 1.3.0~r864
 _ZN6kmldom7VisitorC1Ev@Base 1.3.0~r864
 _ZN6kmldom7VisitorC2Ev@Base 1.3.0~r864
 _ZN6kmldom7VisitorD0Ev@Base 1.3.0~r864
 _ZN6kmldom7VisitorD1Ev@Base 1.3.0~r864
 _ZN6kmldom7VisitorD2Ev@Base 1.3.0~r864
 _ZN6kmldom8AsCameraEN5boost13intrusive_ptrINS_7ElementEEE@Base 1.3.0~r864
 _ZN6kmldom8AsChangeEN5boost13intrusive_ptrINS_7ElementEEE@Base 1.3.0~r864
 _ZN6kmldom8AsCreateEN5boost13intrusive_ptrINS_7ElementEEE@Base 1.3.0~r864
 _ZN6kmldom8AsDeleteEN5boost13intrusive_ptrINS_7ElementEEE@Base 1.3.0~r864
 _ZN6kmldom8AsFolderEN5boost13intrusive_ptrINS_7ElementEEE@Base 1.3.0~r864
 _ZN6kmldom8AsLookAtEN5boost13intrusive_ptrINS_7ElementEEE@Base 1.3.0~r864
 _ZN6kmldom8AsObjectEN5boost13intrusive_ptrINS_7ElementEEE@Base 1.3.0~r864
 _ZN6kmldom8AsRegionEN5boost13intrusive_ptrINS_7ElementEEE@Base 1.3.0~r864
 _ZN6kmldom8AsSchemaEN5boost13intrusive_ptrINS_7ElementEEE@Base 1.3.0~r864
 _ZN6kmldom8AsUpdateEN5boost13intrusive_ptrINS_7ElementEEE@Base 1.3.0~r864
 _ZN6kmldom8AtomFeed10AddElementERKN5boost13intrusive_ptrINS_7ElementEEE@Base 1.3.0~r864
 _ZN6kmldom8AtomFeed9add_entryERKN5boost13intrusive_ptrINS_9AtomEntryEEE@Base 1.3.0~r864
 _ZN6kmldom8AtomFeedC1Ev@Base 1.3.0~r864
 _ZN6kmldom8AtomFeedC2Ev@Base 1.3.0~r864
 _ZN6kmldom8AtomFeedD0Ev@Base 1.3.0~r864
 _ZN6kmldom8AtomFeedD1Ev@Base 1.3.0~r864
 _ZN6kmldom8AtomFeedD2Ev@Base 1.3.0~r864
 _ZN6kmldom8AtomLink10AddElementERKN5boost13intrusive_ptrINS_7ElementEEE@Base 1.3.0~r864
 _ZN6kmldom8AtomLink15ParseAttributesEPN7kmlbase10AttributesE@Base 1.3.0~r864
 _ZN6kmldom8AtomLinkC1Ev@Base 1.3.0~r864
 _ZN6kmldom8AtomLinkC2Ev@Base 1.3.0~r864
 _ZN6kmldom8AtomLinkD0Ev@Base 1.3.0~r864
 _ZN6kmldom8AtomLinkD1Ev@Base 1.3.0~r864
 _ZN6kmldom8AtomLinkD2Ev@Base 1.3.0~r864
 _ZN6kmldom8Document10AddElementERKN5boost13intrusive_ptrINS_7ElementEEE@Base 1.3.0~r864
 _ZN6kmldom8Document14AcceptChildrenEPNS_13VisitorDriverE@Base 1.3.0~r864
 _ZN6kmldom8Document6AcceptEPNS_7VisitorE@Base 1.3.0~r864
 _ZN6kmldom8DocumentC1Ev@Base 1.3.0~r864
 _ZN6kmldom8DocumentC2Ev@Base 1.3.0~r864
 _ZN6kmldom8DocumentD0Ev@Base 1.3.0~r864
 _ZN6kmldom8DocumentD1Ev@Base 1.3.0~r864
 _ZN6kmldom8DocumentD2Ev@Base 1.3.0~r864
 _ZN6kmldom8GeometryC1Ev@Base 1.3.0~r864
 _ZN6kmldom8GeometryC2Ev@Base 1.3.0~r864
 _ZN6kmldom8GeometryD0Ev@Base 1.3.0~r864
 _ZN6kmldom8GeometryD1Ev@Base 1.3.0~r864
 _ZN6kmldom8GeometryD2Ev@Base 1.3.0~r864
 _ZN6kmldom8ItemIcon10AddElementERKN5boost13intrusive_ptrINS_7ElementEEE@Base 1.3.0~r864
 _ZN6kmldom8ItemIcon6AcceptEPNS_7VisitorE@Base 1.3.0~r864
 _ZN6kmldom8ItemIconC1Ev@Base 1.3.0~r864
 _ZN6kmldom8ItemIconC2Ev@Base 1.3.0~r864
 _ZN6kmldom8ItemIconD0Ev@Base 1.3.0~r864
 _ZN6kmldom8ItemIconD1Ev@Base 1.3.0~r864
 _ZN6kmldom8ItemIconD2Ev@Base 1.3.0~r864
 _ZN6kmldom8Location10AddElementERKN5boost13intrusive_ptrINS_7ElementEEE@Base 1.3.0~r864
 _ZN6kmldom8Location6AcceptEPNS_7VisitorE@Base 1.3.0~r864
 _ZN6kmldom8LocationC1Ev@Base 1.3.0~r864
 _ZN6kmldom8LocationC2Ev@Base 1.3.0~r864
 _ZN6kmldom8LocationD0Ev@Base 1.3.0~r864
 _ZN6kmldom8LocationD1Ev@Base 1.3.0~r864
 _ZN6kmldom8LocationD2Ev@Base 1.3.0~r864
 _ZN6kmldom8Metadata6AcceptEPNS_7VisitorE@Base 1.3.0~r864
 _ZN6kmldom8MetadataC1Ev@Base 1.3.0~r864
 _ZN6kmldom8MetadataC2Ev@Base 1.3.0~r864
 _ZN6kmldom8MetadataD0Ev@Base 1.3.0~r864
 _ZN6kmldom8MetadataD1Ev@Base 1.3.0~r864
 _ZN6kmldom8MetadataD2Ev@Base 1.3.0~r864
 _ZN6kmldom8ParseKmlERKNSt7__cxx1112basic_stringIcSt11char_traitsIcESaIcEEE@Base 1.3.0~r864
 _ZN6kmldom8ScreenXY6AcceptEPNS_7VisitorE@Base 1.3.0~r864
 _ZN6kmldom8ScreenXYC1Ev@Base 1.3.0~r864
 _ZN6kmldom8ScreenXYC2Ev@Base 1.3.0~r864
 _ZN6kmldom8ScreenXYD0Ev@Base 1.3.0~r864
 _ZN6kmldom8ScreenXYD1Ev@Base 1.3.0~r864
 _ZN6kmldom8ScreenXYD2Ev@Base 1.3.0~r864
 _ZN6kmldom8StyleMap10AddElementERKN5boost13intrusive_ptrINS_7ElementEEE@Base 1.3.0~r864
 _ZN6kmldom8StyleMap14AcceptChildrenEPNS_13VisitorDriverE@Base 1.3.0~r864
 _ZN6kmldom8StyleMap6AcceptEPNS_7VisitorE@Base 1.3.0~r864
 _ZN6kmldom8StyleMapC1Ev@Base 1.3.0~r864
 _ZN6kmldom8StyleMapC2Ev@Base 1.3.0~r864
 _ZN6kmldom8StyleMapD0Ev@Base 1.3.0~r864
 _ZN6kmldom8StyleMapD1Ev@Base 1.3.0~r864
 _ZN6kmldom8StyleMapD2Ev@Base 1.3.0~r864
 _ZN6kmldom8SubStyle10AddElementERKN5boost13intrusive_ptrINS_7ElementEEE@Base 1.3.0~r864
 _ZN6kmldom8SubStyleC1Ev@Base 1.3.0~r864
 _ZN6kmldom8SubStyleC2Ev@Base 1.3.0~r864
 _ZN6kmldom8SubStyleD0Ev@Base 1.3.0~r864
 _ZN6kmldom8SubStyleD1Ev@Base 1.3.0~r864
 _ZN6kmldom8SubStyleD2Ev@Base 1.3.0~r864
 _ZN6kmldom8TimeSpan10AddElementERKN5boost13intrusive_ptrINS_7ElementEEE@Base 1.3.0~r864
 _ZN6kmldom8TimeSpan6AcceptEPNS_7VisitorE@Base 1.3.0~r864
 _ZN6kmldom8TimeSpanC1Ev@Base 1.3.0~r864
 _ZN6kmldom8TimeSpanC2Ev@Base 1.3.0~r864
 _ZN6kmldom8TimeSpanD0Ev@Base 1.3.0~r864
 _ZN6kmldom8TimeSpanD1Ev@Base 1.3.0~r864
 _ZN6kmldom8TimeSpanD2Ev@Base 1.3.0~r864
 _ZN6kmldom9AsFeatureEN5boost13intrusive_ptrINS_7ElementEEE@Base 1.3.0~r864
 _ZN6kmldom9AsHotSpotEN5boost13intrusive_ptrINS_7ElementEEE@Base 1.3.0~r864
 _ZN6kmldom9AsOverlayEN5boost13intrusive_ptrINS_7ElementEEE@Base 1.3.0~r864
 _ZN6kmldom9AsPolygonEN5boost13intrusive_ptrINS_7ElementEEE@Base 1.3.0~r864
 _ZN6kmldom9AsSnippetEN5boost13intrusive_ptrINS_7ElementEEE@Base 1.3.0~r864
 _ZN6kmldom9AtomEntry10AddElementERKN5boost13intrusive_ptrINS_7ElementEEE@Base 1.3.0~r864
 _ZN6kmldom9AtomEntryC1Ev@Base 1.3.0~r864
 _ZN6kmldom9AtomEntryC2Ev@Base 1.3.0~r864
 _ZN6kmldom9AtomEntryD0Ev@Base 1.3.0~r864
 _ZN6kmldom9AtomEntryD1Ev@Base 1.3.0~r864
 _ZN6kmldom9AtomEntryD2Ev@Base 1.3.0~r864
 _ZN6kmldom9BasicLink10AddElementERKN5boost13intrusive_ptrINS_7ElementEEE@Base 1.3.0~r864
 _ZN6kmldom9BasicLink6AcceptEPNS_7VisitorE@Base 1.3.0~r864
 _ZN6kmldom9BasicLinkC1Ev@Base 1.3.0~r864
 _ZN6kmldom9BasicLinkC2Ev@Base 1.3.0~r864
 _ZN6kmldom9BasicLinkD0Ev@Base 1.3.0~r864
 _ZN6kmldom9BasicLinkD1Ev@Base 1.3.0~r864
 _ZN6kmldom9BasicLinkD2Ev@Base 1.3.0~r864
 _ZN6kmldom9Container10AddElementERKN5boost13intrusive_ptrINS_7ElementEEE@Base 1.3.0~r864
 _ZN6kmldom9Container11add_featureERKN5boost13intrusive_ptrINS_7FeatureEEE@Base 1.3.0~r864
 _ZN6kmldom9Container14AcceptChildrenEPNS_13VisitorDriverE@Base 1.3.0~r864
 _ZN6kmldom9Container15DeleteFeatureAtEm@Base 1.3.0~rc2
 _ZN6kmldom9Container17DeleteFeatureByIdERKNSt7__cxx1112basic_stringIcSt11char_traitsIcESaIcEEE@Base 1.3.0~r864
 _ZN6kmldom9ContainerC1Ev@Base 1.3.0~r864
 _ZN6kmldom9ContainerC2Ev@Base 1.3.0~r864
 _ZN6kmldom9ContainerD0Ev@Base 1.3.0~r864
 _ZN6kmldom9ContainerD1Ev@Base 1.3.0~r864
 _ZN6kmldom9ContainerD2Ev@Base 1.3.0~r864
 _ZN6kmldom9IconStyle10AddElementERKN5boost13intrusive_ptrINS_7ElementEEE@Base 1.3.0~r864
 _ZN6kmldom9IconStyle14AcceptChildrenEPNS_13VisitorDriverE@Base 1.3.0~r864
 _ZN6kmldom9IconStyle6AcceptEPNS_7VisitorE@Base 1.3.0~r864
 _ZN6kmldom9IconStyleC1Ev@Base 1.3.0~r864
 _ZN6kmldom9IconStyleC2Ev@Base 1.3.0~r864
 _ZN6kmldom9IconStyleD0Ev@Base 1.3.0~r864
 _ZN6kmldom9IconStyleD1Ev@Base 1.3.0~r864
 _ZN6kmldom9IconStyleD2Ev@Base 1.3.0~r864
 _ZN6kmldom9LatLonBox10AddElementERKN5boost13intrusive_ptrINS_7ElementEEE@Base 1.3.0~r864
 _ZN6kmldom9LatLonBox6AcceptEPNS_7VisitorE@Base 1.3.0~r864
 _ZN6kmldom9LatLonBoxC1Ev@Base 1.3.0~r864
 _ZN6kmldom9LatLonBoxC2Ev@Base 1.3.0~r864
 _ZN6kmldom9LatLonBoxD0Ev@Base 1.3.0~r864
 _ZN6kmldom9LatLonBoxD1Ev@Base 1.3.0~r864
 _ZN6kmldom9LatLonBoxD2Ev@Base 1.3.0~r864
 _ZN6kmldom9LineStyle10AddElementERKN5boost13intrusive_ptrINS_7ElementEEE@Base 1.3.0~r864
 _ZN6kmldom9LineStyle6AcceptEPNS_7VisitorE@Base 1.3.0~r864
 _ZN6kmldom9LineStyleC1Ev@Base 1.3.0~r864
 _ZN6kmldom9LineStyleC2Ev@Base 1.3.0~r864
 _ZN6kmldom9LineStyleD0Ev@Base 1.3.0~r864
 _ZN6kmldom9LineStyleD1Ev@Base 1.3.0~r864
 _ZN6kmldom9LineStyleD2Ev@Base 1.3.0~r864
 _ZN6kmldom9ListStyle10AddElementERKN5boost13intrusive_ptrINS_7ElementEEE@Base 1.3.0~r864
 _ZN6kmldom9ListStyle14AcceptChildrenEPNS_13VisitorDriverE@Base 1.3.0~r864
 _ZN6kmldom9ListStyle6AcceptEPNS_7VisitorE@Base 1.3.0~r864
 _ZN6kmldom9ListStyleC1Ev@Base 1.3.0~r864
 _ZN6kmldom9ListStyleC2Ev@Base 1.3.0~r864
 _ZN6kmldom9ListStyleD0Ev@Base 1.3.0~r864
 _ZN6kmldom9ListStyleD1Ev@Base 1.3.0~r864
 _ZN6kmldom9ListStyleD2Ev@Base 1.3.0~r864
 _ZN6kmldom9OverlayXY6AcceptEPNS_7VisitorE@Base 1.3.0~r864
 _ZN6kmldom9OverlayXYC1Ev@Base 1.3.0~r864
 _ZN6kmldom9OverlayXYC2Ev@Base 1.3.0~r864
 _ZN6kmldom9OverlayXYD0Ev@Base 1.3.0~r864
 _ZN6kmldom9OverlayXYD1Ev@Base 1.3.0~r864
 _ZN6kmldom9OverlayXYD2Ev@Base 1.3.0~r864
 _ZN6kmldom9ParseAtomERKNSt7__cxx1112basic_stringIcSt11char_traitsIcESaIcEEEPS5_@Base 1.3.0~r864
 _ZN6kmldom9Placemark10AddElementERKN5boost13intrusive_ptrINS_7ElementEEE@Base 1.3.0~r864
 _ZN6kmldom9Placemark14AcceptChildrenEPNS_13VisitorDriverE@Base 1.3.0~r864
 _ZN6kmldom9Placemark6AcceptEPNS_7VisitorE@Base 1.3.0~r864
 _ZN6kmldom9PlacemarkC1Ev@Base 1.3.0~r864
 _ZN6kmldom9PlacemarkC2Ev@Base 1.3.0~r864
 _ZN6kmldom9PlacemarkD0Ev@Base 1.3.0~r864
 _ZN6kmldom9PlacemarkD1Ev@Base 1.3.0~r864
 _ZN6kmldom9PlacemarkD2Ev@Base 1.3.0~r864
 _ZN6kmldom9PolyStyle10AddElementERKN5boost13intrusive_ptrINS_7ElementEEE@Base 1.3.0~r864
 _ZN6kmldom9PolyStyle6AcceptEPNS_7VisitorE@Base 1.3.0~r864
 _ZN6kmldom9PolyStyleC1Ev@Base 1.3.0~r864
 _ZN6kmldom9PolyStyleC2Ev@Base 1.3.0~r864
 _ZN6kmldom9PolyStyleD0Ev@Base 1.3.0~r864
 _ZN6kmldom9PolyStyleD1Ev@Base 1.3.0~r864
 _ZN6kmldom9PolyStyleD2Ev@Base 1.3.0~r864
 _ZN6kmldom9TimeStamp10AddElementERKN5boost13intrusive_ptrINS_7ElementEEE@Base 1.3.0~r864
 _ZN6kmldom9TimeStamp6AcceptEPNS_7VisitorE@Base 1.3.0~r864
 _ZN6kmldom9TimeStampC1Ev@Base 1.3.0~r864
 _ZN6kmldom9TimeStampC2Ev@Base 1.3.0~r864
 _ZN6kmldom9TimeStampD0Ev@Base 1.3.0~r864
 _ZN6kmldom9TimeStampD1Ev@Base 1.3.0~r864
 _ZN6kmldom9TimeStampD2Ev@Base 1.3.0~r864
 _ZN7kmlbase10Attributes8SetValueINSt7__cxx1112basic_stringIcSt11char_traitsIcESaIcEEEEEvRKS7_RKT_@Base 1.3.0~r864
 _ZN7kmlbase10XmlElementD0Ev@Base 1.3.0~r864
 _ZN7kmlbase10XmlElementD1Ev@Base 1.3.0~r864
 _ZN7kmlbase10XmlElementD2Ev@Base 1.3.0~r864
 _ZN7kmlbase12ExpatHandler12EndNamespaceERKNSt7__cxx1112basic_stringIcSt11char_traitsIcESaIcEEE@Base 1.3.0~r864
 _ZN7kmlbase12ExpatHandler14StartNamespaceERKNSt7__cxx1112basic_stringIcSt11char_traitsIcESaIcEEES8_@Base 1.3.0~r864
 _ZN7kmlbase8ReferentD0Ev@Base 1.3.0~r864
 _ZN7kmlbase8ReferentD1Ev@Base 1.3.0~r864
 _ZN7kmlbase8ReferentD2Ev@Base 1.3.0~r864
 _ZN7kmlbase8ToStringIbEENSt7__cxx1112basic_stringIcSt11char_traitsIcESaIcEEET_@Base 1.3.0~r864
 _ZN7kmlbase8ToStringIdEENSt7__cxx1112basic_stringIcSt11char_traitsIcESaIcEEET_@Base 1.3.0~r864
 _ZN7kmlbase8ToStringIiEENSt7__cxx1112basic_stringIcSt11char_traitsIcESaIcEEET_@Base 1.3.0~r864
 _ZNK6kmldom10AtomAuthor9SerializeERNS_10SerializerE@Base 1.3.0~r864
 _ZNK6kmldom10AtomCommon9SerializeERNS_10SerializerE@Base 1.3.0~r864
 _ZNK6kmldom10ColorStyle3IsAENS_10KmlDomTypeE@Base 1.3.0~r864
 _ZNK6kmldom10ColorStyle4TypeEv@Base 1.3.0~r864
 _ZNK6kmldom10ColorStyle9SerializeERNS_10SerializerE@Base 1.3.0~r864
 _ZNK6kmldom10GxPlaylist29get_gx_tourprimitive_array_atEm@Base 1.3.0~rc2
 _ZNK6kmldom10GxPlaylist31get_gx_tourprimitive_array_sizeEv@Base 1.3.0~r864
 _ZNK6kmldom10GxPlaylist3IsAENS_10KmlDomTypeE@Base 1.3.0~r864
 _ZNK6kmldom10GxPlaylist4TypeEv@Base 1.3.0~r864
 _ZNK6kmldom10GxPlaylist9SerializeERNS_10SerializerE@Base 1.3.0~r864
 _ZNK6kmldom10GxSoundCue3IsAENS_10KmlDomTypeE@Base 1.3.0~r864
 _ZNK6kmldom10GxSoundCue4TypeEv@Base 1.3.0~r864
 _ZNK6kmldom10GxSoundCue9SerializeERNS_10SerializerE@Base 1.3.0~r864
 _ZNK6kmldom10GxTimeSpan3IsAENS_10KmlDomTypeE@Base 1.3.0~r864
 _ZNK6kmldom10GxTimeSpan4TypeEv@Base 1.3.0~r864
 _ZNK6kmldom10KmlFactory10CreateDataEv@Base 1.3.0~r864
 _ZNK6kmldom10KmlFactory10CreateIconEv@Base 1.3.0~r864
 _ZNK6kmldom10KmlFactory10CreateLinkEv@Base 1.3.0~r864
 _ZNK6kmldom10KmlFactory10CreatePairEv@Base 1.3.0~r864
 _ZNK6kmldom10KmlFactory10CreateSizeEv@Base 1.3.0~r864
 _ZNK6kmldom10KmlFactory11CreateAliasEv@Base 1.3.0~r864
 _ZNK6kmldom10KmlFactory11CreateModelEv@Base 1.3.0~r864
 _ZNK6kmldom10KmlFactory11CreatePointEv@Base 1.3.0~r864
 _ZNK6kmldom10KmlFactory11CreateScaleEv@Base 1.3.0~r864
 _ZNK6kmldom10KmlFactory11CreateStyleEv@Base 1.3.0~r864
 _ZNK6kmldom10KmlFactory12CreateCameraEv@Base 1.3.0~r864
 _ZNK6kmldom10KmlFactory12CreateChangeEv@Base 1.3.0~r864
 _ZNK6kmldom10KmlFactory12CreateCreateEv@Base 1.3.0~r864
 _ZNK6kmldom10KmlFactory12CreateDeleteEv@Base 1.3.0~r864
 _ZNK6kmldom10KmlFactory12CreateFolderEv@Base 1.3.0~r864
 _ZNK6kmldom10KmlFactory12CreateGxTourEv@Base 1.3.0~r864
 _ZNK6kmldom10KmlFactory12CreateGxWaitEv@Base 1.3.0~r864
 _ZNK6kmldom10KmlFactory12CreateLookAtEv@Base 1.3.0~r864
 _ZNK6kmldom10KmlFactory12CreateRegionEv@Base 1.3.0~r864
 _ZNK6kmldom10KmlFactory12CreateSchemaEv@Base 1.3.0~r864
 _ZNK6kmldom10KmlFactory12CreateUpdateEv@Base 1.3.0~r864
 _ZNK6kmldom10KmlFactory13CreateGxFlyToEv@Base 1.3.0~r864
 _ZNK6kmldom10KmlFactory13CreateGxTrackEv@Base 1.3.0~r864
 _ZNK6kmldom10KmlFactory13CreateHotSpotEv@Base 1.3.0~r864
 _ZNK6kmldom10KmlFactory13CreatePolygonEv@Base 1.3.0~r864
 _ZNK6kmldom10KmlFactory13CreateSnippetEv@Base 1.3.0~r864
 _ZNK6kmldom10KmlFactory14CreateAtomFeedEv@Base 1.3.0~r864
 _ZNK6kmldom10KmlFactory14CreateAtomLinkEv@Base 1.3.0~r864
 _ZNK6kmldom10KmlFactory14CreateDocumentEv@Base 1.3.0~r864
 _ZNK6kmldom10KmlFactory14CreateItemIconEv@Base 1.3.0~r864
 _ZNK6kmldom10KmlFactory14CreateLocationEv@Base 1.3.0~r864
 _ZNK6kmldom10KmlFactory14CreateMetadataEv@Base 1.3.0~r864
 _ZNK6kmldom10KmlFactory14CreateScreenXYEv@Base 1.3.0~r864
 _ZNK6kmldom10KmlFactory14CreateStyleMapEv@Base 1.3.0~r864
 _ZNK6kmldom10KmlFactory14CreateTimeSpanEv@Base 1.3.0~r864
 _ZNK6kmldom10KmlFactory15CreateAtomEntryEv@Base 1.3.0~r864
 _ZNK6kmldom10KmlFactory15CreateFieldByIdENS_10KmlDomTypeE@Base 1.3.0~r864
 _ZNK6kmldom10KmlFactory15CreateIconStyleEv@Base 1.3.0~r864
 _ZNK6kmldom10KmlFactory15CreateLatLonBoxEv@Base 1.3.0~r864
 _ZNK6kmldom10KmlFactory15CreateLineStyleEv@Base 1.3.0~r864
 _ZNK6kmldom10KmlFactory15CreateListStyleEv@Base 1.3.0~r864
 _ZNK6kmldom10KmlFactory15CreateOverlayXYEv@Base 1.3.0~r864
 _ZNK6kmldom10KmlFactory15CreatePlacemarkEv@Base 1.3.0~r864
 _ZNK6kmldom10KmlFactory15CreatePolyStyleEv@Base 1.3.0~r864
 _ZNK6kmldom10KmlFactory15CreateTimeStampEv@Base 1.3.0~r864
 _ZNK6kmldom10KmlFactory16CreateAtomAuthorEv@Base 1.3.0~r864
 _ZNK6kmldom10KmlFactory16CreateGxPlaylistEv@Base 1.3.0~r864
 _ZNK6kmldom10KmlFactory16CreateGxSoundCueEv@Base 1.3.0~r864
 _ZNK6kmldom10KmlFactory16CreateGxTimeSpanEv@Base 1.3.0~r864
 _ZNK6kmldom10KmlFactory16CreateLabelStyleEv@Base 1.3.0~r864
 _ZNK6kmldom10KmlFactory16CreateLineStringEv@Base 1.3.0~r864
 _ZNK6kmldom10KmlFactory16CreateLinearRingEv@Base 1.3.0~r864
 _ZNK6kmldom10KmlFactory16CreateRotationXYEv@Base 1.3.0~r864
 _ZNK6kmldom10KmlFactory16CreateSchemaDataEv@Base 1.3.0~r864
 _ZNK6kmldom10KmlFactory16CreateSimpleDataEv@Base 1.3.0~r864
 _ZNK6kmldom10KmlFactory16CreateViewVolumeEv@Base 1.3.0~r864
 _ZNK6kmldom10KmlFactory16CreateXalCountryEv@Base 1.3.0~r864
 _ZNK6kmldom10KmlFactory17CreateAtomContentEv@Base 1.3.0~r864
 _ZNK6kmldom10KmlFactory17CreateCoordinatesEv@Base 1.3.0~r864
 _ZNK6kmldom10KmlFactory17CreateElementByIdENS_10KmlDomTypeE@Base 1.3.0~r864
 _ZNK6kmldom10KmlFactory17CreateGxTimeStampEv@Base 1.3.0~r864
 _ZNK6kmldom10KmlFactory17CreateLinkSnippetEv@Base 1.3.0~r864
 _ZNK6kmldom10KmlFactory17CreateNetworkLinkEv@Base 1.3.0~r864
 _ZNK6kmldom10KmlFactory17CreateOrientationEv@Base 1.3.0~r864
 _ZNK6kmldom10KmlFactory17CreateResourceMapEv@Base 1.3.0~r864
 _ZNK6kmldom10KmlFactory17CreateSimpleFieldEv@Base 1.3.0~r864
 _ZNK6kmldom10KmlFactory17CreateXalLocalityEv@Base 1.3.0~r864
 _ZNK6kmldom10KmlFactory18CreateAtomCategoryEv@Base 1.3.0~r864
 _ZNK6kmldom10KmlFactory18CreateBalloonStyleEv@Base 1.3.0~r864
 _ZNK6kmldom10KmlFactory18CreateExtendedDataEv@Base 1.3.0~r864
 _ZNK6kmldom10KmlFactory18CreateGxLatLonQuadEv@Base 1.3.0~r864
 _ZNK6kmldom10KmlFactory18CreateGxMultiTrackEv@Base 1.3.0~r864
 _ZNK6kmldom10KmlFactory18CreateImagePyramidEv@Base 1.3.0~r864
 _ZNK6kmldom10KmlFactory18CreateLatLonAltBoxEv@Base 1.3.0~r864
 _ZNK6kmldom10KmlFactory18CreatePhotoOverlayEv@Base 1.3.0~r864
 _ZNK6kmldom10KmlFactory19CreateGroundOverlayEv@Base 1.3.0~r864
 _ZNK6kmldom10KmlFactory19CreateGxTourControlEv@Base 1.3.0~r864
 _ZNK6kmldom10KmlFactory19CreateIconStyleIconEv@Base 1.3.0~r864
 _ZNK6kmldom10KmlFactory19CreateMultiGeometryEv@Base 1.3.0~r864
 _ZNK6kmldom10KmlFactory19CreateScreenOverlayEv@Base 1.3.0~r864
 _ZNK6kmldom10KmlFactory19CreateXalPostalCodeEv@Base 1.3.0~r864
 _ZNK6kmldom10KmlFactory21CreateElementFromNameERKNSt7__cxx1112basic_stringIcSt11char_traitsIcESaIcEEE@Base 1.3.0~r864
 _ZNK6kmldom10KmlFactory21CreateInnerBoundaryIsEv@Base 1.3.0~r864
 _ZNK6kmldom10KmlFactory21CreateOuterBoundaryIsEv@Base 1.3.0~r864
 _ZNK6kmldom10KmlFactory21CreateXalThoroughfareEv@Base 1.3.0~r864
 _ZNK6kmldom10KmlFactory22CreateGxAnimatedUpdateEv@Base 1.3.0~r864
 _ZNK6kmldom10KmlFactory23CreateGxSimpleArrayDataEv@Base 1.3.0~r864
 _ZNK6kmldom10KmlFactory23CreateXalAddressDetailsEv@Base 1.3.0~r864
 _ZNK6kmldom10KmlFactory24CreateGxSimpleArrayFieldEv@Base 1.3.0~r864
 _ZNK6kmldom10KmlFactory24CreateNetworkLinkControlEv@Base 1.3.0~r864
 _ZNK6kmldom10KmlFactory27CreateXalAdministrativeAreaEv@Base 1.3.0~r864
 _ZNK6kmldom10KmlFactory30CreateXalSubAdministrativeAreaEv@Base 1.3.0~r864
 _ZNK6kmldom10KmlFactory9CreateKmlEv@Base 1.3.0~r864
 _ZNK6kmldom10KmlFactory9CreateLodEv@Base 1.3.0~r864
 _ZNK6kmldom10KmlFactory9CreateUrlEv@Base 1.3.0~r864
 _ZNK6kmldom10LabelStyle3IsAENS_10KmlDomTypeE@Base 1.3.0~r864
 _ZNK6kmldom10LabelStyle4TypeEv@Base 1.3.0~r864
 _ZNK6kmldom10LabelStyle9SerializeERNS_10SerializerE@Base 1.3.0~r864
 _ZNK6kmldom10LineCommon9SerializeERNS_10SerializerE@Base 1.3.0~r864
 _ZNK6kmldom10LineString3IsAENS_10KmlDomTypeE@Base 1.3.0~r864
 _ZNK6kmldom10LineString4TypeEv@Base 1.3.0~r864
 _ZNK6kmldom10LinearRing3IsAENS_10KmlDomTypeE@Base 1.3.0~r864
 _ZNK6kmldom10LinearRing4TypeEv@Base 1.3.0~r864
 _ZNK6kmldom10RotationXY3IsAENS_10KmlDomTypeE@Base 1.3.0~r864
 _ZNK6kmldom10RotationXY4TypeEv@Base 1.3.0~r864
 _ZNK6kmldom10SchemaData19SerializeAttributesEPN7kmlbase10AttributesE@Base 1.3.0~r864
 _ZNK6kmldom10SchemaData3IsAENS_10KmlDomTypeE@Base 1.3.0~r864
 _ZNK6kmldom10SchemaData4TypeEv@Base 1.3.0~r864
 _ZNK6kmldom10SchemaData9SerializeERNS_10SerializerE@Base 1.3.0~r864
 _ZNK6kmldom10SimpleData19SerializeAttributesEPN7kmlbase10AttributesE@Base 1.3.0~r864
 _ZNK6kmldom10SimpleData9SerializeERNS_10SerializerE@Base 1.3.0~r864
 _ZNK6kmldom10ViewVolume3IsAENS_10KmlDomTypeE@Base 1.3.0~r864
 _ZNK6kmldom10ViewVolume4TypeEv@Base 1.3.0~r864
 _ZNK6kmldom10ViewVolume9SerializeERNS_10SerializerE@Base 1.3.0~r864
 _ZNK6kmldom10XalCountry9SerializeERNS_10SerializerE@Base 1.3.0~r864
 _ZNK6kmldom11AtomContent19SerializeAttributesEPN7kmlbase10AttributesE@Base 1.3.0~r864
 _ZNK6kmldom11AtomContent9SerializeERNS_10SerializerE@Base 1.3.0~r864
 _ZNK6kmldom11Coordinates9SerializeERNS_10SerializerE@Base 1.3.0~r864
 _ZNK6kmldom11GxTimeStamp3IsAENS_10KmlDomTypeE@Base 1.3.0~r864
 _ZNK6kmldom11GxTimeStamp4TypeEv@Base 1.3.0~r864
 _ZNK6kmldom11LinkSnippet3IsAENS_10KmlDomTypeE@Base 1.3.0~r864
 _ZNK6kmldom11LinkSnippet4TypeEv@Base 1.3.0~r864
 _ZNK6kmldom11NetworkLink3IsAENS_10KmlDomTypeE@Base 1.3.0~r864
 _ZNK6kmldom11NetworkLink4TypeEv@Base 1.3.0~r864
 _ZNK6kmldom11NetworkLink9SerializeERNS_10SerializerE@Base 1.3.0~r864
 _ZNK6kmldom11Orientation3IsAENS_10KmlDomTypeE@Base 1.3.0~r864
 _ZNK6kmldom11Orientation4TypeEv@Base 1.3.0~r864
 _ZNK6kmldom11Orientation9SerializeERNS_10SerializerE@Base 1.3.0~r864
 _ZNK6kmldom11ResourceMap3IsAENS_10KmlDomTypeE@Base 1.3.0~r864
 _ZNK6kmldom11ResourceMap4TypeEv@Base 1.3.0~r864
 _ZNK6kmldom11ResourceMap9SerializeERNS_10SerializerE@Base 1.3.0~r864
 _ZNK6kmldom11SimpleField19SerializeAttributesEPN7kmlbase10AttributesE@Base 1.3.0~r864
 _ZNK6kmldom11SimpleField9SerializeERNS_10SerializerE@Base 1.3.0~r864
 _ZNK6kmldom11XalLocality9SerializeERNS_10SerializerE@Base 1.3.0~r864
 _ZNK6kmldom12AbstractLink9SerializeERNS_10SerializerE@Base 1.3.0~r864
 _ZNK6kmldom12AbstractView3IsAENS_10KmlDomTypeE@Base 1.3.0~r864
 _ZNK6kmldom12AbstractView4TypeEv@Base 1.3.0~r864
 _ZNK6kmldom12AbstractView9SerializeERNS_10SerializerE@Base 1.3.0~r864
 _ZNK6kmldom12AtomCategory19SerializeAttributesEPN7kmlbase10AttributesE@Base 1.3.0~r864
 _ZNK6kmldom12AtomCategory9SerializeERNS_10SerializerE@Base 1.3.0~r864
 _ZNK6kmldom12BalloonStyle3IsAENS_10KmlDomTypeE@Base 1.3.0~r864
 _ZNK6kmldom12BalloonStyle4TypeEv@Base 1.3.0~r864
 _ZNK6kmldom12BalloonStyle9SerializeERNS_10SerializerE@Base 1.3.0~r864
 _ZNK6kmldom12BasicElementILi163EE3IsAENS_10KmlDomTypeE@Base 1.3.0~r864
 _ZNK6kmldom12BasicElementILi163EE4TypeEv@Base 1.3.0~r864
 _ZNK6kmldom12BasicElementILi164EE3IsAENS_10KmlDomTypeE@Base 1.3.0~r864
 _ZNK6kmldom12BasicElementILi164EE4TypeEv@Base 1.3.0~r864
 _ZNK6kmldom12BasicElementILi165EE3IsAENS_10KmlDomTypeE@Base 1.3.0~r864
 _ZNK6kmldom12BasicElementILi165EE4TypeEv@Base 1.3.0~r864
 _ZNK6kmldom12BasicElementILi168EE3IsAENS_10KmlDomTypeE@Base 1.3.0~r864
 _ZNK6kmldom12BasicElementILi168EE4TypeEv@Base 1.3.0~r864
 _ZNK6kmldom12BasicElementILi179EE3IsAENS_10KmlDomTypeE@Base 1.3.0~r864
 _ZNK6kmldom12BasicElementILi179EE4TypeEv@Base 1.3.0~r864
 _ZNK6kmldom12BasicElementILi180EE3IsAENS_10KmlDomTypeE@Base 1.3.0~r864
 _ZNK6kmldom12BasicElementILi180EE4TypeEv@Base 1.3.0~r864
 _ZNK6kmldom12BasicElementILi181EE3IsAENS_10KmlDomTypeE@Base 1.3.0~r864
 _ZNK6kmldom12BasicElementILi181EE4TypeEv@Base 1.3.0~r864
 _ZNK6kmldom12BasicElementILi182EE3IsAENS_10KmlDomTypeE@Base 1.3.0~r864
 _ZNK6kmldom12BasicElementILi182EE4TypeEv@Base 1.3.0~r864
 _ZNK6kmldom12BasicElementILi183EE3IsAENS_10KmlDomTypeE@Base 1.3.0~r864
 _ZNK6kmldom12BasicElementILi183EE4TypeEv@Base 1.3.0~r864
 _ZNK6kmldom12BasicElementILi184EE3IsAENS_10KmlDomTypeE@Base 1.3.0~r864
 _ZNK6kmldom12BasicElementILi184EE4TypeEv@Base 1.3.0~r864
 _ZNK6kmldom12BasicElementILi185EE3IsAENS_10KmlDomTypeE@Base 1.3.0~r864
 _ZNK6kmldom12BasicElementILi185EE4TypeEv@Base 1.3.0~r864
 _ZNK6kmldom12BasicElementILi199EE3IsAENS_10KmlDomTypeE@Base 1.3.0~r864
 _ZNK6kmldom12BasicElementILi199EE4TypeEv@Base 1.3.0~r864
 _ZNK6kmldom12BasicElementILi22EE3IsAENS_10KmlDomTypeE@Base 1.3.0~r864
 _ZNK6kmldom12BasicElementILi22EE4TypeEv@Base 1.3.0~r864
 _ZNK6kmldom12BasicElementILi41EE3IsAENS_10KmlDomTypeE@Base 1.3.0~r864
 _ZNK6kmldom12BasicElementILi41EE4TypeEv@Base 1.3.0~r864
 _ZNK6kmldom12BasicElementILi45EE3IsAENS_10KmlDomTypeE@Base 1.3.0~r864
 _ZNK6kmldom12BasicElementILi45EE4TypeEv@Base 1.3.0~r864
 _ZNK6kmldom12BasicElementILi59EE3IsAENS_10KmlDomTypeE@Base 1.3.0~r864
 _ZNK6kmldom12BasicElementILi59EE4TypeEv@Base 1.3.0~r864
 _ZNK6kmldom12BasicElementILi60EE3IsAENS_10KmlDomTypeE@Base 1.3.0~r864
 _ZNK6kmldom12BasicElementILi60EE4TypeEv@Base 1.3.0~r864
 _ZNK6kmldom12BasicElementILi66EE3IsAENS_10KmlDomTypeE@Base 1.3.0~r864
 _ZNK6kmldom12BasicElementILi66EE4TypeEv@Base 1.3.0~r864
 _ZNK6kmldom12BasicElementILi79EE3IsAENS_10KmlDomTypeE@Base 1.3.0~r864
 _ZNK6kmldom12BasicElementILi79EE4TypeEv@Base 1.3.0~r864
 _ZNK6kmldom12BasicElementILi97EE3IsAENS_10KmlDomTypeE@Base 1.3.0~r864
 _ZNK6kmldom12BasicElementILi97EE4TypeEv@Base 1.3.0~r864
 _ZNK6kmldom12ExtendedData9SerializeERNS_10SerializerE@Base 1.3.0~r864
 _ZNK6kmldom12GxLatLonQuad3IsAENS_10KmlDomTypeE@Base 1.3.0~r864
 _ZNK6kmldom12GxLatLonQuad4TypeEv@Base 1.3.0~r864
 _ZNK6kmldom12GxLatLonQuad9SerializeERNS_10SerializerE@Base 1.3.0~r864
 _ZNK6kmldom12GxMultiTrack3IsAENS_10KmlDomTypeE@Base 1.3.0~r864
 _ZNK6kmldom12GxMultiTrack4TypeEv@Base 1.3.0~r864
 _ZNK6kmldom12GxMultiTrack9SerializeERNS_10SerializerE@Base 1.3.0~r864
 _ZNK6kmldom12ImagePyramid3IsAENS_10KmlDomTypeE@Base 1.3.0~r864
 _ZNK6kmldom12ImagePyramid4TypeEv@Base 1.3.0~r864
 _ZNK6kmldom12ImagePyramid9SerializeERNS_10SerializerE@Base 1.3.0~r864
 _ZNK6kmldom12LatLonAltBox3IsAENS_10KmlDomTypeE@Base 1.3.0~r864
 _ZNK6kmldom12LatLonAltBox4TypeEv@Base 1.3.0~r864
 _ZNK6kmldom12LatLonAltBox9SerializeERNS_10SerializerE@Base 1.3.0~r864
 _ZNK6kmldom12PhotoOverlay3IsAENS_10KmlDomTypeE@Base 1.3.0~r864
 _ZNK6kmldom12PhotoOverlay4TypeEv@Base 1.3.0~r864
 _ZNK6kmldom12PhotoOverlay9SerializeERNS_10SerializerE@Base 1.3.0~r864
 _ZNK6kmldom13GroundOverlay3IsAENS_10KmlDomTypeE@Base 1.3.0~r864
 _ZNK6kmldom13GroundOverlay4TypeEv@Base 1.3.0~r864
 _ZNK6kmldom13GroundOverlay9SerializeERNS_10SerializerE@Base 1.3.0~r864
 _ZNK6kmldom13GxTourControl3IsAENS_10KmlDomTypeE@Base 1.3.0~r864
 _ZNK6kmldom13GxTourControl4TypeEv@Base 1.3.0~r864
 _ZNK6kmldom13GxTourControl9SerializeERNS_10SerializerE@Base 1.3.0~r864
 _ZNK6kmldom13IconStyleIcon3IsAENS_10KmlDomTypeE@Base 1.3.0~r864
 _ZNK6kmldom13IconStyleIcon4TypeEv@Base 1.3.0~r864
 _ZNK6kmldom13IconStyleIcon9SerializeERNS_10SerializerE@Base 1.3.0~r864
 _ZNK6kmldom13MultiGeometry3IsAENS_10KmlDomTypeE@Base 1.3.0~r864
 _ZNK6kmldom13MultiGeometry4TypeEv@Base 1.3.0~r864
 _ZNK6kmldom13MultiGeometry9SerializeERNS_10SerializerE@Base 1.3.0~r864
 _ZNK6kmldom13ScreenOverlay3IsAENS_10KmlDomTypeE@Base 1.3.0~r864
 _ZNK6kmldom13ScreenOverlay4TypeEv@Base 1.3.0~r864
 _ZNK6kmldom13ScreenOverlay9SerializeERNS_10SerializerE@Base 1.3.0~r864
 _ZNK6kmldom13SnippetCommon19SerializeAttributesEPN7kmlbase10AttributesE@Base 1.3.0~r864
 _ZNK6kmldom13SnippetCommon3IsAENS_10KmlDomTypeE@Base 1.3.0~r864
 _ZNK6kmldom13SnippetCommon4TypeEv@Base 1.3.0~r864
 _ZNK6kmldom13SnippetCommon9SerializeERNS_10SerializerE@Base 1.3.0~r864
 _ZNK6kmldom13StyleSelector3IsAENS_10KmlDomTypeE@Base 1.3.0~r864
 _ZNK6kmldom13StyleSelector4TypeEv@Base 1.3.0~r864
 _ZNK6kmldom13TimePrimitive3IsAENS_10KmlDomTypeE@Base 1.3.0~r864
 _ZNK6kmldom13TimePrimitive4TypeEv@Base 1.3.0~r864
 _ZNK6kmldom13XalPostalCode9SerializeERNS_10SerializerE@Base 1.3.0~r864
 _ZNK6kmldom14BoundaryCommon9SerializeERNS_10SerializerE@Base 1.3.0~r864
 _ZNK6kmldom15GxTourPrimitive3IsAENS_10KmlDomTypeE@Base 1.3.0~r864
 _ZNK6kmldom15GxTourPrimitive4TypeEv@Base 1.3.0~r864
 _ZNK6kmldom15InnerBoundaryIs3IsAENS_10KmlDomTypeE@Base 1.3.0~r864
 _ZNK6kmldom15InnerBoundaryIs4TypeEv@Base 1.3.0~r864
 _ZNK6kmldom15OuterBoundaryIs3IsAENS_10KmlDomTypeE@Base 1.3.0~r864
 _ZNK6kmldom15OuterBoundaryIs4TypeEv@Base 1.3.0~r864
 _ZNK6kmldom15XalThoroughfare9SerializeERNS_10SerializerE@Base 1.3.0~r864
 _ZNK6kmldom16GxAnimatedUpdate3IsAENS_10KmlDomTypeE@Base 1.3.0~r864
 _ZNK6kmldom16GxAnimatedUpdate4TypeEv@Base 1.3.0~r864
 _ZNK6kmldom16GxAnimatedUpdate9SerializeERNS_10SerializerE@Base 1.3.0~r864
 _ZNK6kmldom17AbstractLatLonBox3IsAENS_10KmlDomTypeE@Base 1.3.0~r864
 _ZNK6kmldom17AbstractLatLonBox4TypeEv@Base 1.3.0~r864
 _ZNK6kmldom17AbstractLatLonBox9SerializeERNS_10SerializerE@Base 1.3.0~r864
 _ZNK6kmldom17GxSimpleArrayData19SerializeAttributesEPN7kmlbase10AttributesE@Base 1.3.0~r864
 _ZNK6kmldom17GxSimpleArrayData9SerializeERNS_10SerializerE@Base 1.3.0~r864
 _ZNK6kmldom17XalAddressDetails9SerializeERNS_10SerializerE@Base 1.3.0~r864
 _ZNK6kmldom18AbstractViewCommon15SerializeAfterRERNS_10SerializerE@Base 1.3.0~r864
 _ZNK6kmldom18AbstractViewCommon16SerializeBeforeRERNS_10SerializerE@Base 1.3.0~r864
 _ZNK6kmldom18GxSimpleArrayField3IsAENS_10KmlDomTypeE@Base 1.3.0~r864
 _ZNK6kmldom18GxSimpleArrayField4TypeEv@Base 1.3.0~r864
 _ZNK6kmldom18NetworkLinkControl9SerializeERNS_10SerializerE@Base 1.3.0~r864
 _ZNK6kmldom21GxTourPrimitiveCommon9SerializeERNS_10SerializerE@Base 1.3.0~r864
 _ZNK6kmldom21XalAdministrativeArea9SerializeERNS_10SerializerE@Base 1.3.0~r864
 _ZNK6kmldom24XalSubAdministrativeArea9SerializeERNS_10SerializerE@Base 1.3.0~r864
 _ZNK6kmldom3Kml19SerializeAttributesEPN7kmlbase10AttributesE@Base 1.3.0~r864
 _ZNK6kmldom3Kml9SerializeERNS_10SerializerE@Base 1.3.0~r864
 _ZNK6kmldom3Lod3IsAENS_10KmlDomTypeE@Base 1.3.0~r864
 _ZNK6kmldom3Lod4TypeEv@Base 1.3.0~r864
 _ZNK6kmldom3Lod9SerializeERNS_10SerializerE@Base 1.3.0~r864
 _ZNK6kmldom3Url3IsAENS_10KmlDomTypeE@Base 1.3.0~r864
 _ZNK6kmldom3Url4TypeEv@Base 1.3.0~r864
 _ZNK6kmldom3Xsd11ElementNameB5cxx11Ei@Base 1.3.0~r864
 _ZNK6kmldom3Xsd11ElementTypeEi@Base 1.3.0~r864
 _ZNK6kmldom3Xsd6EnumIdEiNSt7__cxx1112basic_stringIcSt11char_traitsIcESaIcEEE@Base 1.3.0~r864
 _ZNK6kmldom3Xsd9ElementIdERKNSt7__cxx1112basic_stringIcSt11char_traitsIcESaIcEEE@Base 1.3.0~r864
 _ZNK6kmldom3Xsd9EnumValueB5cxx11Eii@Base 1.3.0~r864
 _ZNK6kmldom4Data19SerializeAttributesEPN7kmlbase10AttributesE@Base 1.3.0~r864
 _ZNK6kmldom4Data3IsAENS_10KmlDomTypeE@Base 1.3.0~r864
 _ZNK6kmldom4Data4TypeEv@Base 1.3.0~r864
 _ZNK6kmldom4Data9SerializeERNS_10SerializerE@Base 1.3.0~r864
 _ZNK6kmldom4Icon3IsAENS_10KmlDomTypeE@Base 1.3.0~r864
 _ZNK6kmldom4Icon4TypeEv@Base 1.3.0~r864
 _ZNK6kmldom4Link3IsAENS_10KmlDomTypeE@Base 1.3.0~r864
 _ZNK6kmldom4Link4TypeEv@Base 1.3.0~r864
 _ZNK6kmldom4Pair3IsAENS_10KmlDomTypeE@Base 1.3.0~r864
 _ZNK6kmldom4Pair4TypeEv@Base 1.3.0~r864
 _ZNK6kmldom4Pair9SerializeERNS_10SerializerE@Base 1.3.0~r864
 _ZNK6kmldom4Size3IsAENS_10KmlDomTypeE@Base 1.3.0~r864
 _ZNK6kmldom4Size4TypeEv@Base 1.3.0~r864
 _ZNK6kmldom4Vec219SerializeAttributesEPN7kmlbase10AttributesE@Base 1.3.0~r864
 _ZNK6kmldom4Vec23IsAENS_10KmlDomTypeE@Base 1.3.0~r864
 _ZNK6kmldom4Vec24TypeEv@Base 1.3.0~r864
 _ZNK6kmldom4Vec29SerializeERNS_10SerializerE@Base 1.3.0~r864
 _ZNK6kmldom5Alias3IsAENS_10KmlDomTypeE@Base 1.3.0~r864
 _ZNK6kmldom5Alias4TypeEv@Base 1.3.0~r864
 _ZNK6kmldom5Alias9SerializeERNS_10SerializerE@Base 1.3.0~r864
 _ZNK6kmldom5Field9SerializeERNS_10SerializerE@Base 1.3.0~r864
 _ZNK6kmldom5Model3IsAENS_10KmlDomTypeE@Base 1.3.0~r864
 _ZNK6kmldom5Model4TypeEv@Base 1.3.0~r864
 _ZNK6kmldom5Model9SerializeERNS_10SerializerE@Base 1.3.0~r864
 _ZNK6kmldom5Point3IsAENS_10KmlDomTypeE@Base 1.3.0~r864
 _ZNK6kmldom5Point4TypeEv@Base 1.3.0~r864
 _ZNK6kmldom5Point9SerializeERNS_10SerializerE@Base 1.3.0~r864
 _ZNK6kmldom5Scale3IsAENS_10KmlDomTypeE@Base 1.3.0~r864
 _ZNK6kmldom5Scale4TypeEv@Base 1.3.0~r864
 _ZNK6kmldom5Scale9SerializeERNS_10SerializerE@Base 1.3.0~r864
 _ZNK6kmldom5Style3IsAENS_10KmlDomTypeE@Base 1.3.0~r864
 _ZNK6kmldom5Style4TypeEv@Base 1.3.0~r864
 _ZNK6kmldom5Style9SerializeERNS_10SerializerE@Base 1.3.0~r864
 _ZNK6kmldom6Camera3IsAENS_10KmlDomTypeE@Base 1.3.0~r864
 _ZNK6kmldom6Camera4TypeEv@Base 1.3.0~r864
 _ZNK6kmldom6Camera9SerializeERNS_10SerializerE@Base 1.3.0~r864
 _ZNK6kmldom6Change3IsAENS_10KmlDomTypeE@Base 1.3.0~r864
 _ZNK6kmldom6Change4TypeEv@Base 1.3.0~r864
 _ZNK6kmldom6Change9SerializeERNS_10SerializerE@Base 1.3.0~r864
 _ZNK6kmldom6Create3IsAENS_10KmlDomTypeE@Base 1.3.0~r864
 _ZNK6kmldom6Create4TypeEv@Base 1.3.0~r864
 _ZNK6kmldom6Create9SerializeERNS_10SerializerE@Base 1.3.0~r864
 _ZNK6kmldom6Delete3IsAENS_10KmlDomTypeE@Base 1.3.0~r864
 _ZNK6kmldom6Delete4TypeEv@Base 1.3.0~r864
 _ZNK6kmldom6Delete9SerializeERNS_10SerializerE@Base 1.3.0~r864
 _ZNK6kmldom6Folder3IsAENS_10KmlDomTypeE@Base 1.3.0~r864
 _ZNK6kmldom6Folder4TypeEv@Base 1.3.0~r864
 _ZNK6kmldom6Folder9SerializeERNS_10SerializerE@Base 1.3.0~r864
 _ZNK6kmldom6GxTour3IsAENS_10KmlDomTypeE@Base 1.3.0~r864
 _ZNK6kmldom6GxTour4TypeEv@Base 1.3.0~r864
 _ZNK6kmldom6GxTour9SerializeERNS_10SerializerE@Base 1.3.0~r864
 _ZNK6kmldom6GxWait3IsAENS_10KmlDomTypeE@Base 1.3.0~r864
 _ZNK6kmldom6GxWait4TypeEv@Base 1.3.0~r864
 _ZNK6kmldom6GxWait9SerializeERNS_10SerializerE@Base 1.3.0~r864
 _ZNK6kmldom6LookAt3IsAENS_10KmlDomTypeE@Base 1.3.0~r864
 _ZNK6kmldom6LookAt4TypeEv@Base 1.3.0~r864
 _ZNK6kmldom6LookAt9SerializeERNS_10SerializerE@Base 1.3.0~r864
 _ZNK6kmldom6Object19SerializeAttributesEPN7kmlbase10AttributesE@Base 1.3.0~r864
 _ZNK6kmldom6Object3IsAENS_10KmlDomTypeE@Base 1.3.0~r864
 _ZNK6kmldom6Object4TypeEv@Base 1.3.0~r864
 _ZNK6kmldom6Region3IsAENS_10KmlDomTypeE@Base 1.3.0~r864
 _ZNK6kmldom6Region4TypeEv@Base 1.3.0~r864
 _ZNK6kmldom6Region9SerializeERNS_10SerializerE@Base 1.3.0~r864
 _ZNK6kmldom6Schema19SerializeAttributesEPN7kmlbase10AttributesE@Base 1.3.0~r864
 _ZNK6kmldom6Schema3IsAENS_10KmlDomTypeE@Base 1.3.0~r864
 _ZNK6kmldom6Schema4TypeEv@Base 1.3.0~r864
 _ZNK6kmldom6Schema9SerializeERNS_10SerializerE@Base 1.3.0~r864
 _ZNK6kmldom6Update9SerializeERNS_10SerializerE@Base 1.3.0~r864
 _ZNK6kmldom7Element16SerializeUnknownERNS_10SerializerE@Base 1.3.0~r864
 _ZNK6kmldom7Element19SerializeAttributesEPN7kmlbase10AttributesE@Base 1.3.0~r864
 _ZNK6kmldom7Element3IsAENS_10KmlDomTypeE@Base 1.3.0~r864
 _ZNK6kmldom7Element4TypeEv@Base 1.3.0~r864
 _ZNK6kmldom7Element9GetParentEv@Base 1.3.0~r864
 _ZNK6kmldom7Element9SerializeERNS_10SerializerE@Base 1.3.0~r864
 _ZNK6kmldom7Feature27SerializeAfterStyleSelectorERNS_10SerializerE@Base 1.3.0~r864
 _ZNK6kmldom7Feature28SerializeBeforeStyleSelectorERNS_10SerializerE@Base 1.3.0~r864
 _ZNK6kmldom7Feature3IsAENS_10KmlDomTypeE@Base 1.3.0~r864
 _ZNK6kmldom7Feature4TypeEv@Base 1.3.0~r864
 _ZNK6kmldom7Feature9SerializeERNS_10SerializerE@Base 1.3.0~r864
 _ZNK6kmldom7GxFlyTo3IsAENS_10KmlDomTypeE@Base 1.3.0~r864
 _ZNK6kmldom7GxFlyTo4TypeEv@Base 1.3.0~r864
 _ZNK6kmldom7GxFlyTo9SerializeERNS_10SerializerE@Base 1.3.0~r864
 _ZNK6kmldom7GxTrack3IsAENS_10KmlDomTypeE@Base 1.3.0~r864
 _ZNK6kmldom7GxTrack4TypeEv@Base 1.3.0~r864
 _ZNK6kmldom7GxTrack9SerializeERNS_10SerializerE@Base 1.3.0~r864
 _ZNK6kmldom7HotSpot3IsAENS_10KmlDomTypeE@Base 1.3.0~r864
 _ZNK6kmldom7HotSpot4TypeEv@Base 1.3.0~r864
 _ZNK6kmldom7Overlay3IsAENS_10KmlDomTypeE@Base 1.3.0~r864
 _ZNK6kmldom7Overlay4TypeEv@Base 1.3.0~r864
 _ZNK6kmldom7Overlay9SerializeERNS_10SerializerE@Base 1.3.0~r864
 _ZNK6kmldom7Polygon3IsAENS_10KmlDomTypeE@Base 1.3.0~r864
 _ZNK6kmldom7Polygon4TypeEv@Base 1.3.0~r864
 _ZNK6kmldom7Polygon9SerializeERNS_10SerializerE@Base 1.3.0~r864
 _ZNK6kmldom7Snippet3IsAENS_10KmlDomTypeE@Base 1.3.0~r864
 _ZNK6kmldom7Snippet4TypeEv@Base 1.3.0~r864
 _ZNK6kmldom8AtomFeed3IsAENS_10KmlDomTypeE@Base 1.3.0~r864
 _ZNK6kmldom8AtomFeed4TypeEv@Base 1.3.0~r864
 _ZNK6kmldom8AtomFeed9SerializeERNS_10SerializerE@Base 1.3.0~r864
 _ZNK6kmldom8AtomLink19SerializeAttributesEPN7kmlbase10AttributesE@Base 1.3.0~r864
 _ZNK6kmldom8AtomLink9SerializeERNS_10SerializerE@Base 1.3.0~r864
 _ZNK6kmldom8Document3IsAENS_10KmlDomTypeE@Base 1.3.0~r864
 _ZNK6kmldom8Document4TypeEv@Base 1.3.0~r864
 _ZNK6kmldom8Document9SerializeERNS_10SerializerE@Base 1.3.0~r864
 _ZNK6kmldom8Geometry3IsAENS_10KmlDomTypeE@Base 1.3.0~r864
 _ZNK6kmldom8Geometry4TypeEv@Base 1.3.0~r864
 _ZNK6kmldom8ItemIcon3IsAENS_10KmlDomTypeE@Base 1.3.0~r864
 _ZNK6kmldom8ItemIcon4TypeEv@Base 1.3.0~r864
 _ZNK6kmldom8ItemIcon9SerializeERNS_10SerializerE@Base 1.3.0~r864
 _ZNK6kmldom8Location3IsAENS_10KmlDomTypeE@Base 1.3.0~r864
 _ZNK6kmldom8Location4TypeEv@Base 1.3.0~r864
 _ZNK6kmldom8Location9SerializeERNS_10SerializerE@Base 1.3.0~r864
 _ZNK6kmldom8Metadata9SerializeERNS_10SerializerE@Base 1.3.0~r864
 _ZNK6kmldom8ScreenXY3IsAENS_10KmlDomTypeE@Base 1.3.0~r864
 _ZNK6kmldom8ScreenXY4TypeEv@Base 1.3.0~r864
 _ZNK6kmldom8StyleMap3IsAENS_10KmlDomTypeE@Base 1.3.0~r864
 _ZNK6kmldom8StyleMap4TypeEv@Base 1.3.0~r864
 _ZNK6kmldom8StyleMap9SerializeERNS_10SerializerE@Base 1.3.0~r864
 _ZNK6kmldom8SubStyle3IsAENS_10KmlDomTypeE@Base 1.3.0~r864
 _ZNK6kmldom8SubStyle4TypeEv@Base 1.3.0~r864
 _ZNK6kmldom8SubStyle9SerializeERNS_10SerializerE@Base 1.3.0~r864
 _ZNK6kmldom8TimeSpan3IsAENS_10KmlDomTypeE@Base 1.3.0~r864
 _ZNK6kmldom8TimeSpan4TypeEv@Base 1.3.0~r864
 _ZNK6kmldom8TimeSpan9SerializeERNS_10SerializerE@Base 1.3.0~r864
 _ZNK6kmldom9AtomEntry3IsAENS_10KmlDomTypeE@Base 1.3.0~r864
 _ZNK6kmldom9AtomEntry4TypeEv@Base 1.3.0~r864
 _ZNK6kmldom9AtomEntry9SerializeERNS_10SerializerE@Base 1.3.0~r864
 _ZNK6kmldom9BasicLink3IsAENS_10KmlDomTypeE@Base 1.3.0~r864
 _ZNK6kmldom9BasicLink4TypeEv@Base 1.3.0~r864
 _ZNK6kmldom9BasicLink9SerializeERNS_10SerializerE@Base 1.3.0~r864
 _ZNK6kmldom9Container21SerializeFeatureArrayERNS_10SerializerE@Base 1.3.0~r864
 _ZNK6kmldom9Container3IsAENS_10KmlDomTypeE@Base 1.3.0~r864
 _ZNK6kmldom9Container4TypeEv@Base 1.3.0~r864
 _ZNK6kmldom9Container9SerializeERNS_10SerializerE@Base 1.3.0~r864
 _ZNK6kmldom9IconStyle3IsAENS_10KmlDomTypeE@Base 1.3.0~r864
 _ZNK6kmldom9IconStyle4TypeEv@Base 1.3.0~r864
 _ZNK6kmldom9IconStyle9SerializeERNS_10SerializerE@Base 1.3.0~r864
 _ZNK6kmldom9LatLonBox3IsAENS_10KmlDomTypeE@Base 1.3.0~r864
 _ZNK6kmldom9LatLonBox4TypeEv@Base 1.3.0~r864
 _ZNK6kmldom9LatLonBox9SerializeERNS_10SerializerE@Base 1.3.0~r864
 _ZNK6kmldom9LineStyle3IsAENS_10KmlDomTypeE@Base 1.3.0~r864
 _ZNK6kmldom9LineStyle4TypeEv@Base 1.3.0~r864
 _ZNK6kmldom9LineStyle9SerializeERNS_10SerializerE@Base 1.3.0~r864
 _ZNK6kmldom9ListStyle3IsAENS_10KmlDomTypeE@Base 1.3.0~r864
 _ZNK6kmldom9ListStyle4TypeEv@Base 1.3.0~r864
 _ZNK6kmldom9ListStyle9SerializeERNS_10SerializerE@Base 1.3.0~r864
 _ZNK6kmldom9OverlayXY3IsAENS_10KmlDomTypeE@Base 1.3.0~r864
 _ZNK6kmldom9OverlayXY4TypeEv@Base 1.3.0~r864
 _ZNK6kmldom9Placemark3IsAENS_10KmlDomTypeE@Base 1.3.0~r864
 _ZNK6kmldom9Placemark4TypeEv@Base 1.3.0~r864
 _ZNK6kmldom9Placemark9SerializeERNS_10SerializerE@Base 1.3.0~r864
 _ZNK6kmldom9PolyStyle3IsAENS_10KmlDomTypeE@Base 1.3.0~r864
 _ZNK6kmldom9PolyStyle4TypeEv@Base 1.3.0~r864
 _ZNK6kmldom9PolyStyle9SerializeERNS_10SerializerE@Base 1.3.0~r864
 _ZNK6kmldom9TimeStamp3IsAENS_10KmlDomTypeE@Base 1.3.0~r864
 _ZNK6kmldom9TimeStamp4TypeEv@Base 1.3.0~r864
 _ZNK6kmldom9TimeStamp9SerializeERNS_10SerializerE@Base 1.3.0~r864
 _ZNSt11_Deque_baseIN5boost13intrusive_ptrIN6kmldom7ElementEEESaIS4_EE17_M_initialize_mapEm@Base 1.3.0~r864
 _ZNSt11_Deque_baseIN5boost13intrusive_ptrIN6kmldom7ElementEEESaIS4_EED1Ev@Base 1.3.0~r864
 _ZNSt11_Deque_baseIN5boost13intrusive_ptrIN6kmldom7ElementEEESaIS4_EED2Ev@Base 1.3.0~r864
 _ZNSt11_Deque_baseINSt7__cxx1112basic_stringIcSt11char_traitsIcESaIcEEESaIS5_EE17_M_initialize_mapEm@Base 1.3.0~r864
 _ZNSt11_Deque_baseINSt7__cxx1112basic_stringIcSt11char_traitsIcESaIcEEESaIS5_EED1Ev@Base 1.3.0~r864
 _ZNSt11_Deque_baseINSt7__cxx1112basic_stringIcSt11char_traitsIcESaIcEEESaIS5_EED2Ev@Base 1.3.0~r864
 _ZNSt11_Deque_baseIiSaIiEE17_M_initialize_mapEm@Base 1.3.0~r864
 _ZNSt11_Deque_baseIiSaIiEED1Ev@Base 1.3.0~r864
 _ZNSt11_Deque_baseIiSaIiEED2Ev@Base 1.3.0~r864
 _ZNSt4pairIKNSt7__cxx1112basic_stringIcSt11char_traitsIcESaIcEEES5_ED1Ev@Base 1.3.0~r864
 _ZNSt4pairIKNSt7__cxx1112basic_stringIcSt11char_traitsIcESaIcEEES5_ED2Ev@Base 1.3.0~r864
 _ZNSt5dequeIN5boost13intrusive_ptrIN6kmldom7ElementEEESaIS4_EE15_M_pop_back_auxEv@Base 1.3.0~r864
 _ZNSt5dequeIN5boost13intrusive_ptrIN6kmldom7ElementEEESaIS4_EE16_M_push_back_auxERKS4_@Base 1.3.0~r864
 _ZNSt5dequeIN5boost13intrusive_ptrIN6kmldom7ElementEEESaIS4_EED1Ev@Base 1.3.0~r864
 _ZNSt5dequeIN5boost13intrusive_ptrIN6kmldom7ElementEEESaIS4_EED2Ev@Base 1.3.0~r864
 _ZNSt5dequeINSt7__cxx1112basic_stringIcSt11char_traitsIcESaIcEEESaIS5_EE16_M_push_back_auxERKS5_@Base 1.3.0~r864
 _ZNSt5dequeINSt7__cxx1112basic_stringIcSt11char_traitsIcESaIcEEESaIS5_EED1Ev@Base 1.3.0~r864
 _ZNSt5dequeINSt7__cxx1112basic_stringIcSt11char_traitsIcESaIcEEESaIS5_EED2Ev@Base 1.3.0~r864
 _ZNSt5dequeIiSaIiEE16_M_push_back_auxERKi@Base 1.3.0~r864
 _ZNSt6vectorIN5boost13intrusive_ptrIN6kmldom10SchemaDataEEESaIS4_EE13_M_insert_auxEN9__gnu_cxx17__normal_iteratorIPS4_S6_EERKS4_@Base 1.3.0~r864
 _ZNSt6vectorIN5boost13intrusive_ptrIN6kmldom10SimpleDataEEESaIS4_EE13_M_insert_auxEN9__gnu_cxx17__normal_iteratorIPS4_S6_EERKS4_@Base 1.3.0~r864
 _ZNSt6vectorIN5boost13intrusive_ptrIN6kmldom11SimpleFieldEEESaIS4_EE13_M_insert_auxEN9__gnu_cxx17__normal_iteratorIPS4_S6_EERKS4_@Base 1.3.0~r864
 _ZNSt6vectorIN5boost13intrusive_ptrIN6kmldom12AtomCategoryEEESaIS4_EE13_M_insert_auxEN9__gnu_cxx17__normal_iteratorIPS4_S6_EERKS4_@Base 1.3.0~r864
 _ZNSt6vectorIN5boost13intrusive_ptrIN6kmldom12AtomCategoryEEESaIS4_EED1Ev@Base 1.3.0~r864
 _ZNSt6vectorIN5boost13intrusive_ptrIN6kmldom12AtomCategoryEEESaIS4_EED2Ev@Base 1.3.0~r864
 _ZNSt6vectorIN5boost13intrusive_ptrIN6kmldom13StyleSelectorEEESaIS4_EE13_M_insert_auxEN9__gnu_cxx17__normal_iteratorIPS4_S6_EERKS4_@Base 1.3.0~r864
 _ZNSt6vectorIN5boost13intrusive_ptrIN6kmldom15GxTourPrimitiveEEESaIS4_EE13_M_insert_auxEN9__gnu_cxx17__normal_iteratorIPS4_S6_EERKS4_@Base 1.3.0~r864
 _ZNSt6vectorIN5boost13intrusive_ptrIN6kmldom15InnerBoundaryIsEEESaIS4_EE13_M_insert_auxEN9__gnu_cxx17__normal_iteratorIPS4_S6_EERKS4_@Base 1.3.0~r864
 _ZNSt6vectorIN5boost13intrusive_ptrIN6kmldom15UpdateOperationEEESaIS4_EE13_M_insert_auxEN9__gnu_cxx17__normal_iteratorIPS4_S6_EERKS4_@Base 1.3.0~r864
 _ZNSt6vectorIN5boost13intrusive_ptrIN6kmldom17GxSimpleArrayDataEEESaIS4_EE13_M_insert_auxEN9__gnu_cxx17__normal_iteratorIPS4_S6_EERKS4_@Base 1.3.0~r864
 _ZNSt6vectorIN5boost13intrusive_ptrIN6kmldom18GxSimpleArrayFieldEEESaIS4_EE13_M_insert_auxEN9__gnu_cxx17__normal_iteratorIPS4_S6_EERKS4_@Base 1.3.0~r864
 _ZNSt6vectorIN5boost13intrusive_ptrIN6kmldom4DataEEESaIS4_EE13_M_insert_auxEN9__gnu_cxx17__normal_iteratorIPS4_S6_EERKS4_@Base 1.3.0~r864
 _ZNSt6vectorIN5boost13intrusive_ptrIN6kmldom4PairEEESaIS4_EE13_M_insert_auxEN9__gnu_cxx17__normal_iteratorIPS4_S6_EERKS4_@Base 1.3.0~r864
 _ZNSt6vectorIN5boost13intrusive_ptrIN6kmldom5AliasEEESaIS4_EE13_M_insert_auxEN9__gnu_cxx17__normal_iteratorIPS4_S6_EERKS4_@Base 1.3.0~r864
 _ZNSt6vectorIN5boost13intrusive_ptrIN6kmldom6ObjectEEESaIS4_EE13_M_insert_auxEN9__gnu_cxx17__normal_iteratorIPS4_S6_EERKS4_@Base 1.3.0~r864
 _ZNSt6vectorIN5boost13intrusive_ptrIN6kmldom6SchemaEEESaIS4_EE13_M_insert_auxEN9__gnu_cxx17__normal_iteratorIPS4_S6_EERKS4_@Base 1.3.0~r864
 _ZNSt6vectorIN5boost13intrusive_ptrIN6kmldom7ElementEEESaIS4_EE13_M_insert_auxEN9__gnu_cxx17__normal_iteratorIPS4_S6_EERKS4_@Base 1.3.0~r864
 _ZNSt6vectorIN5boost13intrusive_ptrIN6kmldom7FeatureEEESaIS4_EE13_M_insert_auxEN9__gnu_cxx17__normal_iteratorIPS4_S6_EERKS4_@Base 1.3.0~r864
 _ZNSt6vectorIN5boost13intrusive_ptrIN6kmldom7FeatureEEESaIS4_EE8_M_eraseEN9__gnu_cxx17__normal_iteratorIPS4_S6_EE@Base 1.3.0~r864
 _ZNSt6vectorIN5boost13intrusive_ptrIN6kmldom7GxTrackEEESaIS4_EE13_M_insert_auxEN9__gnu_cxx17__normal_iteratorIPS4_S6_EERKS4_@Base 1.3.0~r864
 _ZNSt6vectorIN5boost13intrusive_ptrIN6kmldom8AtomLinkEEESaIS4_EE13_M_insert_auxEN9__gnu_cxx17__normal_iteratorIPS4_S6_EERKS4_@Base 1.3.0~r864
 _ZNSt6vectorIN5boost13intrusive_ptrIN6kmldom8GeometryEEESaIS4_EE13_M_insert_auxEN9__gnu_cxx17__normal_iteratorIPS4_S6_EERKS4_@Base 1.3.0~r864
 _ZNSt6vectorIN5boost13intrusive_ptrIN6kmldom8ItemIconEEESaIS4_EE13_M_insert_auxEN9__gnu_cxx17__normal_iteratorIPS4_S6_EERKS4_@Base 1.3.0~r864
 _ZNSt6vectorIN5boost13intrusive_ptrIN6kmldom9AtomEntryEEESaIS4_EE13_M_insert_auxEN9__gnu_cxx17__normal_iteratorIPS4_S6_EERKS4_@Base 1.3.0~r864
 _ZNSt6vectorIN5boost13intrusive_ptrIN6kmldom9ContainerEEESaIS4_EE13_M_insert_auxEN9__gnu_cxx17__normal_iteratorIPS4_S6_EERKS4_@Base 1.3.0~r864
 _ZNSt6vectorIN7kmlbase4Vec3ESaIS1_EE13_M_insert_auxEN9__gnu_cxx17__normal_iteratorIPS1_S3_EERKS1_@Base 1.3.0~r864
 _ZNSt6vectorINSt7__cxx1112basic_stringIcSt11char_traitsIcESaIcEEESaIS5_EE13_M_insert_auxEN9__gnu_cxx17__normal_iteratorIPS5_S7_EERKS5_@Base 1.3.0~r864
 _ZNSt6vectorINSt7__cxx1112basic_stringIcSt11char_traitsIcESaIcEEESaIS5_EED1Ev@Base 1.3.0~r864
 _ZNSt6vectorINSt7__cxx1112basic_stringIcSt11char_traitsIcESaIcEEESaIS5_EED2Ev@Base 1.3.0~r864
 _ZNSt6vectorIPN6kmldom14ParserObserverESaIS2_EE13_M_insert_auxEN9__gnu_cxx17__normal_iteratorIPS2_S4_EERKS2_@Base 1.3.0~r864
 _ZNSt6vectorIiSaIiEE13_M_insert_auxEN9__gnu_cxx17__normal_iteratorIPiS1_EERKi@Base 1.3.0~r864
 _ZNSt7__cxx1115basic_stringbufIcSt11char_traitsIcESaIcEED0Ev@Base 1.3.0~r864
 _ZNSt7__cxx1115basic_stringbufIcSt11char_traitsIcESaIcEED1Ev@Base 1.3.0~r864
 _ZNSt7__cxx1115basic_stringbufIcSt11char_traitsIcESaIcEED2Ev@Base 1.3.0~r864
 _ZNSt8_Rb_treeINSt7__cxx1112basic_stringIcSt11char_traitsIcESaIcEEESt4pairIKS5_S5_ESt10_Select1stIS8_ESt4lessIS5_ESaIS8_EE11equal_rangeERS7_@Base 1.3.0~r864
 _ZNSt8_Rb_treeINSt7__cxx1112basic_stringIcSt11char_traitsIcESaIcEEESt4pairIKS5_S5_ESt10_Select1stIS8_ESt4lessIS5_ESaIS8_EE24_M_get_insert_unique_posERS7_@Base 1.3.0~r864
 _ZNSt8_Rb_treeINSt7__cxx1112basic_stringIcSt11char_traitsIcESaIcEEESt4pairIKS5_S5_ESt10_Select1stIS8_ESt4lessIS5_ESaIS8_EE29_M_get_insert_hint_unique_posESt23_Rb_tree_const_iteratorIS8_ERS7_@Base 1.3.0~r864
 _ZNSt8_Rb_treeINSt7__cxx1112basic_stringIcSt11char_traitsIcESaIcEEESt4pairIKS5_S5_ESt10_Select1stIS8_ESt4lessIS5_ESaIS8_EE5eraseERS7_@Base 1.3.0~r864
 _ZNSt8_Rb_treeINSt7__cxx1112basic_stringIcSt11char_traitsIcESaIcEEESt4pairIKS5_S5_ESt10_Select1stIS8_ESt4lessIS5_ESaIS8_EE8_M_eraseEPSt13_Rb_tree_nodeIS8_E@Base 1.3.0~r864
 _ZNSt8_Rb_treeINSt7__cxx1112basic_stringIcSt11char_traitsIcESaIcEEESt4pairIKS5_iESt10_Select1stIS8_ESt4lessIS5_ESaIS8_EE24_M_get_insert_unique_posERS7_@Base 1.3.0~r864
 _ZNSt8_Rb_treeINSt7__cxx1112basic_stringIcSt11char_traitsIcESaIcEEESt4pairIKS5_iESt10_Select1stIS8_ESt4lessIS5_ESaIS8_EE29_M_get_insert_hint_unique_posESt23_Rb_tree_const_iteratorIS8_ERS7_@Base 1.3.0~r864
 _ZNSt8_Rb_treeINSt7__cxx1112basic_stringIcSt11char_traitsIcESaIcEEESt4pairIKS5_iESt10_Select1stIS8_ESt4lessIS5_ESaIS8_EE8_M_eraseEPSt13_Rb_tree_nodeIS8_E@Base 1.3.0~r864
 _ZNSt8_Rb_treeIiSt4pairIKiN6kmldom10XsdElementEESt10_Select1stIS4_ESt4lessIiESaIS4_EE8_M_eraseEPSt13_Rb_tree_nodeIS4_E@Base 1.3.0~r864
 _ZStplIcSt11char_traitsIcESaIcEENSt7__cxx1112basic_stringIT_T0_T1_EERKS8_SA_@Base 1.3.0~r864
 _ZTVN6kmldom10AtomAuthorE@Base 1.3.0~r864
 _ZTVN6kmldom10AtomCommonE@Base 1.3.0~r864
 _ZTVN6kmldom10ColorStyleE@Base 1.3.0~r864
 _ZTVN6kmldom10GxPlaylistE@Base 1.3.0~r864
 _ZTVN6kmldom10GxSoundCueE@Base 1.3.0~r864
 _ZTVN6kmldom10GxTimeSpanE@Base 1.3.0~r864
 _ZTVN6kmldom10KmlHandlerE@Base 1.3.0~r864
 _ZTVN6kmldom10LabelStyleE@Base 1.3.0~r864
 _ZTVN6kmldom10LineCommonE@Base 1.3.0~r864
 _ZTVN6kmldom10LineStringE@Base 1.3.0~r864
 _ZTVN6kmldom10LinearRingE@Base 1.3.0~r864
 _ZTVN6kmldom10RotationXYE@Base 1.3.0~r864
 _ZTVN6kmldom10SchemaDataE@Base 1.3.0~r864
 _ZTVN6kmldom10SerializerE@Base 1.3.0~r864
 _ZTVN6kmldom10SimpleDataE@Base 1.3.0~r864
 _ZTVN6kmldom10ViewVolumeE@Base 1.3.0~r864
 _ZTVN6kmldom10XalCountryE@Base 1.3.0~r864
 _ZTVN6kmldom11AtomContentE@Base 1.3.0~r864
 _ZTVN6kmldom11CoordinatesE@Base 1.3.0~r864
 _ZTVN6kmldom11GxTimeStampE@Base 1.3.0~r864
 _ZTVN6kmldom11LinkSnippetE@Base 1.3.0~r864
 _ZTVN6kmldom11NetworkLinkE@Base 1.3.0~r864
 _ZTVN6kmldom11OrientationE@Base 1.3.0~r864
 _ZTVN6kmldom11ResourceMapE@Base 1.3.0~r864
 _ZTVN6kmldom11SimpleFieldE@Base 1.3.0~r864
 _ZTVN6kmldom11XalLocalityE@Base 1.3.0~r864
 _ZTVN6kmldom12AbstractLinkE@Base 1.3.0~r864
 _ZTVN6kmldom12AbstractViewE@Base 1.3.0~r864
 _ZTVN6kmldom12AtomCategoryE@Base 1.3.0~r864
 _ZTVN6kmldom12BalloonStyleE@Base 1.3.0~r864
 _ZTVN6kmldom12BasicElementILi163EEE@Base 1.3.0~r864
 _ZTVN6kmldom12BasicElementILi164EEE@Base 1.3.0~r864
 _ZTVN6kmldom12BasicElementILi165EEE@Base 1.3.0~r864
 _ZTVN6kmldom12BasicElementILi168EEE@Base 1.3.0~r864
 _ZTVN6kmldom12BasicElementILi179EEE@Base 1.3.0~r864
 _ZTVN6kmldom12BasicElementILi180EEE@Base 1.3.0~r864
 _ZTVN6kmldom12BasicElementILi181EEE@Base 1.3.0~r864
 _ZTVN6kmldom12BasicElementILi182EEE@Base 1.3.0~r864
 _ZTVN6kmldom12BasicElementILi183EEE@Base 1.3.0~r864
 _ZTVN6kmldom12BasicElementILi184EEE@Base 1.3.0~r864
 _ZTVN6kmldom12BasicElementILi185EEE@Base 1.3.0~r864
 _ZTVN6kmldom12BasicElementILi199EEE@Base 1.3.0~r864
 _ZTVN6kmldom12BasicElementILi22EEE@Base 1.3.0~r864
 _ZTVN6kmldom12BasicElementILi41EEE@Base 1.3.0~r864
 _ZTVN6kmldom12BasicElementILi45EEE@Base 1.3.0~r864
 _ZTVN6kmldom12BasicElementILi59EEE@Base 1.3.0~r864
 _ZTVN6kmldom12BasicElementILi60EEE@Base 1.3.0~r864
 _ZTVN6kmldom12BasicElementILi66EEE@Base 1.3.0~r864
 _ZTVN6kmldom12BasicElementILi79EEE@Base 1.3.0~r864
 _ZTVN6kmldom12BasicElementILi97EEE@Base 1.3.0~r864
 _ZTVN6kmldom12ExtendedDataE@Base 1.3.0~r864
 _ZTVN6kmldom12GxLatLonQuadE@Base 1.3.0~r864
 _ZTVN6kmldom12GxMultiTrackE@Base 1.3.0~r864
 _ZTVN6kmldom12ImagePyramidE@Base 1.3.0~r864
 _ZTVN6kmldom12KmlHandlerNSE@Base 1.3.0~r864
 _ZTVN6kmldom12LatLonAltBoxE@Base 1.3.0~r864
 _ZTVN6kmldom12PhotoOverlayE@Base 1.3.0~r864
 _ZTVN6kmldom13GroundOverlayE@Base 1.3.0~r864
 _ZTVN6kmldom13GxTourControlE@Base 1.3.0~r864
 _ZTVN6kmldom13IconStyleIconE@Base 1.3.0~r864
 _ZTVN6kmldom13MultiGeometryE@Base 1.3.0~r864
 _ZTVN6kmldom13ScreenOverlayE@Base 1.3.0~r864
 _ZTVN6kmldom13SnippetCommonE@Base 1.3.0~r864
 _ZTVN6kmldom13StyleSelectorE@Base 1.3.0~r864
 _ZTVN6kmldom13TimePrimitiveE@Base 1.3.0~r864
 _ZTVN6kmldom13VisitorDriverE@Base 1.3.0~r864
 _ZTVN6kmldom13XalPostalCodeE@Base 1.3.0~r864
 _ZTVN6kmldom13XmlSerializerINS_13StringAdapterEEE@Base 1.3.0~r864
 _ZTVN6kmldom14BoundaryCommonE@Base 1.3.0~r864
 _ZTVN6kmldom15GxTourPrimitiveE@Base 1.3.0~r864
 _ZTVN6kmldom15InnerBoundaryIsE@Base 1.3.0~r864
 _ZTVN6kmldom15OuterBoundaryIsE@Base 1.3.0~r864
 _ZTVN6kmldom15UpdateOperationE@Base 1.3.0~r864
 _ZTVN6kmldom15XalThoroughfareE@Base 1.3.0~r864
 _ZTVN6kmldom16GxAnimatedUpdateE@Base 1.3.0~r864
 _ZTVN6kmldom17AbstractLatLonBoxE@Base 1.3.0~r864
 _ZTVN6kmldom17GxSimpleArrayDataE@Base 1.3.0~r864
 _ZTVN6kmldom17XalAddressDetailsE@Base 1.3.0~r864
 _ZTVN6kmldom18AbstractViewCommonE@Base 1.3.0~r864
 _ZTVN6kmldom18GxSimpleArrayFieldE@Base 1.3.0~r864
 _ZTVN6kmldom18NetworkLinkControlE@Base 1.3.0~r864
 _ZTVN6kmldom20SimplePreorderDriverE@Base 1.3.0~r864
 _ZTVN6kmldom21ExtrudeGeometryCommonE@Base 1.3.0~r864
 _ZTVN6kmldom21GxTourPrimitiveCommonE@Base 1.3.0~r864
 _ZTVN6kmldom21SimplePostorderDriverE@Base 1.3.0~r864
 _ZTVN6kmldom21XalAdministrativeAreaE@Base 1.3.0~r864
 _ZTVN6kmldom22AltitudeGeometryCommonE@Base 1.3.0~r864
 _ZTVN6kmldom24XalSubAdministrativeAreaE@Base 1.3.0~r864
 _ZTVN6kmldom25CoordinatesGeometryCommonE@Base 1.3.0~r864
 _ZTVN6kmldom3KmlE@Base 1.3.0~r864
 _ZTVN6kmldom3LodE@Base 1.3.0~r864
 _ZTVN6kmldom3UrlE@Base 1.3.0~r864
 _ZTVN6kmldom4DataE@Base 1.3.0~r864
 _ZTVN6kmldom4IconE@Base 1.3.0~r864
 _ZTVN6kmldom4LinkE@Base 1.3.0~r864
 _ZTVN6kmldom4PairE@Base 1.3.0~r864
 _ZTVN6kmldom4SizeE@Base 1.3.0~r864
 _ZTVN6kmldom4Vec2E@Base 1.3.0~r864
 _ZTVN6kmldom5AliasE@Base 1.3.0~r864
 _ZTVN6kmldom5FieldE@Base 1.3.0~r864
 _ZTVN6kmldom5ModelE@Base 1.3.0~r864
 _ZTVN6kmldom5PointE@Base 1.3.0~r864
 _ZTVN6kmldom5ScaleE@Base 1.3.0~r864
 _ZTVN6kmldom5StyleE@Base 1.3.0~r864
 _ZTVN6kmldom6CameraE@Base 1.3.0~r864
 _ZTVN6kmldom6ChangeE@Base 1.3.0~r864
 _ZTVN6kmldom6CreateE@Base 1.3.0~r864
 _ZTVN6kmldom6DeleteE@Base 1.3.0~r864
 _ZTVN6kmldom6FolderE@Base 1.3.0~r864
 _ZTVN6kmldom6GxTourE@Base 1.3.0~r864
 _ZTVN6kmldom6GxWaitE@Base 1.3.0~r864
 _ZTVN6kmldom6LookAtE@Base 1.3.0~r864
 _ZTVN6kmldom6ObjectE@Base 1.3.0~r864
 _ZTVN6kmldom6RegionE@Base 1.3.0~r864
 _ZTVN6kmldom6SchemaE@Base 1.3.0~r864
 _ZTVN6kmldom6UpdateE@Base 1.3.0~r864
 _ZTVN6kmldom7ElementE@Base 1.3.0~r864
 _ZTVN6kmldom7FeatureE@Base 1.3.0~r864
 _ZTVN6kmldom7GxFlyToE@Base 1.3.0~r864
 _ZTVN6kmldom7GxTrackE@Base 1.3.0~r864
 _ZTVN6kmldom7HotSpotE@Base 1.3.0~r864
 _ZTVN6kmldom7OverlayE@Base 1.3.0~r864
 _ZTVN6kmldom7PolygonE@Base 1.3.0~r864
 _ZTVN6kmldom7SnippetE@Base 1.3.0~r864
 _ZTVN6kmldom7VisitorE@Base 1.3.0~r864
 _ZTVN6kmldom8AtomFeedE@Base 1.3.0~r864
 _ZTVN6kmldom8AtomLinkE@Base 1.3.0~r864
 _ZTVN6kmldom8DocumentE@Base 1.3.0~r864
 _ZTVN6kmldom8GeometryE@Base 1.3.0~r864
 _ZTVN6kmldom8ItemIconE@Base 1.3.0~r864
 _ZTVN6kmldom8LocationE@Base 1.3.0~r864
 _ZTVN6kmldom8MetadataE@Base 1.3.0~r864
 _ZTVN6kmldom8ScreenXYE@Base 1.3.0~r864
 _ZTVN6kmldom8StyleMapE@Base 1.3.0~r864
 _ZTVN6kmldom8SubStyleE@Base 1.3.0~r864
 _ZTVN6kmldom8TimeSpanE@Base 1.3.0~r864
 _ZTVN6kmldom9AtomEntryE@Base 1.3.0~r864
 _ZTVN6kmldom9BasicLinkE@Base 1.3.0~r864
 _ZTVN6kmldom9ContainerE@Base 1.3.0~r864
 _ZTVN6kmldom9IconStyleE@Base 1.3.0~r864
 _ZTVN6kmldom9LatLonBoxE@Base 1.3.0~r864
 _ZTVN6kmldom9LineStyleE@Base 1.3.0~r864
 _ZTVN6kmldom9ListStyleE@Base 1.3.0~r864
 _ZTVN6kmldom9OverlayXYE@Base 1.3.0~r864
 _ZTVN6kmldom9PlacemarkE@Base 1.3.0~r864
 _ZTVN6kmldom9PolyStyleE@Base 1.3.0~r864
 _ZTVN6kmldom9TimeStampE@Base 1.3.0~r864
