libgeos-3.5.0.so libgeos-3.5.0 #MINVER#
 _ZN4geos11planargraph11PlanarGraph17findNodesOfDegreeEm@Base 3.5.0
 _ZN4geos11planargraph11PlanarGraph17findNodesOfDegreeEmRSt6vectorIPNS0_4NodeESaIS4_EE@Base 3.5.0
 _ZN4geos11planargraph11PlanarGraph3addEPNS0_4EdgeE@Base 3.4.2
 _ZN4geos11planargraph11PlanarGraph6removeEPNS0_12DirectedEdgeE@Base 3.4.2
 _ZN4geos11planargraph11PlanarGraph6removeEPNS0_4EdgeE@Base 3.4.2
 _ZN4geos11planargraph11PlanarGraph6removeEPNS0_4NodeE@Base 3.4.2
 _ZN4geos11planargraph11PlanarGraphD0Ev@Base 3.4.2
 _ZN4geos11planargraph11PlanarGraphD1Ev@Base 3.4.2
 _ZN4geos11planargraph11PlanarGraphD2Ev@Base 3.4.2
 _ZN4geos11planargraph11pdeLessThanEPNS0_12DirectedEdgeES2_@Base 3.4.2
 _ZN4geos11planargraph12DirectedEdge6setSymEPS1_@Base 3.4.2
 _ZN4geos11planargraph12DirectedEdge7setEdgeEPNS0_4EdgeE@Base 3.4.2
 _ZN4geos11planargraph12DirectedEdge7toEdgesERSt6vectorIPS1_SaIS3_EE@Base 3.4.2
 _ZN4geos11planargraph12DirectedEdge7toEdgesERSt6vectorIPS1_SaIS3_EERS2_IPNS0_4EdgeESaIS8_EE@Base 3.4.2
 _ZN4geos11planargraph12DirectedEdgeC1EPNS0_4NodeES3_RKNS_4geom10CoordinateEb@Base 3.4.2
 _ZN4geos11planargraph12DirectedEdgeC2EPNS0_4NodeES3_RKNS_4geom10CoordinateEb@Base 3.4.2
 _ZN4geos11planargraph12DirectedEdgeD0Ev@Base 3.4.2
 _ZN4geos11planargraph12DirectedEdgeD1Ev@Base 3.4.2
 _ZN4geos11planargraph12DirectedEdgeD2Ev@Base 3.4.2
 _ZN4geos11planargraph14GraphComponent10setVisitedEb@Base 3.4.2
 _ZN4geos11planargraph14GraphComponent9setMarkedEb@Base 3.4.2
 _ZN4geos11planargraph14GraphComponentD0Ev@Base 3.4.2
 _ZN4geos11planargraph14GraphComponentD1Ev@Base 3.4.2
 _ZN4geos11planargraph14GraphComponentD2Ev@Base 3.4.2
 _ZN4geos11planargraph16DirectedEdgeStar11getNextEdgeEPNS0_12DirectedEdgeE@Base 3.4.2
 _ZN4geos11planargraph16DirectedEdgeStar3addEPNS0_12DirectedEdgeE@Base 3.4.2
 _ZN4geos11planargraph16DirectedEdgeStar3endEv@Base 3.4.2
 _ZN4geos11planargraph16DirectedEdgeStar5beginEv@Base 3.4.2
 _ZN4geos11planargraph16DirectedEdgeStar6removeEPNS0_12DirectedEdgeE@Base 3.4.2
 _ZN4geos11planargraph16DirectedEdgeStar8getEdgesEv@Base 3.4.2
 _ZN4geos11planargraph16DirectedEdgeStar8getIndexEPKNS0_12DirectedEdgeE@Base 3.4.2
 _ZN4geos11planargraph16DirectedEdgeStar8getIndexEPKNS0_4EdgeE@Base 3.4.2
 _ZN4geos11planargraph16DirectedEdgeStarD0Ev@Base 3.4.2
 _ZN4geos11planargraph16DirectedEdgeStarD1Ev@Base 3.4.2
 _ZN4geos11planargraph16DirectedEdgeStarD2Ev@Base 3.4.2
 _ZN4geos11planargraph4Edge10getDirEdgeEPNS0_4NodeE@Base 3.4.2
 _ZN4geos11planargraph4Edge10getDirEdgeEi@Base 3.4.2
 _ZN4geos11planargraph4Edge15getOppositeNodeEPNS0_4NodeE@Base 3.4.2
 _ZN4geos11planargraph4Edge16setDirectedEdgesEPNS0_12DirectedEdgeES3_@Base 3.4.2
 _ZN4geos11planargraph4EdgeD0Ev@Base 3.4.2
 _ZN4geos11planargraph4EdgeD1Ev@Base 3.4.2
 _ZN4geos11planargraph4EdgeD2Ev@Base 3.4.2
 _ZN4geos11planargraph4Node15getEdgesBetweenEPS1_S2_@Base 3.4.2
 _ZN4geos11planargraph4NodeD0Ev@Base 3.4.2
 _ZN4geos11planargraph4NodeD1Ev@Base 3.4.2
 _ZN4geos11planargraph4NodeD2Ev@Base 3.4.2
 _ZN4geos11planargraph7NodeMap10getNodeMapEv@Base 3.4.2
 _ZN4geos11planargraph7NodeMap3addEPNS0_4NodeE@Base 3.4.2
 _ZN4geos11planargraph7NodeMap4findERKNS_4geom10CoordinateE@Base 3.4.2
 _ZN4geos11planargraph7NodeMap6removeERNS_4geom10CoordinateE@Base 3.4.2
 _ZN4geos11planargraph7NodeMap8getNodesERSt6vectorIPNS0_4NodeESaIS4_EE@Base 3.4.2
 _ZN4geos11planargraph7NodeMapC1Ev@Base 3.4.2
 _ZN4geos11planargraph7NodeMapC2Ev@Base 3.4.2
 _ZN4geos11planargraph7NodeMapD0Ev@Base 3.4.2
 _ZN4geos11planargraph7NodeMapD1Ev@Base 3.4.2
 _ZN4geos11planargraph7NodeMapD2Ev@Base 3.4.2
 _ZN4geos11planargraph8Subgraph3addEPNS0_4EdgeE@Base 3.4.2
 _ZN4geos11planargraph9algorithm23ConnectedSubgraphFinder12addReachableEPNS0_4NodeEPNS0_8SubgraphE@Base 3.4.2
 _ZN4geos11planargraph9algorithm23ConnectedSubgraphFinder12findSubgraphEPNS0_4NodeE@Base 3.4.2
 _ZN4geos11planargraph9algorithm23ConnectedSubgraphFinder21getConnectedSubgraphsERSt6vectorIPNS0_8SubgraphESaIS5_EE@Base 3.4.2
 _ZN4geos11planargraph9algorithm23ConnectedSubgraphFinder8addEdgesEPNS0_4NodeERSt5stackIS4_St5dequeIS4_SaIS4_EEEPNS0_8SubgraphE@Base 3.4.2
 _ZN4geos11planargraphlsERSoRKNS0_12DirectedEdgeE@Base 3.4.2
 _ZN4geos11planargraphlsERSoRKNS0_4EdgeE@Base 3.4.2
 _ZN4geos11planargraphlsERSoRKNS0_4NodeE@Base 3.4.2
 _ZN4geos11triangulate21VoronoiDiagramBuilder10getDiagramERKNS_4geom15GeometryFactoryE@Base 3.5.0
 _ZN4geos11triangulate21VoronoiDiagramBuilder12setToleranceEd@Base 3.5.0
 _ZN4geos11triangulate21VoronoiDiagramBuilder14getSubdivisionEv@Base 3.5.0
 _ZN4geos11triangulate21VoronoiDiagramBuilder15getDiagramEdgesERKNS_4geom15GeometryFactoryE@Base 3.5.0
 _ZN4geos11triangulate21VoronoiDiagramBuilder15setClipEnvelopeEPKNS_4geom8EnvelopeE@Base 3.5.0
 _ZN4geos11triangulate21VoronoiDiagramBuilder22clipGeometryCollectionERKNS_4geom18GeometryCollectionERKNS2_8EnvelopeE@Base 3.5.0
 _ZN4geos11triangulate21VoronoiDiagramBuilder6createEv@Base 3.5.0
 _ZN4geos11triangulate21VoronoiDiagramBuilder8setSitesERKNS_4geom18CoordinateSequenceE@Base 3.5.0
 _ZN4geos11triangulate21VoronoiDiagramBuilder8setSitesERKNS_4geom8GeometryE@Base 3.5.0
 _ZN4geos11triangulate21VoronoiDiagramBuilderC1Ev@Base 3.5.0
 _ZN4geos11triangulate21VoronoiDiagramBuilderC2Ev@Base 3.5.0
 _ZN4geos11triangulate21VoronoiDiagramBuilderD1Ev@Base 3.5.0
 _ZN4geos11triangulate21VoronoiDiagramBuilderD2Ev@Base 3.5.0
 _ZN4geos11triangulate28DelaunayTriangulationBuilder10toVerticesB5cxx11ERKNS_4geom18CoordinateSequenceE@Base 3.4.2
 _ZN4geos11triangulate28DelaunayTriangulationBuilder12getTrianglesERKNS_4geom15GeometryFactoryE@Base 3.4.2
 _ZN4geos11triangulate28DelaunayTriangulationBuilder14getSubdivisionEv@Base 3.4.2
 _ZN4geos11triangulate28DelaunayTriangulationBuilder24extractUniqueCoordinatesERKNS_4geom8GeometryE@Base 3.4.2
 _ZN4geos11triangulate28DelaunayTriangulationBuilder6createEv@Base 3.4.2
 _ZN4geos11triangulate28DelaunayTriangulationBuilder6uniqueERNS_4geom18CoordinateSequenceE@Base 3.4.2
 _ZN4geos11triangulate28DelaunayTriangulationBuilder8envelopeERKNS_4geom18CoordinateSequenceE@Base 3.4.2
 _ZN4geos11triangulate28DelaunayTriangulationBuilder8getEdgesERKNS_4geom15GeometryFactoryE@Base 3.4.2
 _ZN4geos11triangulate28DelaunayTriangulationBuilder8setSitesERKNS_4geom18CoordinateSequenceE@Base 3.4.2
 _ZN4geos11triangulate28DelaunayTriangulationBuilder8setSitesERKNS_4geom8GeometryE@Base 3.4.2
 _ZN4geos11triangulate28DelaunayTriangulationBuilderC1Ev@Base 3.4.2
 _ZN4geos11triangulate28DelaunayTriangulationBuilderC2Ev@Base 3.4.2
 _ZN4geos11triangulate28DelaunayTriangulationBuilderD1Ev@Base 3.4.2
 _ZN4geos11triangulate28DelaunayTriangulationBuilderD2Ev@Base 3.4.2
 _ZN4geos11triangulate31IncrementalDelaunayTriangulator10insertSiteERKNS0_8quadedge6VertexE@Base 3.4.2
 _ZN4geos11triangulate31IncrementalDelaunayTriangulator11insertSitesERKNSt7__cxx114listINS0_8quadedge6VertexESaIS5_EEE@Base 3.4.2
 _ZN4geos11triangulate31IncrementalDelaunayTriangulatorC1EPNS0_8quadedge19QuadEdgeSubdivisionE@Base 3.4.2
 _ZN4geos11triangulate31IncrementalDelaunayTriangulatorC2EPNS0_8quadedge19QuadEdgeSubdivisionE@Base 3.4.2
 _ZN4geos11triangulate8quadedge15QuadEdgeLocatorD0Ev@Base 3.4.2
 _ZN4geos11triangulate8quadedge15QuadEdgeLocatorD1Ev@Base 3.4.2
 _ZN4geos11triangulate8quadedge15QuadEdgeLocatorD2Ev@Base 3.4.2
 _ZN4geos11triangulate8quadedge15TriangleVisitorD0Ev@Base 3.4.2
 _ZN4geos11triangulate8quadedge15TriangleVisitorD1Ev@Base 3.4.2
 _ZN4geos11triangulate8quadedge15TriangleVisitorD2Ev@Base 3.4.2
 _ZN4geos11triangulate8quadedge19QuadEdgeSubdivision10initSubdivEPPNS1_8QuadEdgeE@Base 3.4.2
 _ZN4geos11triangulate8quadedge19QuadEdgeSubdivision10insertSiteERKNS1_6VertexE@Base 3.4.2
 _ZN4geos11triangulate8quadedge19QuadEdgeSubdivision11createFrameERKNS_4geom8EnvelopeE@Base 3.4.2
 _ZN4geos11triangulate8quadedge19QuadEdgeSubdivision12getTrianglesERKNS_4geom15GeometryFactoryE@Base 3.4.2
 _ZN4geos11triangulate8quadedge19QuadEdgeSubdivision14visitTrianglesEPNS1_15TriangleVisitorEb@Base 3.4.2
 _ZN4geos11triangulate8quadedge19QuadEdgeSubdivision15getPrimaryEdgesB5cxx11Eb@Base 3.4.2
 _ZN4geos11triangulate8quadedge19QuadEdgeSubdivision16getTriangleEdgesERKNS1_8QuadEdgeEPPS4_@Base 3.4.2
 _ZN4geos11triangulate8quadedge19QuadEdgeSubdivision17getVoronoiDiagramERKNS_4geom15GeometryFactoryE@Base 3.5.0
 _ZN4geos11triangulate8quadedge19QuadEdgeSubdivision18getVoronoiCellEdgeEPNS1_8QuadEdgeERKNS_4geom15GeometryFactoryE@Base 3.5.0
 _ZN4geos11triangulate8quadedge19QuadEdgeSubdivision19getVoronoiCellEdgesERKNS_4geom15GeometryFactoryE@Base 3.5.0
 _ZN4geos11triangulate8quadedge19QuadEdgeSubdivision20fetchTriangleToVisitEPNS1_8QuadEdgeERSt5stackIS4_St5dequeIS4_SaIS4_EEEbRSt3setIS4_St4lessIS4_ES7_E@Base 3.4.2
 _ZN4geos11triangulate8quadedge19QuadEdgeSubdivision20getVertexUniqueEdgesB5cxx11Eb@Base 3.5.0
 _ZN4geos11triangulate8quadedge19QuadEdgeSubdivision21getVoronoiCellPolygonEPNS1_8QuadEdgeERKNS_4geom15GeometryFactoryE@Base 3.5.0
 _ZN4geos11triangulate8quadedge19QuadEdgeSubdivision22getTriangleCoordinatesEPNSt7__cxx114listIPNS_4geom18CoordinateSequenceESaIS7_EEEb@Base 3.4.2
 _ZN4geos11triangulate8quadedge19QuadEdgeSubdivision22getVoronoiCellPolygonsERKNS_4geom15GeometryFactoryE@Base 3.5.0
 _ZN4geos11triangulate8quadedge19QuadEdgeSubdivision22getVoronoiDiagramEdgesERKNS_4geom15GeometryFactoryE@Base 3.5.0
 _ZN4geos11triangulate8quadedge19QuadEdgeSubdivision26TriangleCoordinatesVisitor5visitEPPNS1_8QuadEdgeE@Base 3.4.2
 _ZN4geos11triangulate8quadedge19QuadEdgeSubdivision26TriangleCoordinatesVisitorD0Ev@Base 3.4.2
 _ZN4geos11triangulate8quadedge19QuadEdgeSubdivision26TriangleCoordinatesVisitorD1Ev@Base 3.4.2
 _ZN4geos11triangulate8quadedge19QuadEdgeSubdivision26TriangleCoordinatesVisitorD2Ev@Base 3.4.2
 _ZN4geos11triangulate8quadedge19QuadEdgeSubdivision27TriangleCircumcentreVisitor5visitEPPNS1_8QuadEdgeE@Base 3.5.0
 _ZN4geos11triangulate8quadedge19QuadEdgeSubdivision27TriangleCircumcentreVisitorD0Ev@Base 3.5.0
 _ZN4geos11triangulate8quadedge19QuadEdgeSubdivision27TriangleCircumcentreVisitorD1Ev@Base 3.5.0
 _ZN4geos11triangulate8quadedge19QuadEdgeSubdivision27TriangleCircumcentreVisitorD2Ev@Base 3.5.0
 _ZN4geos11triangulate8quadedge19QuadEdgeSubdivision6locateERKNS_4geom10CoordinateES6_@Base 3.4.2
 _ZN4geos11triangulate8quadedge19QuadEdgeSubdivision6removeERNS1_8QuadEdgeE@Base 3.4.2
 _ZN4geos11triangulate8quadedge19QuadEdgeSubdivision7connectERNS1_8QuadEdgeES4_@Base 3.4.2
 _ZN4geos11triangulate8quadedge19QuadEdgeSubdivision8getEdgesERKNS_4geom15GeometryFactoryE@Base 3.4.2
 _ZN4geos11triangulate8quadedge19QuadEdgeSubdivision8makeEdgeERKNS1_6VertexES5_@Base 3.4.2
 _ZN4geos11triangulate8quadedge19QuadEdgeSubdivisionC1ERKNS_4geom8EnvelopeEd@Base 3.4.2
 _ZN4geos11triangulate8quadedge19QuadEdgeSubdivisionC2ERKNS_4geom8EnvelopeEd@Base 3.4.2
 _ZN4geos11triangulate8quadedge19QuadEdgeSubdivisionD0Ev@Base 3.5.0
 _ZN4geos11triangulate8quadedge19QuadEdgeSubdivisionD1Ev@Base 3.4.2
 _ZN4geos11triangulate8quadedge19QuadEdgeSubdivisionD2Ev@Base 3.4.2
 _ZN4geos11triangulate8quadedge22LocateFailureExceptionC1ERKNSt7__cxx1112basic_stringIcSt11char_traitsIcESaIcEEE@Base 3.4.2
 _ZN4geos11triangulate8quadedge22LocateFailureExceptionC2ERKNSt7__cxx1112basic_stringIcSt11char_traitsIcESaIcEEE@Base 3.4.2
 _ZN4geos11triangulate8quadedge22LocateFailureExceptionD0Ev@Base 3.4.2
 _ZN4geos11triangulate8quadedge22LocateFailureExceptionD1Ev@Base 3.4.2
 _ZN4geos11triangulate8quadedge22LocateFailureExceptionD2Ev@Base 3.4.2
 _ZN4geos11triangulate8quadedge24LastFoundQuadEdgeLocator4initEv@Base 3.4.2
 _ZN4geos11triangulate8quadedge24LastFoundQuadEdgeLocator6locateERKNS1_6VertexE@Base 3.4.2
 _ZN4geos11triangulate8quadedge24LastFoundQuadEdgeLocator8findEdgeEv@Base 3.4.2
 _ZN4geos11triangulate8quadedge24LastFoundQuadEdgeLocatorC1EPNS1_19QuadEdgeSubdivisionE@Base 3.4.2
 _ZN4geos11triangulate8quadedge24LastFoundQuadEdgeLocatorC2EPNS1_19QuadEdgeSubdivisionE@Base 3.4.2
 _ZN4geos11triangulate8quadedge24LastFoundQuadEdgeLocatorD0Ev@Base 3.4.2
 _ZN4geos11triangulate8quadedge24LastFoundQuadEdgeLocatorD1Ev@Base 3.4.2
 _ZN4geos11triangulate8quadedge24LastFoundQuadEdgeLocatorD2Ev@Base 3.4.2
 _ZN4geos11triangulate8quadedge6Vertex12interpolateZERKNS_4geom10CoordinateES6_S6_@Base 3.4.2
 _ZN4geos11triangulate8quadedge6Vertex12interpolateZERKNS_4geom10CoordinateES6_S6_S6_@Base 3.4.2
 _ZN4geos11triangulate8quadedge6Vertex17circumRadiusRatioERKS2_S4_@Base 3.4.2
 _ZN4geos11triangulate8quadedge6Vertex8bisectorERKS2_S4_@Base 3.4.2
 _ZN4geos11triangulate8quadedge6Vertex8classifyERKS2_S4_@Base 3.4.2
 _ZN4geos11triangulate8quadedge6Vertex8midPointERKS2_@Base 3.4.2
 _ZN4geos11triangulate8quadedge6VertexC1ERKNS_4geom10CoordinateE@Base 3.4.2
 _ZN4geos11triangulate8quadedge6VertexC1Edd@Base 3.4.2
 _ZN4geos11triangulate8quadedge6VertexC1Eddd@Base 3.4.2
 _ZN4geos11triangulate8quadedge6VertexC1Ev@Base 3.4.2
 _ZN4geos11triangulate8quadedge6VertexC2ERKNS_4geom10CoordinateE@Base 3.4.2
 _ZN4geos11triangulate8quadedge6VertexC2Edd@Base 3.4.2
 _ZN4geos11triangulate8quadedge6VertexC2Eddd@Base 3.4.2
 _ZN4geos11triangulate8quadedge6VertexC2Ev@Base 3.4.2
 _ZN4geos11triangulate8quadedge8QuadEdge4freeEv@Base 3.4.2
 _ZN4geos11triangulate8quadedge8QuadEdge4swapERS2_@Base 3.4.2
 _ZN4geos11triangulate8quadedge8QuadEdge6removeEv@Base 3.4.2
 _ZN4geos11triangulate8quadedge8QuadEdge6spliceERS2_S3_@Base 3.4.2
 _ZN4geos11triangulate8quadedge8QuadEdge7connectERS2_S3_@Base 3.4.2
 _ZN4geos11triangulate8quadedge8QuadEdge7getDataEv@Base 3.4.2
 _ZN4geos11triangulate8quadedge8QuadEdge7setDataEPv@Base 3.4.2
 _ZN4geos11triangulate8quadedge8QuadEdge8makeEdgeERKNS1_6VertexES5_@Base 3.4.2
 _ZN4geos11triangulate8quadedge8QuadEdgeC1Ev@Base 3.4.2
 _ZN4geos11triangulate8quadedge8QuadEdgeC2Ev@Base 3.4.2
 _ZN4geos11triangulate8quadedge8QuadEdgeD0Ev@Base 3.5.0
 _ZN4geos11triangulate8quadedge8QuadEdgeD1Ev@Base 3.4.2
 _ZN4geos11triangulate8quadedge8QuadEdgeD2Ev@Base 3.4.2
 _ZN4geos2io10CLocalizerC1Ev@Base 3.4.2
 _ZN4geos2io10CLocalizerC2Ev@Base 3.4.2
 _ZN4geos2io10CLocalizerD1Ev@Base 3.4.2
 _ZN4geos2io10CLocalizerD2Ev@Base 3.4.2
 _ZN4geos2io14ParseException9stringifyB5cxx11Ed@Base 3.4.2
 _ZN4geos2io14ParseExceptionC1ERKNSt7__cxx1112basic_stringIcSt11char_traitsIcESaIcEEE@Base 3.4.2
 _ZN4geos2io14ParseExceptionC1ERKNSt7__cxx1112basic_stringIcSt11char_traitsIcESaIcEEES9_@Base 3.4.2
 _ZN4geos2io14ParseExceptionC1ERKNSt7__cxx1112basic_stringIcSt11char_traitsIcESaIcEEEd@Base 3.4.2
 _ZN4geos2io14ParseExceptionC1Ev@Base 3.4.2
 _ZN4geos2io14ParseExceptionC2ERKNSt7__cxx1112basic_stringIcSt11char_traitsIcESaIcEEE@Base 3.4.2
 _ZN4geos2io14ParseExceptionC2ERKNSt7__cxx1112basic_stringIcSt11char_traitsIcESaIcEEES9_@Base 3.4.2
 _ZN4geos2io14ParseExceptionC2ERKNSt7__cxx1112basic_stringIcSt11char_traitsIcESaIcEEEd@Base 3.4.2
 _ZN4geos2io14ParseExceptionC2Ev@Base 3.4.2
 _ZN4geos2io14ParseExceptionD0Ev@Base 3.4.2
 _ZN4geos2io14ParseExceptionD1Ev@Base 3.4.2
 _ZN4geos2io14ParseExceptionD2Ev@Base 3.4.2
 _ZN4geos2io15ByteOrderValues6getIntEPKhi@Base 3.4.2
 _ZN4geos2io15ByteOrderValues6putIntEiPhi@Base 3.4.2
 _ZN4geos2io15ByteOrderValues7getLongEPKhi@Base 3.4.2
 _ZN4geos2io15ByteOrderValues7putLongExPhi@Base 3.5.0
 _ZN4geos2io15ByteOrderValues9getDoubleEPKhi@Base 3.4.2
 _ZN4geos2io15ByteOrderValues9putDoubleEdPhi@Base 3.4.2
 _ZN4geos2io15StringTokenizer13peekNextTokenEv@Base 3.4.2
 _ZN4geos2io15StringTokenizer7getNValEv@Base 3.4.2
 _ZN4geos2io15StringTokenizer7getSValB5cxx11Ev@Base 3.4.2
 _ZN4geos2io15StringTokenizer9nextTokenEv@Base 3.4.2
 _ZN4geos2io15StringTokenizerC1ERKNSt7__cxx1112basic_stringIcSt11char_traitsIcESaIcEEE@Base 3.4.2
 _ZN4geos2io15StringTokenizerC2ERKNSt7__cxx1112basic_stringIcSt11char_traitsIcESaIcEEE@Base 3.4.2
 _ZN4geos2io18strtod_with_vc_fixEPKcPPc@Base 3.5.0
 _ZN4geos2io21ByteOrderDataInStream10readDoubleEv@Base 3.4.2
 _ZN4geos2io21ByteOrderDataInStream11setInStreamEPSi@Base 3.4.2
 _ZN4geos2io21ByteOrderDataInStream7readIntEv@Base 3.4.2
 _ZN4geos2io21ByteOrderDataInStream8readByteEv@Base 3.4.2
 _ZN4geos2io21ByteOrderDataInStream8readLongEv@Base 3.4.2
 _ZN4geos2io21ByteOrderDataInStream8setOrderEi@Base 3.4.2
 _ZN4geos2io21ByteOrderDataInStreamC1EPSi@Base 3.4.2
 _ZN4geos2io21ByteOrderDataInStreamC2EPSi@Base 3.4.2
 _ZN4geos2io21ByteOrderDataInStreamD1Ev@Base 3.4.2
 _ZN4geos2io21ByteOrderDataInStreamD2Ev@Base 3.4.2
 _ZN4geos2io6Unload7ReleaseEv@Base 3.4.2
 _ZN4geos2io6Writer5writeERKNSt7__cxx1112basic_stringIcSt11char_traitsIcESaIcEEE@Base 3.4.2
 _ZN4geos2io6Writer7reserveEm@Base 3.5.0
 _ZN4geos2io6Writer8toStringB5cxx11Ev@Base 3.4.2
 _ZN4geos2io6WriterC1Ev@Base 3.4.2
 _ZN4geos2io6WriterC2Ev@Base 3.4.2
 _ZN4geos2io6WriterD1Ev@Base 3.4.2
 _ZN4geos2io6WriterD2Ev@Base 3.4.2
 _ZN4geos2io9WKBReader11readPolygonEv@Base 3.4.2
 _ZN4geos2io9WKBReader12readGeometryEv@Base 3.4.2
 _ZN4geos2io9WKBReader14readCoordinateEv@Base 3.4.2
 _ZN4geos2io9WKBReader14readLineStringEv@Base 3.4.2
 _ZN4geos2io9WKBReader14readLinearRingEv@Base 3.4.2
 _ZN4geos2io9WKBReader14readMultiPointEv@Base 3.4.2
 _ZN4geos2io9WKBReader16readMultiPolygonEv@Base 3.4.2
 _ZN4geos2io9WKBReader19readMultiLineStringEv@Base 3.4.2
 _ZN4geos2io9WKBReader22readCoordinateSequenceEi@Base 3.4.2
 _ZN4geos2io9WKBReader22readGeometryCollectionEv@Base 3.4.2
 _ZN4geos2io9WKBReader4readERSi@Base 3.4.2
 _ZN4geos2io9WKBReader7readHEXERSi@Base 3.4.2
 _ZN4geos2io9WKBReader8printHEXERSiRSo@Base 3.4.2
 _ZN4geos2io9WKBReader9readPointEv@Base 3.4.2
 _ZN4geos2io9WKBReaderC1Ev@Base 3.4.2
 _ZN4geos2io9WKBReaderC2Ev@Base 3.4.2
 _ZN4geos2io9WKBWriter10writePointERKNS_4geom5PointE@Base 3.4.2
 _ZN4geos2io9WKBWriter12setByteOrderEi@Base 3.4.2
 _ZN4geos2io9WKBWriter12writePolygonERKNS_4geom7PolygonE@Base 3.4.2
 _ZN4geos2io9WKBWriter14setIncludeSRIDEi@Base 3.4.2
 _ZN4geos2io9WKBWriter14writeByteOrderEv@Base 3.4.2
 _ZN4geos2io9WKBWriter15writeCoordinateERKNS_4geom18CoordinateSequenceEib@Base 3.4.2
 _ZN4geos2io9WKBWriter15writeLineStringERKNS_4geom10LineStringE@Base 3.4.2
 _ZN4geos2io9WKBWriter17writeGeometryTypeEii@Base 3.4.2
 _ZN4geos2io9WKBWriter18setOutputDimensionEi@Base 3.4.2
 _ZN4geos2io9WKBWriter23writeCoordinateSequenceERKNS_4geom18CoordinateSequenceEb@Base 3.4.2
 _ZN4geos2io9WKBWriter23writeGeometryCollectionERKNS_4geom18GeometryCollectionEi@Base 3.4.2
 _ZN4geos2io9WKBWriter5writeERKNS_4geom8GeometryERSo@Base 3.4.2
 _ZN4geos2io9WKBWriter8writeHEXERKNS_4geom8GeometryERSo@Base 3.4.2
 _ZN4geos2io9WKBWriter8writeIntEi@Base 3.4.2
 _ZN4geos2io9WKBWriter9writeSRIDEi@Base 3.4.2
 _ZN4geos2io9WKBWriterC1Eiib@Base 3.4.2
 _ZN4geos2io9WKBWriterC2Eiib@Base 3.4.2
 _ZN4geos2io9WKBWriterD0Ev@Base 3.4.2
 _ZN4geos2io9WKBWriterD1Ev@Base 3.4.2
 _ZN4geos2io9WKBWriterD2Ev@Base 3.4.2
 _ZN4geos2io9WKTReader11getNextWordB5cxx11EPNS0_15StringTokenizerE@Base 3.4.2
 _ZN4geos2io9WKTReader12isNumberNextEPNS0_15StringTokenizerE@Base 3.4.2
 _ZN4geos2io9WKTReader13getNextCloserB5cxx11EPNS0_15StringTokenizerE@Base 3.4.2
 _ZN4geos2io9WKTReader13getNextNumberEPNS0_15StringTokenizerE@Base 3.4.2
 _ZN4geos2io9WKTReader13readPointTextEPNS0_15StringTokenizerE@Base 3.4.2
 _ZN4geos2io9WKTReader14getCoordinatesEPNS0_15StringTokenizerE@Base 3.4.2
 _ZN4geos2io9WKTReader15readPolygonTextEPNS0_15StringTokenizerE@Base 3.4.2
 _ZN4geos2io9WKTReader18readLineStringTextEPNS0_15StringTokenizerE@Base 3.4.2
 _ZN4geos2io9WKTReader18readLinearRingTextEPNS0_15StringTokenizerE@Base 3.4.2
 _ZN4geos2io9WKTReader18readMultiPointTextEPNS0_15StringTokenizerE@Base 3.4.2
 _ZN4geos2io9WKTReader20getNextCloserOrCommaB5cxx11EPNS0_15StringTokenizerE@Base 3.4.2
 _ZN4geos2io9WKTReader20getNextEmptyOrOpenerB5cxx11EPNS0_15StringTokenizerE@Base 3.4.2
 _ZN4geos2io9WKTReader20getPreciseCoordinateEPNS0_15StringTokenizerERNS_4geom10CoordinateERm@Base 3.5.0
 _ZN4geos2io9WKTReader20readMultiPolygonTextEPNS0_15StringTokenizerE@Base 3.4.2
 _ZN4geos2io9WKTReader22readGeometryTaggedTextEPNS0_15StringTokenizerE@Base 3.4.2
 _ZN4geos2io9WKTReader23readMultiLineStringTextEPNS0_15StringTokenizerE@Base 3.4.2
 _ZN4geos2io9WKTReader26readGeometryCollectionTextEPNS0_15StringTokenizerE@Base 3.4.2
 _ZN4geos2io9WKTReader4readERKNSt7__cxx1112basic_stringIcSt11char_traitsIcESaIcEEE@Base 3.4.2
 _ZN4geos2io9WKTReaderC1EPKNS_4geom15GeometryFactoryE@Base 3.4.2
 _ZN4geos2io9WKTReaderC1ERKNS_4geom15GeometryFactoryE@Base 3.4.2
 _ZN4geos2io9WKTReaderC1Ev@Base 3.4.2
 _ZN4geos2io9WKTReaderC2EPKNS_4geom15GeometryFactoryE@Base 3.4.2
 _ZN4geos2io9WKTReaderC2ERKNS_4geom15GeometryFactoryE@Base 3.4.2
 _ZN4geos2io9WKTReaderC2Ev@Base 3.4.2
 _ZN4geos2io9WKTReaderD1Ev@Base 3.4.2
 _ZN4geos2io9WKTReaderD2Ev@Base 3.4.2
 _ZN4geos2io9WKTWriter11writeNumberB5cxx11Ed@Base 3.4.2
 _ZN4geos2io9WKTWriter12toLineStringB5cxx11ERKNS_4geom10CoordinateES5_@Base 3.4.2
 _ZN4geos2io9WKTWriter12toLineStringB5cxx11ERKNS_4geom18CoordinateSequenceE@Base 3.4.2
 _ZN4geos2io9WKTWriter14writeFormattedB5cxx11EPKNS_4geom8GeometryE@Base 3.4.2
 _ZN4geos2io9WKTWriter14writeFormattedEPKNS_4geom8GeometryEPNS0_6WriterE@Base 3.4.2
 _ZN4geos2io9WKTWriter14writeFormattedEPKNS_4geom8GeometryEbPNS0_6WriterE@Base 3.4.2
 _ZN4geos2io9WKTWriter15appendPointTextEPKNS_4geom10CoordinateEiPNS0_6WriterE@Base 3.4.2
 _ZN4geos2io9WKTWriter16appendCoordinateEPKNS_4geom10CoordinateEPNS0_6WriterE@Base 3.4.2
 _ZN4geos2io9WKTWriter17appendPolygonTextEPKNS_4geom7PolygonEibPNS0_6WriterE@Base 3.4.2
 _ZN4geos2io9WKTWriter18setOutputDimensionEi@Base 3.4.2
 _ZN4geos2io9WKTWriter20appendLineStringTextEPKNS_4geom10LineStringEibPNS0_6WriterE@Base 3.4.2
 _ZN4geos2io9WKTWriter20appendMultiPointTextEPKNS_4geom10MultiPointEiPNS0_6WriterE@Base 3.4.2
 _ZN4geos2io9WKTWriter20setRoundingPrecisionEi@Base 3.4.2
 _ZN4geos2io9WKTWriter21appendPointTaggedTextEPKNS_4geom10CoordinateEiPNS0_6WriterE@Base 3.4.2
 _ZN4geos2io9WKTWriter22appendMultiPolygonTextEPKNS_4geom12MultiPolygonEiPNS0_6WriterE@Base 3.4.2
 _ZN4geos2io9WKTWriter23appendPolygonTaggedTextEPKNS_4geom7PolygonEiPNS0_6WriterE@Base 3.4.2
 _ZN4geos2io9WKTWriter24appendGeometryTaggedTextEPKNS_4geom8GeometryEiPNS0_6WriterE@Base 3.4.2
 _ZN4geos2io9WKTWriter25appendMultiLineStringTextEPKNS_4geom15MultiLineStringEibPNS0_6WriterE@Base 3.4.2
 _ZN4geos2io9WKTWriter26appendLineStringTaggedTextEPKNS_4geom10LineStringEiPNS0_6WriterE@Base 3.4.2
 _ZN4geos2io9WKTWriter26appendLinearRingTaggedTextEPKNS_4geom10LinearRingEiPNS0_6WriterE@Base 3.4.2
 _ZN4geos2io9WKTWriter26appendMultiPointTaggedTextEPKNS_4geom10MultiPointEiPNS0_6WriterE@Base 3.4.2
 _ZN4geos2io9WKTWriter28appendGeometryCollectionTextEPKNS_4geom18GeometryCollectionEiPNS0_6WriterE@Base 3.4.2
 _ZN4geos2io9WKTWriter28appendMultiPolygonTaggedTextEPKNS_4geom12MultiPolygonEiPNS0_6WriterE@Base 3.4.2
 _ZN4geos2io9WKTWriter31appendMultiLineStringTaggedTextEPKNS_4geom15MultiLineStringEiPNS0_6WriterE@Base 3.4.2
 _ZN4geos2io9WKTWriter34appendGeometryCollectionTaggedTextEPKNS_4geom18GeometryCollectionEiPNS0_6WriterE@Base 3.4.2
 _ZN4geos2io9WKTWriter5writeB5cxx11EPKNS_4geom8GeometryE@Base 3.4.2
 _ZN4geos2io9WKTWriter5writeEPKNS_4geom8GeometryEPNS0_6WriterE@Base 3.4.2
 _ZN4geos2io9WKTWriter6indentEiPNS0_6WriterE@Base 3.4.2
 _ZN4geos2io9WKTWriter7setTrimEb@Base 3.4.2
 _ZN4geos2io9WKTWriter7toPointB5cxx11ERKNS_4geom10CoordinateE@Base 3.4.2
 _ZN4geos2io9WKTWriterC1Ev@Base 3.4.2
 _ZN4geos2io9WKTWriterC2Ev@Base 3.4.2
 _ZN4geos2io9WKTWriterD1Ev@Base 3.4.2
 _ZN4geos2io9WKTWriterD2Ev@Base 3.4.2
 _ZN4geos4geom10Coordinate7getNullEv@Base 3.4.2
 _ZN4geos4geom10Coordinate7setNullEv@Base 3.4.2
 _ZN4geos4geom10Coordinate8hashCodeEd@Base 3.4.2
 _ZN4geos4geom10Coordinate9nullCoordE@Base 3.4.2
 _ZN4geos4geom10CoordinateC1Eddd@Base 3.4.2
 _ZN4geos4geom10CoordinateC2Eddd@Base 3.4.2
 _ZN4geos4geom10LineString20validateConstructionEv@Base 3.4.2
 _ZN4geos4geom10LineString8apply_rwEPKNS0_16CoordinateFilterE@Base 3.4.2
 _ZN4geos4geom10LineString8apply_rwEPNS0_14GeometryFilterE@Base 3.4.2
 _ZN4geos4geom10LineString8apply_rwEPNS0_23GeometryComponentFilterE@Base 3.4.2
 _ZN4geos4geom10LineString8apply_rwERNS0_24CoordinateSequenceFilterE@Base 3.4.2
 _ZN4geos4geom10LineString9normalizeEv@Base 3.4.2
 _ZN4geos4geom10LineStringC1EPNS0_18CoordinateSequenceEPKNS0_15GeometryFactoryE@Base 3.4.2
 _ZN4geos4geom10LineStringC1ERKS1_@Base 3.4.2
 _ZN4geos4geom10LineStringC1ESt8auto_ptrINS0_18CoordinateSequenceEEPKNS0_15GeometryFactoryE@Base 3.4.2
 _ZN4geos4geom10LineStringC2EPNS0_18CoordinateSequenceEPKNS0_15GeometryFactoryE@Base 3.4.2
 _ZN4geos4geom10LineStringC2ERKS1_@Base 3.4.2
 _ZN4geos4geom10LineStringC2ESt8auto_ptrINS0_18CoordinateSequenceEEPKNS0_15GeometryFactoryE@Base 3.4.2
 _ZN4geos4geom10LineStringD0Ev@Base 3.4.2
 _ZN4geos4geom10LineStringD1Ev@Base 3.4.2
 _ZN4geos4geom10LineStringD2Ev@Base 3.4.2
 _ZN4geos4geom10LinearRing20validateConstructionEv@Base 3.4.2
 _ZN4geos4geom10LinearRing9setPointsEPNS0_18CoordinateSequenceE@Base 3.4.2
 _ZN4geos4geom10LinearRingC1EPNS0_18CoordinateSequenceEPKNS0_15GeometryFactoryE@Base 3.4.2
 _ZN4geos4geom10LinearRingC1ERKS1_@Base 3.4.2
 _ZN4geos4geom10LinearRingC1ESt8auto_ptrINS0_18CoordinateSequenceEEPKNS0_15GeometryFactoryE@Base 3.4.2
 _ZN4geos4geom10LinearRingC2EPNS0_18CoordinateSequenceEPKNS0_15GeometryFactoryE@Base 3.4.2
 _ZN4geos4geom10LinearRingC2ERKS1_@Base 3.4.2
 _ZN4geos4geom10LinearRingC2ESt8auto_ptrINS0_18CoordinateSequenceEEPKNS0_15GeometryFactoryE@Base 3.4.2
 _ZN4geos4geom10LinearRingD0Ev@Base 3.4.2
 _ZN4geos4geom10LinearRingD1Ev@Base 3.4.2
 _ZN4geos4geom10LinearRingD2Ev@Base 3.4.2
 _ZN4geos4geom10MultiPointC1EPSt6vectorIPNS0_8GeometryESaIS4_EEPKNS0_15GeometryFactoryE@Base 3.4.2
 _ZN4geos4geom10MultiPointC2EPSt6vectorIPNS0_8GeometryESaIS4_EEPKNS0_15GeometryFactoryE@Base 3.4.2
 _ZN4geos4geom10MultiPointD0Ev@Base 3.4.2
 _ZN4geos4geom10MultiPointD1Ev@Base 3.4.2
 _ZN4geos4geom10MultiPointD2Ev@Base 3.4.2
 _ZN4geos4geom11GeomPtrPairD1Ev@Base 3.4.2
 _ZN4geos4geom11GeomPtrPairD2Ev@Base 3.4.2
 _ZN4geos4geom11LineSegment13closestPointsEPKS1_@Base 3.4.2
 _ZN4geos4geom11LineSegment13closestPointsERKS1_@Base 3.4.2
 _ZN4geos4geom11LineSegment14setCoordinatesERKNS0_10CoordinateES4_@Base 3.4.2
 _ZN4geos4geom11LineSegment14setCoordinatesERKS1_@Base 3.4.2
 _ZN4geos4geom11LineSegment7reverseEv@Base 3.4.2
 _ZN4geos4geom11LineSegment9normalizeEv@Base 3.4.2
 _ZN4geos4geom11LineSegmentC1ERKNS0_10CoordinateES4_@Base 3.4.2
 _ZN4geos4geom11LineSegmentC1ERKS1_@Base 3.4.2
 _ZN4geos4geom11LineSegmentC1Edddd@Base 3.4.2
 _ZN4geos4geom11LineSegmentC1Ev@Base 3.4.2
 _ZN4geos4geom11LineSegmentC2ERKNS0_10CoordinateES4_@Base 3.4.2
 _ZN4geos4geom11LineSegmentC2ERKS1_@Base 3.4.2
 _ZN4geos4geom11LineSegmentC2Edddd@Base 3.4.2
 _ZN4geos4geom11LineSegmentC2Ev@Base 3.4.2
 _ZN4geos4geom11LineSegmentD0Ev@Base 3.4.2
 _ZN4geos4geom11LineSegmentD1Ev@Base 3.4.2
 _ZN4geos4geom11LineSegmentD2Ev@Base 3.4.2
 _ZN4geos4geom11LineSegmentixEm@Base 3.5.0
 _ZN4geos4geom11check_validERKNS0_8GeometryERKNSt7__cxx1112basic_stringIcSt11char_traitsIcESaIcEEEbb@Base 3.4.2
 _ZN4geos4geom11geosversionB5cxx11Ev@Base 3.4.2
 _ZN4geos4geom12GeometryList3addESt8auto_ptrINS0_8GeometryEE@Base 3.4.2
 _ZN4geos4geom12GeometryList6createEv@Base 3.4.2
 _ZN4geos4geom12GeometryListC1Ev@Base 3.4.2
 _ZN4geos4geom12GeometryListC2Ev@Base 3.4.2
 _ZN4geos4geom12GeometryListD1Ev@Base 3.4.2
 _ZN4geos4geom12GeometryListD2Ev@Base 3.4.2
 _ZN4geos4geom12GeometryListixEm@Base 3.5.0
 _ZN4geos4geom12MultiPolygonC1EPSt6vectorIPNS0_8GeometryESaIS4_EEPKNS0_15GeometryFactoryE@Base 3.4.2
 _ZN4geos4geom12MultiPolygonC1ERKS1_@Base 3.4.2
 _ZN4geos4geom12MultiPolygonC2EPSt6vectorIPNS0_8GeometryESaIS4_EEPKNS0_15GeometryFactoryE@Base 3.4.2
 _ZN4geos4geom12MultiPolygonC2ERKS1_@Base 3.4.2
 _ZN4geos4geom12MultiPolygonD0Ev@Base 3.4.2
 _ZN4geos4geom12MultiPolygonD1Ev@Base 3.4.2
 _ZN4geos4geom12MultiPolygonD2Ev@Base 3.4.2
 _ZN4geos4geom14GeometryFilter9filter_roEPKNS0_8GeometryE@Base 3.4.2
 _ZN4geos4geom14GeometryFilter9filter_rwEPNS0_8GeometryE@Base 3.4.2
 _ZN4geos4geom14GeometryFilterD0Ev@Base 3.4.2
 _ZN4geos4geom14GeometryFilterD1Ev@Base 3.4.2
 _ZN4geos4geom14GeometryFilterD2Ev@Base 3.4.2
 _ZN4geos4geom14PrecisionModel19maximumPreciseValueE@Base 3.4.2
 _ZN4geos4geom14PrecisionModel8setScaleEd@Base 3.4.2
 _ZN4geos4geom14PrecisionModelC1ENS1_4TypeE@Base 3.4.2
 _ZN4geos4geom14PrecisionModelC1ERKS1_@Base 3.4.2
 _ZN4geos4geom14PrecisionModelC1Ed@Base 3.4.2
 _ZN4geos4geom14PrecisionModelC1Eddd@Base 3.4.2
 _ZN4geos4geom14PrecisionModelC1Ev@Base 3.4.2
 _ZN4geos4geom14PrecisionModelC2ENS1_4TypeE@Base 3.4.2
 _ZN4geos4geom14PrecisionModelC2ERKS1_@Base 3.4.2
 _ZN4geos4geom14PrecisionModelC2Ed@Base 3.4.2
 _ZN4geos4geom14PrecisionModelC2Eddd@Base 3.4.2
 _ZN4geos4geom14PrecisionModelC2Ev@Base 3.4.2
 _ZN4geos4geom14PrecisionModelD1Ev@Base 3.4.2
 _ZN4geos4geom14PrecisionModelD2Ev@Base 3.4.2
 _ZN4geos4geom15GeometryFactory18getDefaultInstanceEv@Base 3.4.2
 _ZN4geos4geom15GeometryFactoryC1EPKNS0_14PrecisionModelE@Base 3.4.2
 _ZN4geos4geom15GeometryFactoryC1EPKNS0_14PrecisionModelEi@Base 3.4.2
 _ZN4geos4geom15GeometryFactoryC1EPKNS0_14PrecisionModelEiPNS0_25CoordinateSequenceFactoryE@Base 3.4.2
 _ZN4geos4geom15GeometryFactoryC1EPNS0_25CoordinateSequenceFactoryE@Base 3.4.2
 _ZN4geos4geom15GeometryFactoryC1ERKS1_@Base 3.4.2
 _ZN4geos4geom15GeometryFactoryC1Ev@Base 3.4.2
 _ZN4geos4geom15GeometryFactoryC2EPKNS0_14PrecisionModelE@Base 3.4.2
 _ZN4geos4geom15GeometryFactoryC2EPKNS0_14PrecisionModelEi@Base 3.4.2
 _ZN4geos4geom15GeometryFactoryC2EPKNS0_14PrecisionModelEiPNS0_25CoordinateSequenceFactoryE@Base 3.4.2
 _ZN4geos4geom15GeometryFactoryC2EPNS0_25CoordinateSequenceFactoryE@Base 3.4.2
 _ZN4geos4geom15GeometryFactoryC2ERKS1_@Base 3.4.2
 _ZN4geos4geom15GeometryFactoryC2Ev@Base 3.4.2
 _ZN4geos4geom15GeometryFactoryD0Ev@Base 3.4.2
 _ZN4geos4geom15GeometryFactoryD1Ev@Base 3.4.2
 _ZN4geos4geom15GeometryFactoryD2Ev@Base 3.4.2
 _ZN4geos4geom15MultiLineStringC1EPSt6vectorIPNS0_8GeometryESaIS4_EEPKNS0_15GeometryFactoryE@Base 3.4.2
 _ZN4geos4geom15MultiLineStringC1ERKS1_@Base 3.4.2
 _ZN4geos4geom15MultiLineStringC2EPSt6vectorIPNS0_8GeometryESaIS4_EEPKNS0_15GeometryFactoryE@Base 3.4.2
 _ZN4geos4geom15MultiLineStringC2ERKS1_@Base 3.4.2
 _ZN4geos4geom15MultiLineStringD0Ev@Base 3.4.2
 _ZN4geos4geom15MultiLineStringD1Ev@Base 3.4.2
 _ZN4geos4geom15MultiLineStringD2Ev@Base 3.4.2
 _ZN4geos4geom16CoordinateFilter9filter_roEPKNS0_10CoordinateE@Base 3.4.2
 _ZN4geos4geom16CoordinateFilterD0Ev@Base 3.4.2
 _ZN4geos4geom16CoordinateFilterD1Ev@Base 3.4.2
 _ZN4geos4geom16CoordinateFilterD2Ev@Base 3.4.2
 _ZN4geos4geom17TrianglePredicate16isInCircleRobustERKNS0_10CoordinateES4_S4_S4_@Base 3.4.2
 _ZN4geos4geom17TrianglePredicate19isInCircleNonRobustERKNS0_10CoordinateES4_S4_S4_@Base 3.4.2
 _ZN4geos4geom17TrianglePredicate20isInCircleNormalizedERKNS0_10CoordinateES4_S4_S4_@Base 3.4.2
 _ZN4geos4geom17TrianglePredicate7triAreaERKNS0_10CoordinateES4_S4_@Base 3.4.2
 _ZN4geos4geom18CoordinateSequence13minCoordinateEPS1_@Base 3.4.2
 _ZN4geos4geom18CoordinateSequence17hasRepeatedPointsEPKS1_@Base 3.4.2
 _ZN4geos4geom18CoordinateSequence19increasingDirectionERKS1_@Base 3.4.2
 _ZN4geos4geom18CoordinateSequence20removeRepeatedPointsEPKS1_@Base 3.4.2
 _ZN4geos4geom18CoordinateSequence28atLeastNCoordinatesOrNothingEmPS1_@Base 3.5.0
 _ZN4geos4geom18CoordinateSequence3addEPKS1_bb@Base 3.4.2
 _ZN4geos4geom18CoordinateSequence3addEPKSt6vectorINS0_10CoordinateESaIS3_EEb@Base 3.4.2
 _ZN4geos4geom18CoordinateSequence3addERKNS0_10CoordinateEb@Base 3.4.2
 _ZN4geos4geom18CoordinateSequence6equalsEPKS1_S3_@Base 3.4.2
 _ZN4geos4geom18CoordinateSequence6scrollEPS1_PKNS0_10CoordinateE@Base 3.4.2
 _ZN4geos4geom18CoordinateSequence7indexOfEPKNS0_10CoordinateEPKS1_@Base 3.4.2
 _ZN4geos4geom18CoordinateSequence7reverseEPS1_@Base 3.4.2
 _ZN4geos4geom18GeometryCollection8apply_rwEPKNS0_16CoordinateFilterE@Base 3.4.2
 _ZN4geos4geom18GeometryCollection8apply_rwEPNS0_14GeometryFilterE@Base 3.4.2
 _ZN4geos4geom18GeometryCollection8apply_rwEPNS0_23GeometryComponentFilterE@Base 3.4.2
 _ZN4geos4geom18GeometryCollection8apply_rwERNS0_24CoordinateSequenceFilterE@Base 3.4.2
 _ZN4geos4geom18GeometryCollection9normalizeEv@Base 3.4.2
 _ZN4geos4geom18GeometryCollectionC1EPSt6vectorIPNS0_8GeometryESaIS4_EEPKNS0_15GeometryFactoryE@Base 3.4.2
 _ZN4geos4geom18GeometryCollectionC1ERKS1_@Base 3.4.2
 _ZN4geos4geom18GeometryCollectionC2EPSt6vectorIPNS0_8GeometryESaIS4_EEPKNS0_15GeometryFactoryE@Base 3.4.2
 _ZN4geos4geom18GeometryCollectionC2ERKS1_@Base 3.4.2
 _ZN4geos4geom18GeometryCollectionD0Ev@Base 3.4.2
 _ZN4geos4geom18GeometryCollectionD1Ev@Base 3.4.2
 _ZN4geos4geom18GeometryCollectionD2Ev@Base 3.4.2
 _ZN4geos4geom18IntersectionMatrix10setAtLeastENSt7__cxx1112basic_stringIcSt11char_traitsIcESaIcEEE@Base 3.4.2
 _ZN4geos4geom18IntersectionMatrix10setAtLeastEiii@Base 3.4.2
 _ZN4geos4geom18IntersectionMatrix17setAtLeastIfValidEiii@Base 3.4.2
 _ZN4geos4geom18IntersectionMatrix3addEPS1_@Base 3.4.2
 _ZN4geos4geom18IntersectionMatrix3setERKNSt7__cxx1112basic_stringIcSt11char_traitsIcESaIcEEE@Base 3.4.2
 _ZN4geos4geom18IntersectionMatrix3setEiii@Base 3.4.2
 _ZN4geos4geom18IntersectionMatrix6setAllEi@Base 3.4.2
 _ZN4geos4geom18IntersectionMatrix7matchesERKNSt7__cxx1112basic_stringIcSt11char_traitsIcESaIcEEES9_@Base 3.4.2
 _ZN4geos4geom18IntersectionMatrix7matchesEic@Base 3.4.2
 _ZN4geos4geom18IntersectionMatrix8firstDimE@Base 3.4.2
 _ZN4geos4geom18IntersectionMatrix9secondDimE@Base 3.4.2
 _ZN4geos4geom18IntersectionMatrix9transposeEv@Base 3.4.2
 _ZN4geos4geom18IntersectionMatrixC1ERKNSt7__cxx1112basic_stringIcSt11char_traitsIcESaIcEEE@Base 3.4.2
 _ZN4geos4geom18IntersectionMatrixC1ERKS1_@Base 3.4.2
 _ZN4geos4geom18IntersectionMatrixC1Ev@Base 3.4.2
 _ZN4geos4geom18IntersectionMatrixC2ERKNSt7__cxx1112basic_stringIcSt11char_traitsIcESaIcEEE@Base 3.4.2
 _ZN4geos4geom18IntersectionMatrixC2ERKS1_@Base 3.4.2
 _ZN4geos4geom18IntersectionMatrixC2Ev@Base 3.4.2
 _ZN4geos4geom19GeometryGreaterThenclEPKNS0_8GeometryES4_@Base 3.4.2
 _ZN4geos4geom23CoordinateArraySequence11setOrdinateEmmd@Base 3.5.0
 _ZN4geos4geom23CoordinateArraySequence20removeRepeatedPointsEv@Base 3.4.2
 _ZN4geos4geom23CoordinateArraySequence3addERKNS0_10CoordinateE@Base 3.4.2
 _ZN4geos4geom23CoordinateArraySequence3addERKNS0_10CoordinateEb@Base 3.4.2
 _ZN4geos4geom23CoordinateArraySequence3addEmRKNS0_10CoordinateEb@Base 3.5.0
 _ZN4geos4geom23CoordinateArraySequence5setAtERKNS0_10CoordinateEm@Base 3.5.0
 _ZN4geos4geom23CoordinateArraySequence8apply_rwEPKNS0_16CoordinateFilterE@Base 3.4.2
 _ZN4geos4geom23CoordinateArraySequence8deleteAtEm@Base 3.5.0
 _ZN4geos4geom23CoordinateArraySequence9setPointsERKSt6vectorINS0_10CoordinateESaIS3_EE@Base 3.4.2
 _ZN4geos4geom23CoordinateArraySequenceC1EPSt6vectorINS0_10CoordinateESaIS3_EEm@Base 3.5.0
 _ZN4geos4geom23CoordinateArraySequenceC1ERKNS0_18CoordinateSequenceE@Base 3.4.2
 _ZN4geos4geom23CoordinateArraySequenceC1ERKS1_@Base 3.4.2
 _ZN4geos4geom23CoordinateArraySequenceC1Emm@Base 3.5.0
 _ZN4geos4geom23CoordinateArraySequenceC1Ev@Base 3.4.2
 _ZN4geos4geom23CoordinateArraySequenceC2EPSt6vectorINS0_10CoordinateESaIS3_EEm@Base 3.5.0
 _ZN4geos4geom23CoordinateArraySequenceC2ERKNS0_18CoordinateSequenceE@Base 3.4.2
 _ZN4geos4geom23CoordinateArraySequenceC2ERKS1_@Base 3.4.2
 _ZN4geos4geom23CoordinateArraySequenceC2Emm@Base 3.5.0
 _ZN4geos4geom23CoordinateArraySequenceC2Ev@Base 3.4.2
 _ZN4geos4geom23CoordinateArraySequenceD0Ev@Base 3.4.2
 _ZN4geos4geom23CoordinateArraySequenceD1Ev@Base 3.4.2
 _ZN4geos4geom23CoordinateArraySequenceD2Ev@Base 3.4.2
 _ZN4geos4geom23GeometryComponentFilter9filter_roEPKNS0_8GeometryE@Base 3.4.2
 _ZN4geos4geom23GeometryComponentFilter9filter_rwEPNS0_8GeometryE@Base 3.4.2
 _ZN4geos4geom23GeometryComponentFilterD0Ev@Base 3.4.2
 _ZN4geos4geom23GeometryComponentFilterD1Ev@Base 3.4.2
 _ZN4geos4geom23GeometryComponentFilterD2Ev@Base 3.4.2
 _ZN4geos4geom24CoordinateSequenceFilter9filter_roERKNS0_18CoordinateSequenceEm@Base 3.5.0
 _ZN4geos4geom24CoordinateSequenceFilter9filter_rwERNS0_18CoordinateSequenceEm@Base 3.5.0
 _ZN4geos4geom25CoordinateSequenceFactoryD0Ev@Base 3.4.2
 _ZN4geos4geom25CoordinateSequenceFactoryD1Ev@Base 3.4.2
 _ZN4geos4geom25CoordinateSequenceFactoryD2Ev@Base 3.4.2
 _ZN4geos4geom30CoordinateArraySequenceFactory8instanceEv@Base 3.4.2
 _ZN4geos4geom30CoordinateArraySequenceFactoryD0Ev@Base 3.4.2
 _ZN4geos4geom30CoordinateArraySequenceFactoryD1Ev@Base 3.4.2
 _ZN4geos4geom30CoordinateArraySequenceFactoryD2Ev@Base 3.4.2
 _ZN4geos4geom4prep13PreparedPointD0Ev@Base 3.4.2
 _ZN4geos4geom4prep13PreparedPointD1Ev@Base 3.4.2
 _ZN4geos4geom4prep13PreparedPointD2Ev@Base 3.4.2
 _ZN4geos4geom4prep15PreparedPolygonC1EPKNS0_8GeometryE@Base 3.4.2
 _ZN4geos4geom4prep15PreparedPolygonC2EPKNS0_8GeometryE@Base 3.4.2
 _ZN4geos4geom4prep15PreparedPolygonD0Ev@Base 3.4.2
 _ZN4geos4geom4prep15PreparedPolygonD1Ev@Base 3.4.2
 _ZN4geos4geom4prep15PreparedPolygonD2Ev@Base 3.4.2
 _ZN4geos4geom4prep18PreparedLineString21getIntersectionFinderEv@Base 3.4.2
 _ZN4geos4geom4prep18PreparedLineStringD0Ev@Base 3.4.2
 _ZN4geos4geom4prep18PreparedLineStringD1Ev@Base 3.4.2
 _ZN4geos4geom4prep18PreparedLineStringD2Ev@Base 3.4.2
 _ZN4geos4geom4prep21BasicPreparedGeometry11setGeometryEPKNS0_8GeometryE@Base 3.4.2
 _ZN4geos4geom4prep21BasicPreparedGeometry8toStringB5cxx11Ev@Base 3.4.2
 _ZN4geos4geom4prep21BasicPreparedGeometryC1EPKNS0_8GeometryE@Base 3.4.2
 _ZN4geos4geom4prep21BasicPreparedGeometryC2EPKNS0_8GeometryE@Base 3.4.2
 _ZN4geos4geom4prep21BasicPreparedGeometryD0Ev@Base 3.4.2
 _ZN4geos4geom4prep21BasicPreparedGeometryD1Ev@Base 3.4.2
 _ZN4geos4geom4prep21BasicPreparedGeometryD2Ev@Base 3.4.2
 _ZN4geos4geom4prep21PreparedPolygonCovers24fullTopologicalPredicateEPKNS0_8GeometryE@Base 3.4.2
 _ZN4geos4geom4prep21PreparedPolygonCoversD0Ev@Base 3.4.2
 _ZN4geos4geom4prep21PreparedPolygonCoversD1Ev@Base 3.4.2
 _ZN4geos4geom4prep21PreparedPolygonCoversD2Ev@Base 3.4.2
 _ZN4geos4geom4prep23PreparedPolygonContains24fullTopologicalPredicateEPKNS0_8GeometryE@Base 3.4.2
 _ZN4geos4geom4prep23PreparedPolygonContainsC1EPKNS1_15PreparedPolygonE@Base 3.4.2
 _ZN4geos4geom4prep23PreparedPolygonContainsC2EPKNS1_15PreparedPolygonE@Base 3.4.2
 _ZN4geos4geom4prep23PreparedPolygonContainsD0Ev@Base 3.4.2
 _ZN4geos4geom4prep23PreparedPolygonContainsD1Ev@Base 3.4.2
 _ZN4geos4geom4prep23PreparedPolygonContainsD2Ev@Base 3.4.2
 _ZN4geos4geom4prep24PreparedPolygonPredicateD0Ev@Base 3.4.2
 _ZN4geos4geom4prep24PreparedPolygonPredicateD1Ev@Base 3.4.2
 _ZN4geos4geom4prep24PreparedPolygonPredicateD2Ev@Base 3.4.2
 _ZN4geos4geom4prep25PreparedPolygonIntersects10intersectsEPKNS0_8GeometryE@Base 3.4.2
 _ZN4geos4geom4prep25PreparedPolygonIntersectsD0Ev@Base 3.4.2
 _ZN4geos4geom4prep25PreparedPolygonIntersectsD1Ev@Base 3.4.2
 _ZN4geos4geom4prep25PreparedPolygonIntersectsD2Ev@Base 3.4.2
 _ZN4geos4geom4prep31AbstractPreparedPolygonContains13isSingleShellERKNS0_8GeometryE@Base 3.4.2
 _ZN4geos4geom4prep31AbstractPreparedPolygonContains28findAndClassifyIntersectionsEPKNS0_8GeometryE@Base 3.4.2
 _ZN4geos4geom4prep31AbstractPreparedPolygonContains48isProperIntersectionImpliesNotContainedSituationEPKNS0_8GeometryE@Base 3.4.2
 _ZN4geos4geom4prep31AbstractPreparedPolygonContains4evalEPKNS0_8GeometryE@Base 3.4.2
 _ZN4geos4geom4prep31PreparedPolygonContainsProperly16containsProperlyEPKNS0_8GeometryE@Base 3.4.2
 _ZN4geos4geom4prep31PreparedPolygonContainsProperlyD0Ev@Base 3.4.2
 _ZN4geos4geom4prep31PreparedPolygonContainsProperlyD1Ev@Base 3.4.2
 _ZN4geos4geom4prep31PreparedPolygonContainsProperlyD2Ev@Base 3.4.2
 _ZN4geos4geom4util14GeometryEditor11editPolygonEPKNS0_7PolygonEPNS1_23GeometryEditorOperationE@Base 3.4.2
 _ZN4geos4geom4util14GeometryEditor22editGeometryCollectionEPKNS0_18GeometryCollectionEPNS1_23GeometryEditorOperationE@Base 3.4.2
 _ZN4geos4geom4util14GeometryEditor4editEPKNS0_8GeometryEPNS1_23GeometryEditorOperationE@Base 3.4.2
 _ZN4geos4geom4util14GeometryEditorC1EPKNS0_15GeometryFactoryE@Base 3.4.2
 _ZN4geos4geom4util14GeometryEditorC1Ev@Base 3.4.2
 _ZN4geos4geom4util14GeometryEditorC2EPKNS0_15GeometryFactoryE@Base 3.4.2
 _ZN4geos4geom4util14GeometryEditorC2Ev@Base 3.4.2
 _ZN4geos4geom4util14PointExtracter9filter_roEPKNS0_8GeometryE@Base 3.4.2
 _ZN4geos4geom4util14PointExtracter9filter_rwEPNS0_8GeometryE@Base 3.4.2
 _ZN4geos4geom4util14PointExtracter9getPointsERKNS0_8GeometryERSt6vectorIPKNS0_5PointESaIS9_EE@Base 3.5.0
 _ZN4geos4geom4util14PointExtracterC1ERSt6vectorIPKNS0_5PointESaIS6_EE@Base 3.5.0
 _ZN4geos4geom4util14PointExtracterC2ERSt6vectorIPKNS0_5PointESaIS6_EE@Base 3.5.0
 _ZN4geos4geom4util14PointExtracterD0Ev@Base 3.4.2
 _ZN4geos4geom4util14PointExtracterD1Ev@Base 3.4.2
 _ZN4geos4geom4util14PointExtracterD2Ev@Base 3.4.2
 _ZN4geos4geom4util16GeometryCombiner14extractFactoryERKSt6vectorIPNS0_8GeometryESaIS5_EE@Base 3.4.2
 _ZN4geos4geom4util16GeometryCombiner15extractElementsEPNS0_8GeometryERSt6vectorIS4_SaIS4_EE@Base 3.4.2
 _ZN4geos4geom4util16GeometryCombiner7combineEPKNS0_8GeometryES5_@Base 3.4.2
 _ZN4geos4geom4util16GeometryCombiner7combineEPKNS0_8GeometryES5_S5_@Base 3.4.2
 _ZN4geos4geom4util16GeometryCombiner7combineERKSt6vectorIPNS0_8GeometryESaIS5_EE@Base 3.4.2
 _ZN4geos4geom4util16GeometryCombiner7combineEv@Base 3.4.2
 _ZN4geos4geom4util16GeometryCombinerC1ERKSt6vectorIPNS0_8GeometryESaIS5_EE@Base 3.4.2
 _ZN4geos4geom4util16GeometryCombinerC2ERKSt6vectorIPNS0_8GeometryESaIS5_EE@Base 3.4.2
 _ZN4geos4geom4util16PolygonExtracter11getPolygonsERKNS0_8GeometryERSt6vectorIPKNS0_7PolygonESaIS9_EE@Base 3.5.0
 _ZN4geos4geom4util16PolygonExtracter9filter_roEPKNS0_8GeometryE@Base 3.4.2
 _ZN4geos4geom4util16PolygonExtracter9filter_rwEPNS0_8GeometryE@Base 3.4.2
 _ZN4geos4geom4util16PolygonExtracterC1ERSt6vectorIPKNS0_7PolygonESaIS6_EE@Base 3.5.0
 _ZN4geos4geom4util16PolygonExtracterC2ERSt6vectorIPKNS0_7PolygonESaIS6_EE@Base 3.5.0
 _ZN4geos4geom4util16PolygonExtracterD0Ev@Base 3.4.2
 _ZN4geos4geom4util16PolygonExtracterD1Ev@Base 3.4.2
 _ZN4geos4geom4util16PolygonExtracterD2Ev@Base 3.4.2
 _ZN4geos4geom4util17GeometryExtracter9ExtracterINS0_10LineStringESt6vectorIPKS4_SaIS7_EEE9filter_roEPKNS0_8GeometryE@Base 3.4.2
 _ZN4geos4geom4util17GeometryExtracter9ExtracterINS0_10LineStringESt6vectorIPKS4_SaIS7_EEED0Ev@Base 3.4.2
 _ZN4geos4geom4util17GeometryExtracter9ExtracterINS0_10LineStringESt6vectorIPKS4_SaIS7_EEED1Ev@Base 3.4.2
 _ZN4geos4geom4util17GeometryExtracter9ExtracterINS0_10LineStringESt6vectorIPKS4_SaIS7_EEED2Ev@Base 3.4.2
 _ZN4geos4geom4util17GeometryExtracter9ExtracterINS0_5PointESt6vectorIPKS4_SaIS7_EEE9filter_roEPKNS0_8GeometryE@Base 3.4.2
 _ZN4geos4geom4util17GeometryExtracter9ExtracterINS0_5PointESt6vectorIPKS4_SaIS7_EEED0Ev@Base 3.4.2
 _ZN4geos4geom4util17GeometryExtracter9ExtracterINS0_5PointESt6vectorIPKS4_SaIS7_EEED1Ev@Base 3.4.2
 _ZN4geos4geom4util17GeometryExtracter9ExtracterINS0_5PointESt6vectorIPKS4_SaIS7_EEED2Ev@Base 3.4.2
 _ZN4geos4geom4util17GeometryExtracter9ExtracterINS0_7PolygonESt6vectorIPKS4_SaIS7_EEE9filter_roEPKNS0_8GeometryE@Base 3.4.2
 _ZN4geos4geom4util17GeometryExtracter9ExtracterINS0_7PolygonESt6vectorIPKS4_SaIS7_EEED0Ev@Base 3.4.2
 _ZN4geos4geom4util17GeometryExtracter9ExtracterINS0_7PolygonESt6vectorIPKS4_SaIS7_EEED1Ev@Base 3.4.2
 _ZN4geos4geom4util17GeometryExtracter9ExtracterINS0_7PolygonESt6vectorIPKS4_SaIS7_EEED2Ev@Base 3.4.2
 _ZN4geos4geom4util19CoordinateOperation4editEPKNS0_8GeometryEPKNS0_15GeometryFactoryE@Base 3.4.2
 _ZN4geos4geom4util19GeometryTransformer14transformPointEPKNS0_5PointEPKNS0_8GeometryE@Base 3.4.2
 _ZN4geos4geom4util19GeometryTransformer16transformPolygonEPKNS0_7PolygonEPKNS0_8GeometryE@Base 3.4.2
 _ZN4geos4geom4util19GeometryTransformer19transformLineStringEPKNS0_10LineStringEPKNS0_8GeometryE@Base 3.4.2
 _ZN4geos4geom4util19GeometryTransformer19transformLinearRingEPKNS0_10LinearRingEPKNS0_8GeometryE@Base 3.4.2
 _ZN4geos4geom4util19GeometryTransformer19transformMultiPointEPKNS0_10MultiPointEPKNS0_8GeometryE@Base 3.4.2
 _ZN4geos4geom4util19GeometryTransformer20transformCoordinatesEPKNS0_18CoordinateSequenceEPKNS0_8GeometryE@Base 3.4.2
 _ZN4geos4geom4util19GeometryTransformer21transformMultiPolygonEPKNS0_12MultiPolygonEPKNS0_8GeometryE@Base 3.4.2
 _ZN4geos4geom4util19GeometryTransformer24createCoordinateSequenceESt8auto_ptrISt6vectorINS0_10CoordinateESaIS5_EEE@Base 3.4.2
 _ZN4geos4geom4util19GeometryTransformer24transformMultiLineStringEPKNS0_15MultiLineStringEPKNS0_8GeometryE@Base 3.4.2
 _ZN4geos4geom4util19GeometryTransformer27transformGeometryCollectionEPKNS0_18GeometryCollectionEPKNS0_8GeometryE@Base 3.4.2
 _ZN4geos4geom4util19GeometryTransformer9transformEPKNS0_8GeometryE@Base 3.4.2
 _ZN4geos4geom4util19GeometryTransformerC1Ev@Base 3.4.2
 _ZN4geos4geom4util19GeometryTransformerC2Ev@Base 3.4.2
 _ZN4geos4geom4util19GeometryTransformerD0Ev@Base 3.4.2
 _ZN4geos4geom4util19GeometryTransformerD1Ev@Base 3.4.2
 _ZN4geos4geom4util19GeometryTransformerD2Ev@Base 3.4.2
 _ZN4geos4geom4util24LinearComponentExtracter8getLinesERKNS0_8GeometryERSt6vectorIPKNS0_10LineStringESaIS9_EE@Base 3.5.0
 _ZN4geos4geom4util24LinearComponentExtracter9filter_roEPKNS0_8GeometryE@Base 3.4.2
 _ZN4geos4geom4util24LinearComponentExtracter9filter_rwEPNS0_8GeometryE@Base 3.4.2
 _ZN4geos4geom4util24LinearComponentExtracterC1ERSt6vectorIPKNS0_10LineStringESaIS6_EE@Base 3.5.0
 _ZN4geos4geom4util24LinearComponentExtracterC2ERSt6vectorIPKNS0_10LineStringESaIS6_EE@Base 3.5.0
 _ZN4geos4geom4util24LinearComponentExtracterD0Ev@Base 3.4.2
 _ZN4geos4geom4util24LinearComponentExtracterD1Ev@Base 3.4.2
 _ZN4geos4geom4util24LinearComponentExtracterD2Ev@Base 3.4.2
 _ZN4geos4geom4util28ComponentCoordinateExtracter14getCoordinatesERKNS0_8GeometryERSt6vectorIPKNS0_10CoordinateESaIS9_EE@Base 3.5.0
 _ZN4geos4geom4util28ComponentCoordinateExtracter9filter_roEPKNS0_8GeometryE@Base 3.4.2
 _ZN4geos4geom4util28ComponentCoordinateExtracter9filter_rwEPNS0_8GeometryE@Base 3.4.2
 _ZN4geos4geom4util28ComponentCoordinateExtracterC1ERSt6vectorIPKNS0_10CoordinateESaIS6_EE@Base 3.5.0
 _ZN4geos4geom4util28ComponentCoordinateExtracterC2ERSt6vectorIPKNS0_10CoordinateESaIS6_EE@Base 3.5.0
 _ZN4geos4geom4util28ComponentCoordinateExtracterD0Ev@Base 3.4.2
 _ZN4geos4geom4util28ComponentCoordinateExtracterD1Ev@Base 3.4.2
 _ZN4geos4geom4util28ComponentCoordinateExtracterD2Ev@Base 3.4.2
 _ZN4geos4geom4util29ShortCircuitedGeometryVisitor7applyToERKNS0_8GeometryE@Base 3.4.2
 _ZN4geos4geom5Point8apply_rwEPKNS0_16CoordinateFilterE@Base 3.4.2
 _ZN4geos4geom5Point8apply_rwEPNS0_14GeometryFilterE@Base 3.4.2
 _ZN4geos4geom5Point8apply_rwEPNS0_23GeometryComponentFilterE@Base 3.4.2
 _ZN4geos4geom5Point8apply_rwERNS0_24CoordinateSequenceFilterE@Base 3.4.2
 _ZN4geos4geom5Point9normalizeEv@Base 3.4.2
 _ZN4geos4geom5PointC1EPNS0_18CoordinateSequenceEPKNS0_15GeometryFactoryE@Base 3.4.2
 _ZN4geos4geom5PointC1ERKS1_@Base 3.4.2
 _ZN4geos4geom5PointC2EPNS0_18CoordinateSequenceEPKNS0_15GeometryFactoryE@Base 3.4.2
 _ZN4geos4geom5PointC2ERKS1_@Base 3.4.2
 _ZN4geos4geom5PointD0Ev@Base 3.4.2
 _ZN4geos4geom5PointD1Ev@Base 3.4.2
 _ZN4geos4geom5PointD2Ev@Base 3.4.2
 _ZN4geos4geom6SnapOpINS_9operation7overlay9overlayOpEEESt8auto_ptrINS0_8GeometryEEPKS6_S9_T_@Base 3.4.2
 _ZN4geos4geom7Polygon8apply_rwEPKNS0_16CoordinateFilterE@Base 3.4.2
 _ZN4geos4geom7Polygon8apply_rwEPNS0_14GeometryFilterE@Base 3.4.2
 _ZN4geos4geom7Polygon8apply_rwEPNS0_23GeometryComponentFilterE@Base 3.4.2
 _ZN4geos4geom7Polygon8apply_rwERNS0_24CoordinateSequenceFilterE@Base 3.4.2
 _ZN4geos4geom7Polygon9normalizeEPNS0_10LinearRingEb@Base 3.4.2
 _ZN4geos4geom7Polygon9normalizeEv@Base 3.4.2
 _ZN4geos4geom7PolygonC1EPNS0_10LinearRingEPSt6vectorIPNS0_8GeometryESaIS6_EEPKNS0_15GeometryFactoryE@Base 3.4.2
 _ZN4geos4geom7PolygonC1ERKS1_@Base 3.4.2
 _ZN4geos4geom7PolygonC2EPNS0_10LinearRingEPSt6vectorIPNS0_8GeometryESaIS6_EEPKNS0_15GeometryFactoryE@Base 3.4.2
 _ZN4geos4geom7PolygonC2ERKS1_@Base 3.4.2
 _ZN4geos4geom7PolygonD0Ev@Base 3.4.2
 _ZN4geos4geom7PolygonD1Ev@Base 3.4.2
 _ZN4geos4geom7PolygonD2Ev@Base 3.4.2
 _ZN4geos4geom7jtsportB5cxx11Ev@Base 3.4.2
 _ZN4geos4geom8BinaryOpINS_9operation7overlay9overlayOpEEESt8auto_ptrINS0_8GeometryEEPKS6_S9_T_@Base 3.4.2
 _ZN4geos4geom8Envelope10intersectsERKNS0_10CoordinateES4_S4_@Base 3.4.2
 _ZN4geos4geom8Envelope10intersectsERKNS0_10CoordinateES4_S4_S4_@Base 3.4.2
 _ZN4geos4geom8Envelope15expandToIncludeEPKS1_@Base 3.4.2
 _ZN4geos4geom8Envelope15expandToIncludeERKNS0_10CoordinateE@Base 3.4.2
 _ZN4geos4geom8Envelope15expandToIncludeEdd@Base 3.4.2
 _ZN4geos4geom8Envelope4initERKNS0_10CoordinateE@Base 3.4.2
 _ZN4geos4geom8Envelope4initERKNS0_10CoordinateES4_@Base 3.4.2
 _ZN4geos4geom8Envelope4initEdddd@Base 3.4.2
 _ZN4geos4geom8Envelope4initEv@Base 3.4.2
 _ZN4geos4geom8Envelope5splitERKNSt7__cxx1112basic_stringIcSt11char_traitsIcESaIcEEES9_@Base 3.4.2
 _ZN4geos4geom8Envelope8distanceEdddd@Base 3.4.2
 _ZN4geos4geom8Envelope8expandByEdd@Base 3.4.2
 _ZN4geos4geom8Envelope9setToNullEv@Base 3.4.2
 _ZN4geos4geom8Envelope9translateEdd@Base 3.4.2
 _ZN4geos4geom8EnvelopeC1ERKNS0_10CoordinateE@Base 3.4.2
 _ZN4geos4geom8EnvelopeC1ERKNS0_10CoordinateES4_@Base 3.4.2
 _ZN4geos4geom8EnvelopeC1ERKNSt7__cxx1112basic_stringIcSt11char_traitsIcESaIcEEE@Base 3.4.2
 _ZN4geos4geom8EnvelopeC1ERKS1_@Base 3.4.2
 _ZN4geos4geom8EnvelopeC1Edddd@Base 3.4.2
 _ZN4geos4geom8EnvelopeC1Ev@Base 3.4.2
 _ZN4geos4geom8EnvelopeC2ERKNS0_10CoordinateE@Base 3.4.2
 _ZN4geos4geom8EnvelopeC2ERKNS0_10CoordinateES4_@Base 3.4.2
 _ZN4geos4geom8EnvelopeC2ERKNSt7__cxx1112basic_stringIcSt11char_traitsIcESaIcEEE@Base 3.4.2
 _ZN4geos4geom8EnvelopeC2ERKS1_@Base 3.4.2
 _ZN4geos4geom8EnvelopeC2Edddd@Base 3.4.2
 _ZN4geos4geom8EnvelopeC2Ev@Base 3.4.2
 _ZN4geos4geom8EnvelopeD1Ev@Base 3.4.2
 _ZN4geos4geom8EnvelopeD2Ev@Base 3.4.2
 _ZN4geos4geom8EnvelopeaSERKS1_@Base 3.4.2
 _ZN4geos4geom8Geometry15geometryChangedEv@Base 3.4.2
 _ZN4geos4geom8Geometry15hasNullElementsEPKNS0_18CoordinateSequenceE@Base 3.4.2
 _ZN4geos4geom8Geometry15hasNullElementsEPKSt6vectorIPS1_SaIS3_EE@Base 3.4.2
 _ZN4geos4geom8Geometry19hasNonEmptyElementsEPKSt6vectorIPS1_SaIS3_EE@Base 3.4.2
 _ZN4geos4geom8Geometry21GeometryChangedFilter9filter_rwEPS1_@Base 3.4.2
 _ZN4geos4geom8Geometry21GeometryChangedFilterD0Ev@Base 3.4.2
 _ZN4geos4geom8Geometry21GeometryChangedFilterD1Ev@Base 3.4.2
 _ZN4geos4geom8Geometry21GeometryChangedFilterD2Ev@Base 3.4.2
 _ZN4geos4geom8Geometry21geometryChangedActionEv@Base 3.4.2
 _ZN4geos4geom8Geometry21geometryChangedFilterE@Base 3.4.2
 _ZN4geos4geom8Geometry26checkNotGeometryCollectionEPKS1_@Base 3.4.2
 _ZN4geos4geom8Geometry7setSRIDEi@Base 3.4.2
 _ZN4geos4geom8Geometry8apply_rwEPNS0_14GeometryFilterE@Base 3.4.2
 _ZN4geos4geom8Geometry8apply_rwEPNS0_23GeometryComponentFilterE@Base 3.4.2
 _ZN4geos4geom8GeometryC1EPKNS0_15GeometryFactoryE@Base 3.4.2
 _ZN4geos4geom8GeometryC1ERKS1_@Base 3.4.2
 _ZN4geos4geom8GeometryC2EPKNS0_15GeometryFactoryE@Base 3.4.2
 _ZN4geos4geom8GeometryC2ERKS1_@Base 3.4.2
 _ZN4geos4geom8GeometryD0Ev@Base 3.4.2
 _ZN4geos4geom8GeometryD1Ev@Base 3.4.2
 _ZN4geos4geom8GeometryD2Ev@Base 3.4.2
 _ZN4geos4geom8Location16toLocationSymbolEi@Base 3.4.2
 _ZN4geos4geom8Triangle12circumcentreERNS0_10CoordinateE@Base 3.5.0
 _ZN4geos4geom8Triangle8inCentreERNS0_10CoordinateE@Base 3.4.2
 _ZN4geos4geom9Dimension16toDimensionValueEc@Base 3.4.2
 _ZN4geos4geom9Dimension17toDimensionSymbolEi@Base 3.4.2
 _ZN4geos4geomeqERKNS0_10CoordinateES3_@Base 3.4.2
 _ZN4geos4geomeqERKNS0_11LineSegmentES3_@Base 3.4.2
 _ZN4geos4geomeqERKNS0_14PrecisionModelES3_@Base 3.4.2
 _ZN4geos4geomeqERKNS0_18CoordinateSequenceES3_@Base 3.4.2
 _ZN4geos4geomeqERKNS0_8EnvelopeES3_@Base 3.4.2
 _ZN4geos4geomlsERSoRKNS0_10CoordinateE@Base 3.4.2
 _ZN4geos4geomlsERSoRKNS0_11LineSegmentE@Base 3.4.2
 _ZN4geos4geomlsERSoRKNS0_18CoordinateSequenceE@Base 3.4.2
 _ZN4geos4geomlsERSoRKNS0_18IntersectionMatrixE@Base 3.4.2
 _ZN4geos4geomlsERSoRKNS0_8GeometryE@Base 3.4.2
 _ZN4geos4geomneERKNS0_10CoordinateES3_@Base 3.4.2
 _ZN4geos4geomneERKNS0_18CoordinateSequenceES3_@Base 3.4.2
 _ZN4geos4util13GEOSExceptionC1ERKNSt7__cxx1112basic_stringIcSt11char_traitsIcESaIcEEE@Base 3.4.2
 _ZN4geos4util13GEOSExceptionC1ERKNSt7__cxx1112basic_stringIcSt11char_traitsIcESaIcEEES9_@Base 3.4.2
 _ZN4geos4util13GEOSExceptionC1ERKS1_@Base 3.4.2
 _ZN4geos4util13GEOSExceptionC2ERKNSt7__cxx1112basic_stringIcSt11char_traitsIcESaIcEEE@Base 3.4.2
 _ZN4geos4util13GEOSExceptionC2ERKNSt7__cxx1112basic_stringIcSt11char_traitsIcESaIcEEES9_@Base 3.4.2
 _ZN4geos4util13GEOSExceptionC2ERKS1_@Base 3.4.2
 _ZN4geos4util13GEOSExceptionD0Ev@Base 3.4.2
 _ZN4geos4util13GEOSExceptionD1Ev@Base 3.4.2
 _ZN4geos4util13GEOSExceptionD2Ev@Base 3.4.2
 _ZN4geos4util15java_math_roundEd@Base 3.4.2
 _ZN4geos4util17TopologyExceptionC1ERKNSt7__cxx1112basic_stringIcSt11char_traitsIcESaIcEEE@Base 3.4.2
 _ZN4geos4util17TopologyExceptionC1ERKNSt7__cxx1112basic_stringIcSt11char_traitsIcESaIcEEERKNS_4geom10CoordinateE@Base 3.4.2
 _ZN4geos4util17TopologyExceptionC2ERKNSt7__cxx1112basic_stringIcSt11char_traitsIcESaIcEEE@Base 3.4.2
 _ZN4geos4util17TopologyExceptionC2ERKNSt7__cxx1112basic_stringIcSt11char_traitsIcESaIcEEERKNS_4geom10CoordinateE@Base 3.4.2
 _ZN4geos4util17TopologyExceptionD0Ev@Base 3.4.2
 _ZN4geos4util17TopologyExceptionD1Ev@Base 3.4.2
 _ZN4geos4util17TopologyExceptionD2Ev@Base 3.4.2
 _ZN4geos4util20InterruptedExceptionD0Ev@Base 3.4.2
 _ZN4geos4util20InterruptedExceptionD1Ev@Base 3.4.2
 _ZN4geos4util20InterruptedExceptionD2Ev@Base 3.4.2
 _ZN4geos4util21GeometricShapeFactory10Dimensions7setBaseERKNS_4geom10CoordinateE@Base 3.4.2
 _ZN4geos4util21GeometricShapeFactory10Dimensions7setSizeEd@Base 3.4.2
 _ZN4geos4util21GeometricShapeFactory10Dimensions8setWidthEd@Base 3.4.2
 _ZN4geos4util21GeometricShapeFactory10Dimensions9setCentreERKNS_4geom10CoordinateE@Base 3.4.2
 _ZN4geos4util21GeometricShapeFactory10Dimensions9setHeightEd@Base 3.4.2
 _ZN4geos4util21GeometricShapeFactory10DimensionsC1Ev@Base 3.4.2
 _ZN4geos4util21GeometricShapeFactory10DimensionsC2Ev@Base 3.4.2
 _ZN4geos4util21GeometricShapeFactory12createCircleEv@Base 3.4.2
 _ZN4geos4util21GeometricShapeFactory12setNumPointsEi@Base 3.4.2
 _ZN4geos4util21GeometricShapeFactory15createRectangleEv@Base 3.4.2
 _ZN4geos4util21GeometricShapeFactory16createArcPolygonEdd@Base 3.4.2
 _ZN4geos4util21GeometricShapeFactory7setBaseERKNS_4geom10CoordinateE@Base 3.4.2
 _ZN4geos4util21GeometricShapeFactory7setSizeEd@Base 3.4.2
 _ZN4geos4util21GeometricShapeFactory8setWidthEd@Base 3.4.2
 _ZN4geos4util21GeometricShapeFactory9createArcEdd@Base 3.4.2
 _ZN4geos4util21GeometricShapeFactory9setCentreERKNS_4geom10CoordinateE@Base 3.4.2
 _ZN4geos4util21GeometricShapeFactory9setHeightEd@Base 3.4.2
 _ZN4geos4util21GeometricShapeFactoryC1EPKNS_4geom15GeometryFactoryE@Base 3.4.2
 _ZN4geos4util21GeometricShapeFactoryC2EPKNS_4geom15GeometryFactoryE@Base 3.4.2
 _ZN4geos4util21GeometricShapeFactoryD0Ev@Base 3.4.2
 _ZN4geos4util21GeometricShapeFactoryD1Ev@Base 3.4.2
 _ZN4geos4util21GeometricShapeFactoryD2Ev@Base 3.4.2
 _ZN4geos4util21IllegalStateExceptionC1ERKNSt7__cxx1112basic_stringIcSt11char_traitsIcESaIcEEE@Base 3.4.2
 _ZN4geos4util21IllegalStateExceptionC2ERKNSt7__cxx1112basic_stringIcSt11char_traitsIcESaIcEEE@Base 3.4.2
 _ZN4geos4util21IllegalStateExceptionD0Ev@Base 3.4.2
 _ZN4geos4util21IllegalStateExceptionD1Ev@Base 3.4.2
 _ZN4geos4util21IllegalStateExceptionD2Ev@Base 3.4.2
 _ZN4geos4util24AssertionFailedExceptionD0Ev@Base 3.4.2
 _ZN4geos4util24AssertionFailedExceptionD1Ev@Base 3.4.2
 _ZN4geos4util24AssertionFailedExceptionD2Ev@Base 3.4.2
 _ZN4geos4util24IllegalArgumentExceptionC1ERKNSt7__cxx1112basic_stringIcSt11char_traitsIcESaIcEEE@Base 3.4.2
 _ZN4geos4util24IllegalArgumentExceptionC2ERKNSt7__cxx1112basic_stringIcSt11char_traitsIcESaIcEEE@Base 3.4.2
 _ZN4geos4util24IllegalArgumentExceptionD0Ev@Base 3.4.2
 _ZN4geos4util24IllegalArgumentExceptionD1Ev@Base 3.4.2
 _ZN4geos4util24IllegalArgumentExceptionD2Ev@Base 3.4.2
 _ZN4geos4util27UniqueCoordinateArrayFilter9filter_roEPKNS_4geom10CoordinateE@Base 3.4.2
 _ZN4geos4util27UniqueCoordinateArrayFilterD0Ev@Base 3.4.2
 _ZN4geos4util27UniqueCoordinateArrayFilterD1Ev@Base 3.4.2
 _ZN4geos4util27UniqueCoordinateArrayFilterD2Ev@Base 3.4.2
 _ZN4geos4util29UnsupportedOperationExceptionC1ERKNSt7__cxx1112basic_stringIcSt11char_traitsIcESaIcEEE@Base 3.4.2
 _ZN4geos4util29UnsupportedOperationExceptionC1Ev@Base 3.4.2
 _ZN4geos4util29UnsupportedOperationExceptionC2ERKNSt7__cxx1112basic_stringIcSt11char_traitsIcESaIcEEE@Base 3.4.2
 _ZN4geos4util29UnsupportedOperationExceptionC2Ev@Base 3.4.2
 _ZN4geos4util29UnsupportedOperationExceptionD0Ev@Base 3.4.2
 _ZN4geos4util29UnsupportedOperationExceptionD1Ev@Base 3.4.2
 _ZN4geos4util29UnsupportedOperationExceptionD2Ev@Base 3.4.2
 _ZN4geos4util6Assert20shouldNeverReachHereERKNSt7__cxx1112basic_stringIcSt11char_traitsIcESaIcEEE@Base 3.4.2
 _ZN4geos4util6Assert6equalsERKNS_4geom10CoordinateES5_RKNSt7__cxx1112basic_stringIcSt11char_traitsIcESaIcEEE@Base 3.4.2
 _ZN4geos4util6Assert6isTrueEbRKNSt7__cxx1112basic_stringIcSt11char_traitsIcESaIcEEE@Base 3.4.2
 _ZN4geos4util7ProfileC1ENSt7__cxx1112basic_stringIcSt11char_traitsIcESaIcEEE@Base 3.4.2
 _ZN4geos4util7ProfileC2ENSt7__cxx1112basic_stringIcSt11char_traitsIcESaIcEEE@Base 3.4.2
 _ZN4geos4util7ProfileD1Ev@Base 3.4.2
 _ZN4geos4util7ProfileD2Ev@Base 3.4.2
 _ZN4geos4util7rint_vcEd@Base 3.4.2
 _ZN4geos4util8Profiler3getENSt7__cxx1112basic_stringIcSt11char_traitsIcESaIcEEE@Base 3.4.2
 _ZN4geos4util8Profiler4stopENSt7__cxx1112basic_stringIcSt11char_traitsIcESaIcEEE@Base 3.4.2
 _ZN4geos4util8Profiler5startENSt7__cxx1112basic_stringIcSt11char_traitsIcESaIcEEE@Base 3.4.2
 _ZN4geos4util8Profiler8instanceEv@Base 3.4.2
 _ZN4geos4util8ProfilerC1Ev@Base 3.4.2
 _ZN4geos4util8ProfilerC2Ev@Base 3.4.2
 _ZN4geos4util8ProfilerD1Ev@Base 3.4.2
 _ZN4geos4util8ProfilerD2Ev@Base 3.4.2
 _ZN4geos4util9Interrupt16registerCallbackEPFvvE@Base 3.4.2
 _ZN4geos4util9Interrupt5checkEv@Base 3.4.2
 _ZN4geos4util9Interrupt6cancelEv@Base 3.4.2
 _ZN4geos4util9Interrupt7processEv@Base 3.4.2
 _ZN4geos4util9Interrupt7requestEv@Base 3.4.2
 _ZN4geos4util9Interrupt9interruptEv@Base 3.4.2
 _ZN4geos4util9sym_roundEd@Base 3.4.2
 _ZN4geos4utillsERSoRKNS0_7ProfileE@Base 3.4.2
 _ZN4geos4utillsERSoRKNS0_8ProfilerE@Base 3.4.2
 _ZN4geos5index13intervalrtree17IntervalRTreeNode7compareEPKS2_S4_@Base 3.4.2
 _ZN4geos5index13intervalrtree21IntervalRTreeLeafNodeD0Ev@Base 3.4.2
 _ZN4geos5index13intervalrtree21IntervalRTreeLeafNodeD1Ev@Base 3.4.2
 _ZN4geos5index13intervalrtree21IntervalRTreeLeafNodeD2Ev@Base 3.4.2
 _ZN4geos5index13intervalrtree23IntervalRTreeBranchNodeD0Ev@Base 3.4.2
 _ZN4geos5index13intervalrtree23IntervalRTreeBranchNodeD1Ev@Base 3.4.2
 _ZN4geos5index13intervalrtree23IntervalRTreeBranchNodeD2Ev@Base 3.4.2
 _ZN4geos5index13intervalrtree25SortedPackedIntervalRTree10buildLevelEPSt6vectorIPKNS1_17IntervalRTreeNodeESaIS6_EES9_@Base 3.4.2
 _ZN4geos5index13intervalrtree25SortedPackedIntervalRTree4initEv@Base 3.4.2
 _ZN4geos5index13intervalrtree25SortedPackedIntervalRTree5queryEddPNS0_11ItemVisitorE@Base 3.4.2
 _ZN4geos5index13intervalrtree25SortedPackedIntervalRTree6insertEddPv@Base 3.4.2
 _ZN4geos5index13intervalrtree25SortedPackedIntervalRTree9buildTreeEv@Base 3.4.2
 _ZN4geos5index13intervalrtree25SortedPackedIntervalRTreeC1Ev@Base 3.4.2
 _ZN4geos5index13intervalrtree25SortedPackedIntervalRTreeC2Ev@Base 3.4.2
 _ZN4geos5index13intervalrtree25SortedPackedIntervalRTreeD1Ev@Base 3.4.2
 _ZN4geos5index13intervalrtree25SortedPackedIntervalRTreeD2Ev@Base 3.4.2
 _ZN4geos5index5chain13MonotoneChain13computeSelectERKNS_4geom8EnvelopeEmmRNS1_25MonotoneChainSelectActionE@Base 3.5.0
 _ZN4geos5index5chain13MonotoneChain15computeOverlapsEPS2_PNS1_26MonotoneChainOverlapActionE@Base 3.4.2
 _ZN4geos5index5chain13MonotoneChain15computeOverlapsEmmRS2_mmRNS1_26MonotoneChainOverlapActionE@Base 3.5.0
 _ZN4geos5index5chain13MonotoneChain6selectERKNS_4geom8EnvelopeERNS1_25MonotoneChainSelectActionE@Base 3.4.2
 _ZN4geos5index5chain13MonotoneChainC1ERKNS_4geom18CoordinateSequenceEmmPv@Base 3.5.0
 _ZN4geos5index5chain13MonotoneChainC2ERKNS_4geom18CoordinateSequenceEmmPv@Base 3.5.0
 _ZN4geos5index5chain13MonotoneChainD1Ev@Base 3.4.2
 _ZN4geos5index5chain13MonotoneChainD2Ev@Base 3.4.2
 _ZN4geos5index5chain20MonotoneChainBuilder12findChainEndERKNS_4geom18CoordinateSequenceEm@Base 3.5.0
 _ZN4geos5index5chain20MonotoneChainBuilder20getChainStartIndicesERKNS_4geom18CoordinateSequenceERSt6vectorImSaImEE@Base 3.5.0
 _ZN4geos5index5chain20MonotoneChainBuilder9getChainsEPKNS_4geom18CoordinateSequenceEPv@Base 3.4.2
 _ZN4geos5index5chain20MonotoneChainBuilder9getChainsEPKNS_4geom18CoordinateSequenceEPvRSt6vectorIPNS1_13MonotoneChainESaISA_EE@Base 3.4.2
 _ZN4geos5index5chain25MonotoneChainSelectAction6selectERNS1_13MonotoneChainEj@Base 3.4.2
 _ZN4geos5index5chain26MonotoneChainOverlapAction7overlapERKNS_4geom11LineSegmentES6_@Base 3.4.2
 _ZN4geos5index5chain26MonotoneChainOverlapAction7overlapERNS1_13MonotoneChainEmS4_m@Base 3.5.0
 _ZN4geos5index5chain26MonotoneChainOverlapActionD0Ev@Base 3.4.2
 _ZN4geos5index5chain26MonotoneChainOverlapActionD1Ev@Base 3.4.2
 _ZN4geos5index5chain26MonotoneChainOverlapActionD2Ev@Base 3.4.2
 _ZN4geos5index7bintree3Key10computeKeyEPNS1_8IntervalE@Base 3.4.2
 _ZN4geos5index7bintree3Key11getIntervalEv@Base 3.4.2
 _ZN4geos5index7bintree3Key12computeLevelEPNS1_8IntervalE@Base 3.4.2
 _ZN4geos5index7bintree3Key15computeIntervalEiPNS1_8IntervalE@Base 3.4.2
 _ZN4geos5index7bintree3Key8getLevelEv@Base 3.4.2
 _ZN4geos5index7bintree3Key8getPointEv@Base 3.4.2
 _ZN4geos5index7bintree3KeyC1EPNS1_8IntervalE@Base 3.4.2
 _ZN4geos5index7bintree3KeyC2EPNS1_8IntervalE@Base 3.4.2
 _ZN4geos5index7bintree3KeyD1Ev@Base 3.4.2
 _ZN4geos5index7bintree3KeyD2Ev@Base 3.4.2
 _ZN4geos5index7bintree4Node10createNodeEPNS1_8IntervalE@Base 3.4.2
 _ZN4geos5index7bintree4Node10getSubnodeEi@Base 3.4.2
 _ZN4geos5index7bintree4Node11getIntervalEv@Base 3.4.2
 _ZN4geos5index7bintree4Node13createSubnodeEi@Base 3.4.2
 _ZN4geos5index7bintree4Node13isSearchMatchEPNS1_8IntervalE@Base 3.4.2
 _ZN4geos5index7bintree4Node14createExpandedEPS2_PNS1_8IntervalE@Base 3.4.2
 _ZN4geos5index7bintree4Node4findEPNS1_8IntervalE@Base 3.4.2
 _ZN4geos5index7bintree4Node6insertEPS2_@Base 3.4.2
 _ZN4geos5index7bintree4Node7getNodeEPNS1_8IntervalE@Base 3.4.2
 _ZN4geos5index7bintree4NodeC1EPNS1_8IntervalEi@Base 3.4.2
 _ZN4geos5index7bintree4NodeC2EPNS1_8IntervalEi@Base 3.4.2
 _ZN4geos5index7bintree4NodeD0Ev@Base 3.4.2
 _ZN4geos5index7bintree4NodeD1Ev@Base 3.4.2
 _ZN4geos5index7bintree4NodeD2Ev@Base 3.4.2
 _ZN4geos5index7bintree4Root13isSearchMatchEPNS1_8IntervalE@Base 3.4.2
 _ZN4geos5index7bintree4Root15insertContainedEPNS1_4NodeEPNS1_8IntervalEPv@Base 3.4.2
 _ZN4geos5index7bintree4Root6insertEPNS1_8IntervalEPv@Base 3.4.2
 _ZN4geos5index7bintree4Root6originE@Base 3.4.2
 _ZN4geos5index7bintree4RootD0Ev@Base 3.4.2
 _ZN4geos5index7bintree4RootD1Ev@Base 3.4.2
 _ZN4geos5index7bintree4RootD2Ev@Base 3.4.2
 _ZN4geos5index7bintree7Bintree12collectStatsEPNS1_8IntervalE@Base 3.4.2
 _ZN4geos5index7bintree7Bintree12ensureExtentEPKNS1_8IntervalEd@Base 3.4.2
 _ZN4geos5index7bintree7Bintree4sizeEv@Base 3.4.2
 _ZN4geos5index7bintree7Bintree5depthEv@Base 3.4.2
 _ZN4geos5index7bintree7Bintree5queryEPNS1_8IntervalE@Base 3.4.2
 _ZN4geos5index7bintree7Bintree5queryEPNS1_8IntervalEPSt6vectorIPvSaIS6_EE@Base 3.4.2
 _ZN4geos5index7bintree7Bintree5queryEd@Base 3.4.2
 _ZN4geos5index7bintree7Bintree6insertEPNS1_8IntervalEPv@Base 3.4.2
 _ZN4geos5index7bintree7Bintree8iteratorEv@Base 3.4.2
 _ZN4geos5index7bintree7Bintree8nodeSizeEv@Base 3.4.2
 _ZN4geos5index7bintree7BintreeC1Ev@Base 3.4.2
 _ZN4geos5index7bintree7BintreeC2Ev@Base 3.4.2
 _ZN4geos5index7bintree7BintreeD1Ev@Base 3.4.2
 _ZN4geos5index7bintree7BintreeD2Ev@Base 3.4.2
 _ZN4geos5index7bintree8Interval15expandToIncludeEPS2_@Base 3.4.2
 _ZN4geos5index7bintree8Interval4initEdd@Base 3.4.2
 _ZN4geos5index7bintree8IntervalC1EPKS2_@Base 3.4.2
 _ZN4geos5index7bintree8IntervalC1Edd@Base 3.4.2
 _ZN4geos5index7bintree8IntervalC1Ev@Base 3.4.2
 _ZN4geos5index7bintree8IntervalC2EPKS2_@Base 3.4.2
 _ZN4geos5index7bintree8IntervalC2Edd@Base 3.4.2
 _ZN4geos5index7bintree8IntervalC2Ev@Base 3.4.2
 _ZN4geos5index7bintree8IntervalD1Ev@Base 3.4.2
 _ZN4geos5index7bintree8IntervalD2Ev@Base 3.4.2
 _ZN4geos5index7bintree8NodeBase11addAllItemsEPSt6vectorIPvSaIS4_EE@Base 3.4.2
 _ZN4geos5index7bintree8NodeBase15getSubnodeIndexEPNS1_8IntervalEd@Base 3.4.2
 _ZN4geos5index7bintree8NodeBase26addAllItemsFromOverlappingEPNS1_8IntervalEPSt6vectorIPvSaIS6_EE@Base 3.4.2
 _ZN4geos5index7bintree8NodeBase3addEPv@Base 3.4.2
 _ZN4geos5index7bintree8NodeBase4sizeEv@Base 3.4.2
 _ZN4geos5index7bintree8NodeBase5depthEv@Base 3.4.2
 _ZN4geos5index7bintree8NodeBase8getItemsEv@Base 3.4.2
 _ZN4geos5index7bintree8NodeBase8nodeSizeEv@Base 3.4.2
 _ZN4geos5index7bintree8NodeBaseC1Ev@Base 3.4.2
 _ZN4geos5index7bintree8NodeBaseC2Ev@Base 3.4.2
 _ZN4geos5index7bintree8NodeBaseD0Ev@Base 3.4.2
 _ZN4geos5index7bintree8NodeBaseD1Ev@Base 3.4.2
 _ZN4geos5index7bintree8NodeBaseD2Ev@Base 3.4.2
 _ZN4geos5index7strtree12AbstractNode17addChildBoundableEPNS1_9BoundableE@Base 3.4.2
 _ZN4geos5index7strtree12AbstractNode8getLevelEv@Base 3.4.2
 _ZN4geos5index7strtree12AbstractNodeC1Eii@Base 3.4.2
 _ZN4geos5index7strtree12AbstractNodeC2Eii@Base 3.4.2
 _ZN4geos5index7strtree12AbstractNodeD0Ev@Base 3.4.2
 _ZN4geos5index7strtree12AbstractNodeD1Ev@Base 3.4.2
 _ZN4geos5index7strtree12AbstractNodeD2Ev@Base 3.4.2
 _ZN4geos5index7strtree13ItemBoundableC1EPKvPv@Base 3.4.2
 _ZN4geos5index7strtree13ItemBoundableC2EPKvPv@Base 3.4.2
 _ZN4geos5index7strtree13ItemBoundableD0Ev@Base 3.4.2
 _ZN4geos5index7strtree13ItemBoundableD1Ev@Base 3.4.2
 _ZN4geos5index7strtree13ItemBoundableD2Ev@Base 3.4.2
 _ZN4geos5index7strtree15AbstractSTRtree10removeItemERNS1_12AbstractNodeEPv@Base 3.4.2
 _ZN4geos5index7strtree15AbstractSTRtree15getNodeCapacityEv@Base 3.4.2
 _ZN4geos5index7strtree15AbstractSTRtree17boundablesAtLevelEi@Base 3.4.2
 _ZN4geos5index7strtree15AbstractSTRtree17boundablesAtLevelEiPNS1_12AbstractNodeEPSt6vectorIPNS1_9BoundableESaIS7_EE@Base 3.4.2
 _ZN4geos5index7strtree15AbstractSTRtree18createHigherLevelsEPSt6vectorIPNS1_9BoundableESaIS5_EEi@Base 3.4.2
 _ZN4geos5index7strtree15AbstractSTRtree22createParentBoundablesEPSt6vectorIPNS1_9BoundableESaIS5_EEi@Base 3.4.2
 _ZN4geos5index7strtree15AbstractSTRtree5buildEv@Base 3.4.2
 _ZN4geos5index7strtree15AbstractSTRtree5queryEPKvPKNS1_12AbstractNodeEPSt6vectorIPvSaIS9_EE@Base 3.4.2
 _ZN4geos5index7strtree15AbstractSTRtree5queryEPKvRKNS1_12AbstractNodeERNS0_11ItemVisitorE@Base 3.4.2
 _ZN4geos5index7strtree15AbstractSTRtree5queryEPKvRNS0_11ItemVisitorE@Base 3.4.2
 _ZN4geos5index7strtree15AbstractSTRtree5queryEPKvRSt6vectorIPvSaIS6_EE@Base 3.4.2
 _ZN4geos5index7strtree15AbstractSTRtree6insertEPKvPv@Base 3.4.2
 _ZN4geos5index7strtree15AbstractSTRtree6removeEPKvPv@Base 3.4.2
 _ZN4geos5index7strtree15AbstractSTRtree6removeEPKvRNS1_12AbstractNodeEPv@Base 3.4.2
 _ZN4geos5index7strtree15AbstractSTRtree7getRootEv@Base 3.4.2
 _ZN4geos5index7strtree15AbstractSTRtree7iterateERNS0_11ItemVisitorE@Base 3.4.2
 _ZN4geos5index7strtree15AbstractSTRtree8lastNodeEPSt6vectorIPNS1_9BoundableESaIS5_EE@Base 3.4.2
 _ZN4geos5index7strtree15AbstractSTRtree9itemsTreeEPNS1_12AbstractNodeE@Base 3.4.2
 _ZN4geos5index7strtree15AbstractSTRtree9itemsTreeEv@Base 3.4.2
 _ZN4geos5index7strtree15AbstractSTRtreeD0Ev@Base 3.4.2
 _ZN4geos5index7strtree15AbstractSTRtreeD1Ev@Base 3.4.2
 _ZN4geos5index7strtree15AbstractSTRtreeD2Ev@Base 3.4.2
 _ZN4geos5index7strtree15SIRAbstractNodeD0Ev@Base 3.4.2
 _ZN4geos5index7strtree15SIRAbstractNodeD1Ev@Base 3.4.2
 _ZN4geos5index7strtree15SIRAbstractNodeD2Ev@Base 3.4.2
 _ZN4geos5index7strtree15STRAbstractNodeD0Ev@Base 3.4.2
 _ZN4geos5index7strtree15STRAbstractNodeD1Ev@Base 3.4.2
 _ZN4geos5index7strtree15STRAbstractNodeD2Ev@Base 3.4.2
 _ZN4geos5index7strtree7SIRtree10createNodeEi@Base 3.4.2
 _ZN4geos5index7strtree7SIRtree14sortBoundablesEPKSt6vectorIPNS1_9BoundableESaIS5_EE@Base 3.4.2
 _ZN4geos5index7strtree7SIRtree15SIRIntersectsOp10intersectsEPKvS5_@Base 3.4.2
 _ZN4geos5index7strtree7SIRtree15SIRIntersectsOpD0Ev@Base 3.4.2
 _ZN4geos5index7strtree7SIRtree15SIRIntersectsOpD1Ev@Base 3.4.2
 _ZN4geos5index7strtree7SIRtree15SIRIntersectsOpD2Ev@Base 3.4.2
 _ZN4geos5index7strtree7SIRtree15getIntersectsOpEv@Base 3.4.2
 _ZN4geos5index7strtree7SIRtree22createParentBoundablesEPSt6vectorIPNS1_9BoundableESaIS5_EEi@Base 3.4.2
 _ZN4geos5index7strtree7SIRtree6insertEddPv@Base 3.4.2
 _ZN4geos5index7strtree7SIRtreeC1Em@Base 3.5.0
 _ZN4geos5index7strtree7SIRtreeC1Ev@Base 3.4.2
 _ZN4geos5index7strtree7SIRtreeC2Em@Base 3.5.0
 _ZN4geos5index7strtree7SIRtreeC2Ev@Base 3.4.2
 _ZN4geos5index7strtree7SIRtreeD0Ev@Base 3.4.2
 _ZN4geos5index7strtree7SIRtreeD1Ev@Base 3.4.2
 _ZN4geos5index7strtree7SIRtreeD2Ev@Base 3.4.2
 _ZN4geos5index7strtree7STRtree10createNodeEi@Base 3.4.2
 _ZN4geos5index7strtree7STRtree14sortBoundablesEPKSt6vectorIPNS1_9BoundableESaIS5_EE@Base 3.4.2
 _ZN4geos5index7strtree7STRtree14verticalSlicesEPSt6vectorIPNS1_9BoundableESaIS5_EEm@Base 3.5.0
 _ZN4geos5index7strtree7STRtree15STRIntersectsOp10intersectsEPKvS5_@Base 3.4.2
 _ZN4geos5index7strtree7STRtree15STRIntersectsOpD0Ev@Base 3.4.2
 _ZN4geos5index7strtree7STRtree15STRIntersectsOpD1Ev@Base 3.4.2
 _ZN4geos5index7strtree7STRtree15STRIntersectsOpD2Ev@Base 3.4.2
 _ZN4geos5index7strtree7STRtree15getIntersectsOpEv@Base 3.4.2
 _ZN4geos5index7strtree7STRtree22createParentBoundablesEPSt6vectorIPNS1_9BoundableESaIS5_EEi@Base 3.4.2
 _ZN4geos5index7strtree7STRtree39createParentBoundablesFromVerticalSliceEPSt6vectorIPNS1_9BoundableESaIS5_EEi@Base 3.4.2
 _ZN4geos5index7strtree7STRtree40createParentBoundablesFromVerticalSlicesEPSt6vectorIPS3_IPNS1_9BoundableESaIS5_EESaIS8_EEi@Base 3.4.2
 _ZN4geos5index7strtree7STRtree5queryEPKNS_4geom8EnvelopeERNS0_11ItemVisitorE@Base 3.4.2
 _ZN4geos5index7strtree7STRtree5queryEPKNS_4geom8EnvelopeERSt6vectorIPvSaIS8_EE@Base 3.4.2
 _ZN4geos5index7strtree7STRtree6insertEPKNS_4geom8EnvelopeEPv@Base 3.4.2
 _ZN4geos5index7strtree7STRtree6removeEPKNS_4geom8EnvelopeEPv@Base 3.4.2
 _ZN4geos5index7strtree7STRtreeC1Em@Base 3.5.0
 _ZN4geos5index7strtree7STRtreeC2Em@Base 3.5.0
 _ZN4geos5index7strtree7STRtreeD0Ev@Base 3.4.2
 _ZN4geos5index7strtree7STRtreeD1Ev@Base 3.4.2
 _ZN4geos5index7strtree7STRtreeD2Ev@Base 3.4.2
 _ZN4geos5index7strtree8Interval15expandToIncludeEPKS2_@Base 3.5.0
 _ZN4geos5index7strtree8Interval9getCentreEv@Base 3.4.2
 _ZN4geos5index7strtree8IntervalC1Edd@Base 3.4.2
 _ZN4geos5index7strtree8IntervalC2Edd@Base 3.4.2
 _ZN4geos5index7strtree9ItemsListD1Ev@Base 3.4.2
 _ZN4geos5index7strtree9ItemsListD2Ev@Base 3.4.2
 _ZN4geos5index8quadtree10DoubleBits13zeroLowerBitsEi@Base 3.4.2
 _ZN4geos5index8quadtree10DoubleBits14toBinaryStringB5cxx11Ed@Base 3.4.2
 _ZN4geos5index8quadtree10DoubleBits20truncateToPowerOfTwoEd@Base 3.4.2
 _ZN4geos5index8quadtree10DoubleBits21maximumCommonMantissaEdd@Base 3.4.2
 _ZN4geos5index8quadtree10DoubleBits8exponentEd@Base 3.4.2
 _ZN4geos5index8quadtree10DoubleBits8powerOf2Ei@Base 3.4.2
 _ZN4geos5index8quadtree10DoubleBitsC1Ed@Base 3.4.2
 _ZN4geos5index8quadtree10DoubleBitsC2Ed@Base 3.4.2
 _ZN4geos5index8quadtree12IntervalSize11isZeroWidthEdd@Base 3.4.2
 _ZN4geos5index8quadtree3Key10computeKeyERKNS_4geom8EnvelopeE@Base 3.4.2
 _ZN4geos5index8quadtree3Key10computeKeyEiRKNS_4geom8EnvelopeE@Base 3.4.2
 _ZN4geos5index8quadtree3Key16computeQuadLevelERKNS_4geom8EnvelopeE@Base 3.4.2
 _ZN4geos5index8quadtree3KeyC1ERKNS_4geom8EnvelopeE@Base 3.4.2
 _ZN4geos5index8quadtree3KeyC2ERKNS_4geom8EnvelopeE@Base 3.4.2
 _ZN4geos5index8quadtree3KeyD1Ev@Base 3.4.2
 _ZN4geos5index8quadtree3KeyD2Ev@Base 3.4.2
 _ZN4geos5index8quadtree4Node10createNodeERKNS_4geom8EnvelopeE@Base 3.4.2
 _ZN4geos5index8quadtree4Node10getSubnodeEi@Base 3.4.2
 _ZN4geos5index8quadtree4Node10insertNodeESt8auto_ptrIS2_E@Base 3.4.2
 _ZN4geos5index8quadtree4Node13createSubnodeEi@Base 3.4.2
 _ZN4geos5index8quadtree4Node14createExpandedESt8auto_ptrIS2_ERKNS_4geom8EnvelopeE@Base 3.4.2
 _ZN4geos5index8quadtree4Node4findEPKNS_4geom8EnvelopeE@Base 3.4.2
 _ZN4geos5index8quadtree4Node7getNodeEPKNS_4geom8EnvelopeE@Base 3.4.2
 _ZN4geos5index8quadtree4NodeD0Ev@Base 3.4.2
 _ZN4geos5index8quadtree4NodeD1Ev@Base 3.4.2
 _ZN4geos5index8quadtree4NodeD2Ev@Base 3.4.2
 _ZN4geos5index8quadtree4Root15insertContainedEPNS1_4NodeEPKNS_4geom8EnvelopeEPv@Base 3.4.2
 _ZN4geos5index8quadtree4Root6insertEPKNS_4geom8EnvelopeEPv@Base 3.4.2
 _ZN4geos5index8quadtree4Root6originE@Base 3.4.2
 _ZN4geos5index8quadtree4RootD0Ev@Base 3.4.2
 _ZN4geos5index8quadtree4RootD1Ev@Base 3.4.2
 _ZN4geos5index8quadtree4RootD2Ev@Base 3.4.2
 _ZN4geos5index8quadtree8NodeBase10visitItemsEPKNS_4geom8EnvelopeERNS0_11ItemVisitorE@Base 3.4.2
 _ZN4geos5index8quadtree8NodeBase15getSubnodeIndexEPKNS_4geom8EnvelopeERKNS3_10CoordinateE@Base 3.4.2
 _ZN4geos5index8quadtree8NodeBase3addEPv@Base 3.4.2
 _ZN4geos5index8quadtree8NodeBase5visitEPKNS_4geom8EnvelopeERNS0_11ItemVisitorE@Base 3.4.2
 _ZN4geos5index8quadtree8NodeBase6removeEPKNS_4geom8EnvelopeEPv@Base 3.4.2
 _ZN4geos5index8quadtree8NodeBase8getItemsEv@Base 3.4.2
 _ZN4geos5index8quadtree8NodeBaseC1Ev@Base 3.4.2
 _ZN4geos5index8quadtree8NodeBaseC2Ev@Base 3.4.2
 _ZN4geos5index8quadtree8NodeBaseD0Ev@Base 3.4.2
 _ZN4geos5index8quadtree8NodeBaseD1Ev@Base 3.4.2
 _ZN4geos5index8quadtree8NodeBaseD2Ev@Base 3.4.2
 _ZN4geos5index8quadtree8Quadtree12collectStatsERKNS_4geom8EnvelopeE@Base 3.4.2
 _ZN4geos5index8quadtree8Quadtree12ensureExtentEPKNS_4geom8EnvelopeEd@Base 3.4.2
 _ZN4geos5index8quadtree8Quadtree4sizeEv@Base 3.4.2
 _ZN4geos5index8quadtree8Quadtree5depthEv@Base 3.4.2
 _ZN4geos5index8quadtree8Quadtree5queryEPKNS_4geom8EnvelopeERNS0_11ItemVisitorE@Base 3.4.2
 _ZN4geos5index8quadtree8Quadtree5queryEPKNS_4geom8EnvelopeERSt6vectorIPvSaIS8_EE@Base 3.4.2
 _ZN4geos5index8quadtree8Quadtree6insertEPKNS_4geom8EnvelopeEPv@Base 3.4.2
 _ZN4geos5index8quadtree8Quadtree6removeEPKNS_4geom8EnvelopeEPv@Base 3.4.2
 _ZN4geos5index8quadtree8Quadtree8queryAllEv@Base 3.4.2
 _ZN4geos5index8quadtree8QuadtreeD0Ev@Base 3.4.2
 _ZN4geos5index8quadtree8QuadtreeD1Ev@Base 3.4.2
 _ZN4geos5index8quadtree8QuadtreeD2Ev@Base 3.4.2
 _ZN4geos5index9sweepline14SweepLineEvent11getIntervalEv@Base 3.4.2
 _ZN4geos5index9sweepline14SweepLineEvent14getInsertEventEv@Base 3.4.2
 _ZN4geos5index9sweepline14SweepLineEvent19getDeleteEventIndexEv@Base 3.4.2
 _ZN4geos5index9sweepline14SweepLineEvent19setDeleteEventIndexEi@Base 3.4.2
 _ZN4geos5index9sweepline14SweepLineEvent8isDeleteEv@Base 3.4.2
 _ZN4geos5index9sweepline14SweepLineEvent8isInsertEv@Base 3.4.2
 _ZN4geos5index9sweepline14SweepLineEventC1EdPS2_PNS1_17SweepLineIntervalE@Base 3.4.2
 _ZN4geos5index9sweepline14SweepLineEventC2EdPS2_PNS1_17SweepLineIntervalE@Base 3.4.2
 _ZN4geos5index9sweepline14SweepLineIndex10buildIndexEv@Base 3.4.2
 _ZN4geos5index9sweepline14SweepLineIndex15computeOverlapsEPNS1_22SweepLineOverlapActionE@Base 3.4.2
 _ZN4geos5index9sweepline14SweepLineIndex15processOverlapsEiiPNS1_17SweepLineIntervalEPNS1_22SweepLineOverlapActionE@Base 3.4.2
 _ZN4geos5index9sweepline14SweepLineIndex3addEPNS1_17SweepLineIntervalE@Base 3.4.2
 _ZN4geos5index9sweepline14SweepLineIndexC1Ev@Base 3.4.2
 _ZN4geos5index9sweepline14SweepLineIndexC2Ev@Base 3.4.2
 _ZN4geos5index9sweepline14SweepLineIndexD1Ev@Base 3.4.2
 _ZN4geos5index9sweepline14SweepLineIndexD2Ev@Base 3.4.2
 _ZN4geos5index9sweepline17SweepLineInterval6getMaxEv@Base 3.4.2
 _ZN4geos5index9sweepline17SweepLineInterval6getMinEv@Base 3.4.2
 _ZN4geos5index9sweepline17SweepLineInterval7getItemEv@Base 3.4.2
 _ZN4geos5index9sweepline17SweepLineIntervalC1EddPv@Base 3.4.2
 _ZN4geos5index9sweepline17SweepLineIntervalC2EddPv@Base 3.4.2
 _ZN4geos6noding11ScaledNoder12computeNodesEPSt6vectorIPNS0_13SegmentStringESaIS4_EE@Base 3.4.2
 _ZN4geos6noding11ScaledNoder6ScalerD0Ev@Base 3.4.2
 _ZN4geos6noding11ScaledNoder6ScalerD1Ev@Base 3.4.2
 _ZN4geos6noding11ScaledNoder6ScalerD2Ev@Base 3.4.2
 _ZN4geos6noding11ScaledNoder8ReScaler9filter_roEPKNS_4geom10CoordinateE@Base 3.4.2
 _ZN4geos6noding11ScaledNoder8ReScalerD0Ev@Base 3.4.2
 _ZN4geos6noding11ScaledNoder8ReScalerD1Ev@Base 3.4.2
 _ZN4geos6noding11ScaledNoder8ReScalerD2Ev@Base 3.4.2
 _ZN4geos6noding11ScaledNoderD0Ev@Base 3.4.2
 _ZN4geos6noding11ScaledNoderD1Ev@Base 3.4.2
 _ZN4geos6noding11ScaledNoderD2Ev@Base 3.4.2
 _ZN4geos6noding11SegmentNode9compareToERKS1_@Base 3.4.2
 _ZN4geos6noding11SegmentNodeC1ERKNS0_18NodedSegmentStringERKNS_4geom10CoordinateEji@Base 3.4.2
 _ZN4geos6noding11SegmentNodeC2ERKNS0_18NodedSegmentStringERKNS_4geom10CoordinateEji@Base 3.4.2
 _ZN4geos6noding11SimpleNoder12computeNodesEPSt6vectorIPNS0_13SegmentStringESaIS4_EE@Base 3.4.2
 _ZN4geos6noding11SimpleNoder17computeIntersectsEPNS0_13SegmentStringES3_@Base 3.4.2
 _ZN4geos6noding11SimpleNoderD0Ev@Base 3.4.2
 _ZN4geos6noding11SimpleNoderD1Ev@Base 3.4.2
 _ZN4geos6noding11SimpleNoderD2Ev@Base 3.4.2
 _ZN4geos6noding12MCIndexNoder12computeNodesEPSt6vectorIPNS0_13SegmentStringESaIS4_EE@Base 3.4.2
 _ZN4geos6noding12MCIndexNoder15intersectChainsEv@Base 3.4.2
 _ZN4geos6noding12MCIndexNoder20SegmentOverlapAction7overlapERNS_5index5chain13MonotoneChainEmS6_m@Base 3.5.0
 _ZN4geos6noding12MCIndexNoder20SegmentOverlapActionD0Ev@Base 3.4.2
 _ZN4geos6noding12MCIndexNoder20SegmentOverlapActionD1Ev@Base 3.4.2
 _ZN4geos6noding12MCIndexNoder20SegmentOverlapActionD2Ev@Base 3.4.2
 _ZN4geos6noding12MCIndexNoder3addEPNS0_13SegmentStringE@Base 3.4.2
 _ZN4geos6noding12MCIndexNoder8getIndexEv@Base 3.4.2
 _ZN4geos6noding12MCIndexNoderD0Ev@Base 3.4.2
 _ZN4geos6noding12MCIndexNoderD1Ev@Base 3.4.2
 _ZN4geos6noding12MCIndexNoderD2Ev@Base 3.4.2
 _ZN4geos6noding13GeometryNoder10toGeometryERSt6vectorIPNS0_13SegmentStringESaIS4_EE@Base 3.4.2
 _ZN4geos6noding13GeometryNoder21extractSegmentStringsERKNS_4geom8GeometryERSt6vectorIPNS0_13SegmentStringESaIS8_EE@Base 3.4.2
 _ZN4geos6noding13GeometryNoder4nodeERKNS_4geom8GeometryE@Base 3.4.2
 _ZN4geos6noding13GeometryNoder8getNodedEv@Base 3.4.2
 _ZN4geos6noding13GeometryNoder8getNoderEv@Base 3.4.2
 _ZN4geos6noding13GeometryNoderC1ERKNS_4geom8GeometryE@Base 3.4.2
 _ZN4geos6noding13GeometryNoderC2ERKNS_4geom8GeometryE@Base 3.4.2
 _ZN4geos6noding13IteratedNoder12computeNodesEPSt6vectorIPNS0_13SegmentStringESaIS4_EE@Base 3.4.2
 _ZN4geos6noding13IteratedNoder4nodeEPSt6vectorIPNS0_13SegmentStringESaIS4_EEPi@Base 3.4.2
 _ZN4geos6noding13IteratedNoderD0Ev@Base 3.4.2
 _ZN4geos6noding13IteratedNoderD1Ev@Base 3.4.2
 _ZN4geos6noding13IteratedNoderD2Ev@Base 3.4.2
 _ZN4geos6noding15NodingValidator10checkValidEv@Base 3.4.2
 _ZN4geos6noding15NodingValidator26checkInteriorIntersectionsERKNS0_13SegmentStringES4_@Base 3.4.2
 _ZN4geos6noding15NodingValidator26checkInteriorIntersectionsERKNS0_13SegmentStringEjS4_j@Base 3.4.2
 _ZN4geos6noding15NodingValidator26checkInteriorIntersectionsEv@Base 3.4.2
 _ZN4geos6noding15SegmentNodeList12addEndpointsEv@Base 3.4.2
 _ZN4geos6noding15SegmentNodeList13addSplitEdgesERSt6vectorIPNS0_13SegmentStringESaIS4_EE@Base 3.4.2
 _ZN4geos6noding15SegmentNodeList15createSplitEdgeEPNS0_11SegmentNodeES3_@Base 3.4.2
 _ZN4geos6noding15SegmentNodeList17addCollapsedNodesEv@Base 3.4.2
 _ZN4geos6noding15SegmentNodeList17findCollapseIndexERNS0_11SegmentNodeES3_Rm@Base 3.5.0
 _ZN4geos6noding15SegmentNodeList26checkSplitEdgesCorrectnessERSt6vectorIPNS0_13SegmentStringESaIS4_EE@Base 3.4.2
 _ZN4geos6noding15SegmentNodeList30findCollapsesFromInsertedNodesERSt6vectorImSaImEE@Base 3.5.0
 _ZN4geos6noding15SegmentNodeList33findCollapsesFromExistingVerticesERSt6vectorImSaImEE@Base 3.5.0
 _ZN4geos6noding15SegmentNodeList3addERKNS_4geom10CoordinateEm@Base 3.5.0
 _ZN4geos6noding15SegmentNodeListD0Ev@Base 3.4.2
 _ZN4geos6noding15SegmentNodeListD1Ev@Base 3.4.2
 _ZN4geos6noding15SegmentNodeListD2Ev@Base 3.4.2
 _ZN4geos6noding15SinglePassNoder21setSegmentIntersectorEPNS0_18SegmentIntersectorE@Base 3.4.2
 _ZN4geos6noding17IntersectionAdder20processIntersectionsEPNS0_13SegmentStringEiS3_i@Base 3.4.2
 _ZN4geos6noding17IntersectionAdder21isTrivialIntersectionEPKNS0_13SegmentStringEiS4_i@Base 3.4.2
 _ZN4geos6noding17IntersectionAdderD0Ev@Base 3.4.2
 _ZN4geos6noding17IntersectionAdderD1Ev@Base 3.4.2
 _ZN4geos6noding17IntersectionAdderD2Ev@Base 3.4.2
 _ZN4geos6noding18BasicSegmentStringD0Ev@Base 3.4.2
 _ZN4geos6noding18BasicSegmentStringD1Ev@Base 3.4.2
 _ZN4geos6noding18BasicSegmentStringD2Ev@Base 3.4.2
 _ZN4geos6noding18NodedSegmentString10safeOctantERKNS_4geom10CoordinateES5_@Base 3.4.2
 _ZN4geos6noding18NodedSegmentString11getNodeListEv@Base 3.4.2
 _ZN4geos6noding18NodedSegmentString15addIntersectionEPNS_9algorithm15LineIntersectorEjii@Base 3.4.2
 _ZN4geos6noding18NodedSegmentString15addIntersectionERKNS_4geom10CoordinateEj@Base 3.4.2
 _ZN4geos6noding18NodedSegmentString16addIntersectionsEPNS_9algorithm15LineIntersectorEji@Base 3.4.2
 _ZN4geos6noding18NodedSegmentString18getNodedSubstringsERKSt6vectorIPNS0_13SegmentStringESaIS4_EE@Base 3.4.2
 _ZN4geos6noding18NodedSegmentString18getNodedSubstringsERKSt6vectorIPNS0_13SegmentStringESaIS4_EEPS6_@Base 3.4.2
 _ZN4geos6noding18NodedSegmentStringD0Ev@Base 3.4.2
 _ZN4geos6noding18NodedSegmentStringD1Ev@Base 3.4.2
 _ZN4geos6noding18NodedSegmentStringD2Ev@Base 3.4.2
 _ZN4geos6noding19FastNodingValidator10checkValidEv@Base 3.4.2
 _ZN4geos6noding19FastNodingValidator26checkInteriorIntersectionsEv@Base 3.4.2
 _ZN4geos6noding23IntersectionFinderAdder20processIntersectionsEPNS0_13SegmentStringEiS3_i@Base 3.4.2
 _ZN4geos6noding23IntersectionFinderAdderD0Ev@Base 3.4.2
 _ZN4geos6noding23IntersectionFinderAdderD1Ev@Base 3.4.2
 _ZN4geos6noding23IntersectionFinderAdderD2Ev@Base 3.4.2
 _ZN4geos6noding23OrientedCoordinateArray11orientationERKNS_4geom18CoordinateSequenceE@Base 3.4.2
 _ZN4geos6noding23OrientedCoordinateArray15compareOrientedERKNS_4geom18CoordinateSequenceEbS5_b@Base 3.4.2
 _ZN4geos6noding27SegmentIntersectionDetector20processIntersectionsEPNS0_13SegmentStringEiS3_i@Base 3.4.2
 _ZN4geos6noding27SegmentIntersectionDetectorD0Ev@Base 3.4.2
 _ZN4geos6noding27SegmentIntersectionDetectorD1Ev@Base 3.4.2
 _ZN4geos6noding27SegmentIntersectionDetectorD2Ev@Base 3.4.2
 _ZN4geos6noding32FastSegmentSetIntersectionFinder10intersectsEPSt6vectorIPKNS0_13SegmentStringESaIS5_EE@Base 3.4.2
 _ZN4geos6noding32FastSegmentSetIntersectionFinder10intersectsEPSt6vectorIPKNS0_13SegmentStringESaIS5_EEPNS0_27SegmentIntersectionDetectorE@Base 3.4.2
 _ZN4geos6noding32FastSegmentSetIntersectionFinderC1EPSt6vectorIPKNS0_13SegmentStringESaIS5_EE@Base 3.4.2
 _ZN4geos6noding32FastSegmentSetIntersectionFinderC2EPSt6vectorIPKNS0_13SegmentStringESaIS5_EE@Base 3.4.2
 _ZN4geos6noding32FastSegmentSetIntersectionFinderD1Ev@Base 3.4.2
 _ZN4geos6noding32FastSegmentSetIntersectionFinderD2Ev@Base 3.4.2
 _ZN4geos6noding32SingleInteriorIntersectionFinder20processIntersectionsEPNS0_13SegmentStringEiS3_i@Base 3.4.2
 _ZN4geos6noding32SingleInteriorIntersectionFinderD0Ev@Base 3.4.2
 _ZN4geos6noding32SingleInteriorIntersectionFinderD1Ev@Base 3.4.2
 _ZN4geos6noding32SingleInteriorIntersectionFinderD2Ev@Base 3.4.2
 _ZN4geos6noding34MCIndexSegmentSetMutualIntersector10addToIndexEPNS0_13SegmentStringE@Base 3.4.2
 _ZN4geos6noding34MCIndexSegmentSetMutualIntersector15addToMonoChainsEPNS0_13SegmentStringE@Base 3.4.2
 _ZN4geos6noding34MCIndexSegmentSetMutualIntersector15intersectChainsEv@Base 3.4.2
 _ZN4geos6noding34MCIndexSegmentSetMutualIntersector15setBaseSegmentsEPSt6vectorIPKNS0_13SegmentStringESaIS5_EE@Base 3.4.2
 _ZN4geos6noding34MCIndexSegmentSetMutualIntersector20SegmentOverlapAction7overlapERNS_5index5chain13MonotoneChainEmS6_m@Base 3.5.0
 _ZN4geos6noding34MCIndexSegmentSetMutualIntersector20SegmentOverlapActionD0Ev@Base 3.4.2
 _ZN4geos6noding34MCIndexSegmentSetMutualIntersector20SegmentOverlapActionD1Ev@Base 3.4.2
 _ZN4geos6noding34MCIndexSegmentSetMutualIntersector20SegmentOverlapActionD2Ev@Base 3.4.2
 _ZN4geos6noding34MCIndexSegmentSetMutualIntersector7processEPSt6vectorIPKNS0_13SegmentStringESaIS5_EE@Base 3.4.2
 _ZN4geos6noding34MCIndexSegmentSetMutualIntersectorC1Ev@Base 3.4.2
 _ZN4geos6noding34MCIndexSegmentSetMutualIntersectorC2Ev@Base 3.4.2
 _ZN4geos6noding34MCIndexSegmentSetMutualIntersectorD0Ev@Base 3.4.2
 _ZN4geos6noding34MCIndexSegmentSetMutualIntersectorD1Ev@Base 3.4.2
 _ZN4geos6noding34MCIndexSegmentSetMutualIntersectorD2Ev@Base 3.4.2
 _ZN4geos6noding6Octant6octantERKNS_4geom10CoordinateES5_@Base 3.4.2
 _ZN4geos6noding6Octant6octantEdd@Base 3.4.2
 _ZN4geos6noding9snapround17SimpleSnapRounder12computeNodesEPSt6vectorIPNS0_13SegmentStringESaIS5_EE@Base 3.4.2
 _ZN4geos6noding9snapround17SimpleSnapRounder12computeSnapsEPNS0_18NodedSegmentStringERSt6vectorINS_4geom10CoordinateESaIS7_EE@Base 3.4.2
 _ZN4geos6noding9snapround17SimpleSnapRounder12computeSnapsERKSt6vectorIPNS0_13SegmentStringESaIS5_EERS3_INS_4geom10CoordinateESaISB_EE@Base 3.4.2
 _ZN4geos6noding9snapround17SimpleSnapRounder16checkCorrectnessERSt6vectorIPNS0_13SegmentStringESaIS5_EE@Base 3.4.2
 _ZN4geos6noding9snapround17SimpleSnapRounder18computeVertexSnapsEPNS0_18NodedSegmentStringES4_@Base 3.4.2
 _ZN4geos6noding9snapround17SimpleSnapRounder18computeVertexSnapsERKSt6vectorIPNS0_13SegmentStringESaIS5_EE@Base 3.4.2
 _ZN4geos6noding9snapround17SimpleSnapRounder25findInteriorIntersectionsERSt6vectorIPNS0_13SegmentStringESaIS5_EERNS_9algorithm15LineIntersectorERS3_INS_4geom10CoordinateESaISD_EE@Base 3.4.2
 _ZN4geos6noding9snapround17SimpleSnapRounder9snapRoundEPSt6vectorIPNS0_13SegmentStringESaIS5_EERNS_9algorithm15LineIntersectorE@Base 3.4.2
 _ZN4geos6noding9snapround17SimpleSnapRounderC1ERKNS_4geom14PrecisionModelE@Base 3.4.2
 _ZN4geos6noding9snapround17SimpleSnapRounderC2ERKNS_4geom14PrecisionModelE@Base 3.4.2
 _ZN4geos6noding9snapround17SimpleSnapRounderD0Ev@Base 3.4.2
 _ZN4geos6noding9snapround17SimpleSnapRounderD1Ev@Base 3.4.2
 _ZN4geos6noding9snapround17SimpleSnapRounderD2Ev@Base 3.4.2
 _ZN4geos6noding9snapround18HotPixelSnapAction6selectERKNS_4geom11LineSegmentE@Base 3.4.2
 _ZN4geos6noding9snapround18HotPixelSnapAction6selectERNS_5index5chain13MonotoneChainEj@Base 3.4.2
 _ZN4geos6noding9snapround18HotPixelSnapActionD0Ev@Base 3.4.2
 _ZN4geos6noding9snapround18HotPixelSnapActionD1Ev@Base 3.4.2
 _ZN4geos6noding9snapround18HotPixelSnapActionD2Ev@Base 3.4.2
 _ZN4geos6noding9snapround18MCIndexSnapRounder12computeNodesEPSt6vectorIPNS0_13SegmentStringESaIS5_EE@Base 3.4.2
 _ZN4geos6noding9snapround18MCIndexSnapRounder16checkCorrectnessERSt6vectorIPNS0_13SegmentStringESaIS5_EE@Base 3.4.2
 _ZN4geos6noding9snapround18MCIndexSnapRounder18computeVertexSnapsEPNS0_18NodedSegmentStringE@Base 3.4.2
 _ZN4geos6noding9snapround18MCIndexSnapRounder18computeVertexSnapsERSt6vectorIPNS0_13SegmentStringESaIS5_EE@Base 3.4.2
 _ZN4geos6noding9snapround18MCIndexSnapRounder24computeIntersectionSnapsERSt6vectorINS_4geom10CoordinateESaIS5_EE@Base 3.4.2
 _ZN4geos6noding9snapround18MCIndexSnapRounder25findInteriorIntersectionsERNS0_12MCIndexNoderEPSt6vectorIPNS0_13SegmentStringESaIS7_EERS5_INS_4geom10CoordinateESaISC_EE@Base 3.4.2
 _ZN4geos6noding9snapround18MCIndexSnapRounder9snapRoundERNS0_12MCIndexNoderEPSt6vectorIPNS0_13SegmentStringESaIS7_EE@Base 3.4.2
 _ZN4geos6noding9snapround18MCIndexSnapRounderD0Ev@Base 3.4.2
 _ZN4geos6noding9snapround18MCIndexSnapRounderD1Ev@Base 3.4.2
 _ZN4geos6noding9snapround18MCIndexSnapRounderD2Ev@Base 3.4.2
 _ZN4geos6noding9snapround19MCIndexPointSnapper4snapERNS1_8HotPixelEPNS0_13SegmentStringEj@Base 3.4.2
 _ZN4geos6noding9snapround26MCIndexPointSnapperVisitor9visitItemEPv@Base 3.4.2
 _ZN4geos6noding9snapround26MCIndexPointSnapperVisitorD0Ev@Base 3.4.2
 _ZN4geos6noding9snapround26MCIndexPointSnapperVisitorD1Ev@Base 3.4.2
 _ZN4geos6noding9snapround26MCIndexPointSnapperVisitorD2Ev@Base 3.4.2
 _ZN4geos6noding9snapround8HotPixel11initCornersERKNS_4geom10CoordinateE@Base 3.4.2
 _ZN4geos6noding9snapround8HotPixel14addSnappedNodeERNS0_18NodedSegmentStringEm@Base 3.5.0
 _ZN4geos6noding9snapround8HotPixel22intersectsPixelClosureERKNS_4geom10CoordinateES6_@Base 3.4.2
 _ZN4geos6noding9snapround8HotPixelC1ERKNS_4geom10CoordinateEdRNS_9algorithm15LineIntersectorE@Base 3.4.2
 _ZN4geos6noding9snapround8HotPixelC2ERKNS_4geom10CoordinateEdRNS_9algorithm15LineIntersectorE@Base 3.4.2
 _ZN4geos6noding9snapround8HotPixelD1Ev@Base 3.4.2
 _ZN4geos6noding9snapround8HotPixelD2Ev@Base 3.4.2
 _ZN4geos6nodinglsERSoRKNS0_11SegmentNodeE@Base 3.4.2
 _ZN4geos6nodinglsERSoRKNS0_13SegmentStringE@Base 3.4.2
 _ZN4geos6nodinglsERSoRKNS0_15SegmentNodeListE@Base 3.4.2
 _ZN4geos8simplify13DPTransformer15createValidAreaEPKNS_4geom8GeometryE@Base 3.4.2
 _ZN4geos8simplify13DPTransformer16transformPolygonEPKNS_4geom7PolygonEPKNS2_8GeometryE@Base 3.4.2
 _ZN4geos8simplify13DPTransformer20transformCoordinatesEPKNS_4geom18CoordinateSequenceEPKNS2_8GeometryE@Base 3.4.2
 _ZN4geos8simplify13DPTransformer21transformMultiPolygonEPKNS_4geom12MultiPolygonEPKNS2_8GeometryE@Base 3.4.2
 _ZN4geos8simplify13DPTransformerC1Ed@Base 3.4.2
 _ZN4geos8simplify13DPTransformerC2Ed@Base 3.4.2
 _ZN4geos8simplify13DPTransformerD0Ev@Base 3.4.2
 _ZN4geos8simplify13DPTransformerD1Ev@Base 3.4.2
 _ZN4geos8simplify13DPTransformerD2Ev@Base 3.4.2
 _ZN4geos8simplify16LineSegmentIndex3addEPKNS_4geom11LineSegmentE@Base 3.4.2
 _ZN4geos8simplify16LineSegmentIndex3addERKNS0_16TaggedLineStringE@Base 3.4.2
 _ZN4geos8simplify16LineSegmentIndex6removeEPKNS_4geom11LineSegmentE@Base 3.4.2
 _ZN4geos8simplify16LineSegmentIndexC1Ev@Base 3.4.2
 _ZN4geos8simplify16LineSegmentIndexC2Ev@Base 3.4.2
 _ZN4geos8simplify16LineSegmentIndexD1Ev@Base 3.4.2
 _ZN4geos8simplify16LineSegmentIndexD2Ev@Base 3.4.2
 _ZN4geos8simplify16TaggedLineString10getSegmentEm@Base 3.5.0
 _ZN4geos8simplify16TaggedLineString11addToResultESt8auto_ptrINS0_17TaggedLineSegmentEE@Base 3.4.2
 _ZN4geos8simplify16TaggedLineString11getSegmentsEv@Base 3.4.2
 _ZN4geos8simplify16TaggedLineString18extractCoordinatesERKSt6vectorIPNS0_17TaggedLineSegmentESaIS4_EE@Base 3.4.2
 _ZN4geos8simplify16TaggedLineString4initEv@Base 3.4.2
 _ZN4geos8simplify16TaggedLineStringC1EPKNS_4geom10LineStringEm@Base 3.5.0
 _ZN4geos8simplify16TaggedLineStringC2EPKNS_4geom10LineStringEm@Base 3.5.0
 _ZN4geos8simplify16TaggedLineStringD1Ev@Base 3.4.2
 _ZN4geos8simplify16TaggedLineStringD2Ev@Base 3.4.2
 _ZN4geos8simplify17TaggedLineSegmentC1ERKNS_4geom10CoordinateES5_@Base 3.4.2
 _ZN4geos8simplify17TaggedLineSegmentC1ERKNS_4geom10CoordinateES5_PKNS2_8GeometryEj@Base 3.4.2
 _ZN4geos8simplify17TaggedLineSegmentC1ERKS1_@Base 3.4.2
 _ZN4geos8simplify17TaggedLineSegmentC2ERKNS_4geom10CoordinateES5_@Base 3.4.2
 _ZN4geos8simplify17TaggedLineSegmentC2ERKNS_4geom10CoordinateES5_PKNS2_8GeometryEj@Base 3.4.2
 _ZN4geos8simplify17TaggedLineSegmentC2ERKS1_@Base 3.4.2
 _ZN4geos8simplify17TaggedLineSegmentD0Ev@Base 3.4.2
 _ZN4geos8simplify17TaggedLineSegmentD1Ev@Base 3.4.2
 _ZN4geos8simplify17TaggedLineSegmentD2Ev@Base 3.4.2
 _ZN4geos8simplify18LineSegmentVisitor9visitItemEPv@Base 3.4.2
 _ZN4geos8simplify18LineSegmentVisitorD0Ev@Base 3.4.2
 _ZN4geos8simplify18LineSegmentVisitorD1Ev@Base 3.4.2
 _ZN4geos8simplify18LineSegmentVisitorD2Ev@Base 3.4.2
 _ZN4geos8simplify21TaggedLinesSimplifier20setDistanceToleranceEd@Base 3.4.2
 _ZN4geos8simplify21TaggedLinesSimplifier8simplifyERNS0_16TaggedLineStringE@Base 3.4.2
 _ZN4geos8simplify21TaggedLinesSimplifierC1Ev@Base 3.4.2
 _ZN4geos8simplify21TaggedLinesSimplifierC2Ev@Base 3.4.2
 _ZN4geos8simplify24DouglasPeuckerSimplifier17getResultGeometryEv@Base 3.4.2
 _ZN4geos8simplify24DouglasPeuckerSimplifier20setDistanceToleranceEd@Base 3.4.2
 _ZN4geos8simplify24DouglasPeuckerSimplifier8simplifyEPKNS_4geom8GeometryEd@Base 3.4.2
 _ZN4geos8simplify24DouglasPeuckerSimplifierC1EPKNS_4geom8GeometryE@Base 3.4.2
 _ZN4geos8simplify24DouglasPeuckerSimplifierC2EPKNS_4geom8GeometryE@Base 3.4.2
 _ZN4geos8simplify26TaggedLineStringSimplifier15isInLineSectionEPKNS0_16TaggedLineStringERKSt6vectorImSaImEEPKNS0_17TaggedLineSegmentE@Base 3.5.0
 _ZN4geos8simplify26TaggedLineStringSimplifier15simplifySectionEmmm@Base 3.5.0
 _ZN4geos8simplify26TaggedLineStringSimplifier17findFurthestPointEPKNS_4geom18CoordinateSequenceEmmRd@Base 3.5.0
 _ZN4geos8simplify26TaggedLineStringSimplifier18hasBadIntersectionEPKNS0_16TaggedLineStringERKSt6vectorImSaImEERKNS_4geom11LineSegmentE@Base 3.5.0
 _ZN4geos8simplify26TaggedLineStringSimplifier23hasBadInputIntersectionEPKNS0_16TaggedLineStringERKSt6vectorImSaImEERKNS_4geom11LineSegmentE@Base 3.5.0
 _ZN4geos8simplify26TaggedLineStringSimplifier24hasBadOutputIntersectionERKNS_4geom11LineSegmentE@Base 3.4.2
 _ZN4geos8simplify26TaggedLineStringSimplifier6removeEPKNS0_16TaggedLineStringEmm@Base 3.5.0
 _ZN4geos8simplify26TaggedLineStringSimplifier7flattenEmm@Base 3.5.0
 _ZN4geos8simplify26TaggedLineStringSimplifier8simplifyEPNS0_16TaggedLineStringE@Base 3.4.2
 _ZN4geos8simplify26TaggedLineStringSimplifierC1EPNS0_16LineSegmentIndexES3_@Base 3.4.2
 _ZN4geos8simplify26TaggedLineStringSimplifierC2EPNS0_16LineSegmentIndexES3_@Base 3.4.2
 _ZN4geos8simplify28DouglasPeuckerLineSimplifier15simplifySectionEmm@Base 3.5.0
 _ZN4geos8simplify28DouglasPeuckerLineSimplifier20setDistanceToleranceEd@Base 3.4.2
 _ZN4geos8simplify28DouglasPeuckerLineSimplifier8simplifyERKSt6vectorINS_4geom10CoordinateESaIS4_EEd@Base 3.4.2
 _ZN4geos8simplify28DouglasPeuckerLineSimplifier8simplifyEv@Base 3.4.2
 _ZN4geos8simplify28DouglasPeuckerLineSimplifierC1ERKSt6vectorINS_4geom10CoordinateESaIS4_EE@Base 3.4.2
 _ZN4geos8simplify28DouglasPeuckerLineSimplifierC2ERKSt6vectorINS_4geom10CoordinateESaIS4_EE@Base 3.4.2
 _ZN4geos8simplify28TopologyPreservingSimplifier17getResultGeometryEv@Base 3.4.2
 _ZN4geos8simplify28TopologyPreservingSimplifier20setDistanceToleranceEd@Base 3.4.2
 _ZN4geos8simplify28TopologyPreservingSimplifier8simplifyEPKNS_4geom8GeometryEd@Base 3.4.2
 _ZN4geos8simplify28TopologyPreservingSimplifierC1EPKNS_4geom8GeometryE@Base 3.4.2
 _ZN4geos8simplify28TopologyPreservingSimplifierC2EPKNS_4geom8GeometryE@Base 3.4.2
 _ZN4geos9algorithm10ConvexHull10grahamScanERKSt6vectorIPKNS_4geom10CoordinateESaIS6_EERS8_@Base 3.4.2
 _ZN4geos9algorithm10ConvexHull13computeOctPtsERKSt6vectorIPKNS_4geom10CoordinateESaIS6_EERS8_@Base 3.4.2
 _ZN4geos9algorithm10ConvexHull13getConvexHullEv@Base 3.4.2
 _ZN4geos9algorithm10ConvexHull13lineOrPolygonERKSt6vectorIPKNS_4geom10CoordinateESaIS6_EE@Base 3.4.2
 _ZN4geos9algorithm10ConvexHull14computeOctRingERKSt6vectorIPKNS_4geom10CoordinateESaIS6_EERS8_@Base 3.4.2
 _ZN4geos9algorithm10ConvexHull18extractCoordinatesEPKNS_4geom8GeometryE@Base 3.4.2
 _ZN4geos9algorithm10ConvexHull20toCoordinateSequenceERSt6vectorIPKNS_4geom10CoordinateESaIS6_EE@Base 3.4.2
 _ZN4geos9algorithm10ConvexHull6reduceERSt6vectorIPKNS_4geom10CoordinateESaIS6_EE@Base 3.4.2
 _ZN4geos9algorithm10ConvexHull7preSortERSt6vectorIPKNS_4geom10CoordinateESaIS6_EE@Base 3.4.2
 _ZN4geos9algorithm10ConvexHull9cleanRingERKSt6vectorIPKNS_4geom10CoordinateESaIS6_EERS8_@Base 3.4.2
 _ZN4geos9algorithm10ConvexHull9isBetweenERKNS_4geom10CoordinateES5_S5_@Base 3.4.2
 _ZN4geos9algorithm10ConvexHull9padArray3ERSt6vectorIPKNS_4geom10CoordinateESaIS6_EE@Base 3.4.2
 _ZN4geos9algorithm10ConvexHullC1EPKNS_4geom8GeometryE@Base 3.4.2
 _ZN4geos9algorithm10ConvexHullC2EPKNS_4geom8GeometryE@Base 3.4.2
 _ZN4geos9algorithm10ConvexHullD1Ev@Base 3.4.2
 _ZN4geos9algorithm10ConvexHullD2Ev@Base 3.4.2
 _ZN4geos9algorithm11HCoordinate12intersectionERKNS_4geom10CoordinateES5_S5_S5_RS3_@Base 3.4.2
 _ZN4geos9algorithm11HCoordinateC1ERKNS_4geom10CoordinateE@Base 3.4.2
 _ZN4geos9algorithm11HCoordinateC1ERKNS_4geom10CoordinateES5_@Base 3.4.2
 _ZN4geos9algorithm11HCoordinateC1ERKNS_4geom10CoordinateES5_S5_S5_@Base 3.4.2
 _ZN4geos9algorithm11HCoordinateC1ERKS1_S3_@Base 3.4.2
 _ZN4geos9algorithm11HCoordinateC1Eddd@Base 3.4.2
 _ZN4geos9algorithm11HCoordinateC1Ev@Base 3.4.2
 _ZN4geos9algorithm11HCoordinateC2ERKNS_4geom10CoordinateE@Base 3.4.2
 _ZN4geos9algorithm11HCoordinateC2ERKNS_4geom10CoordinateES5_@Base 3.4.2
 _ZN4geos9algorithm11HCoordinateC2ERKNS_4geom10CoordinateES5_S5_S5_@Base 3.4.2
 _ZN4geos9algorithm11HCoordinateC2ERKS1_S3_@Base 3.4.2
 _ZN4geos9algorithm11HCoordinateC2Eddd@Base 3.4.2
 _ZN4geos9algorithm11HCoordinateC2Ev@Base 3.4.2
 _ZN4geos9algorithm12CGAlgorithms10signedAreaEPKNS_4geom18CoordinateSequenceE@Base 3.4.2
 _ZN4geos9algorithm12CGAlgorithms13isPointInRingERKNS_4geom10CoordinateEPKNS2_18CoordinateSequenceE@Base 3.4.2
 _ZN4geos9algorithm12CGAlgorithms13isPointInRingERKNS_4geom10CoordinateERKSt6vectorIPS4_SaIS7_EE@Base 3.4.2
 _ZN4geos9algorithm12CGAlgorithms16distanceLineLineERKNS_4geom10CoordinateES5_S5_S5_@Base 3.4.2
 _ZN4geos9algorithm12CGAlgorithms16orientationIndexERKNS_4geom10CoordinateES5_S5_@Base 3.4.2
 _ZN4geos9algorithm12CGAlgorithms17distancePointLineERKNS_4geom10CoordinateES5_S5_@Base 3.4.2
 _ZN4geos9algorithm12CGAlgorithms17locatePointInRingERKNS_4geom10CoordinateERKNS2_18CoordinateSequenceE@Base 3.4.2
 _ZN4geos9algorithm12CGAlgorithms17locatePointInRingERKNS_4geom10CoordinateERKSt6vectorIPS4_SaIS7_EE@Base 3.4.2
 _ZN4geos9algorithm12CGAlgorithms18computeOrientationERKNS_4geom10CoordinateES5_S5_@Base 3.4.2
 _ZN4geos9algorithm12CGAlgorithms30distancePointLinePerpendicularERKNS_4geom10CoordinateES5_S5_@Base 3.4.2
 _ZN4geos9algorithm12CGAlgorithms5isCCWEPKNS_4geom18CoordinateSequenceE@Base 3.4.2
 _ZN4geos9algorithm12CGAlgorithms6lengthEPKNS_4geom18CoordinateSequenceE@Base 3.4.2
 _ZN4geos9algorithm12CGAlgorithms8isOnLineERKNS_4geom10CoordinateEPKNS2_18CoordinateSequenceE@Base 3.4.2
 _ZN4geos9algorithm12CentroidArea11addTriangleERKNS_4geom10CoordinateES5_S5_b@Base 3.4.2
 _ZN4geos9algorithm12CentroidArea12setBasePointERKNS_4geom10CoordinateE@Base 3.4.2
 _ZN4geos9algorithm12CentroidArea17addLinearSegmentsERKNS_4geom18CoordinateSequenceE@Base 3.4.2
 _ZN4geos9algorithm12CentroidArea3addEPKNS_4geom18CoordinateSequenceE@Base 3.4.2
 _ZN4geos9algorithm12CentroidArea3addEPKNS_4geom7PolygonE@Base 3.4.2
 _ZN4geos9algorithm12CentroidArea3addEPKNS_4geom8GeometryE@Base 3.4.2
 _ZN4geos9algorithm12CentroidArea5area2ERKNS_4geom10CoordinateES5_S5_@Base 3.4.2
 _ZN4geos9algorithm12CentroidArea7addHoleEPKNS_4geom18CoordinateSequenceE@Base 3.4.2
 _ZN4geos9algorithm12CentroidArea8addShellEPKNS_4geom18CoordinateSequenceE@Base 3.4.2
 _ZN4geos9algorithm12CentroidArea9centroid3ERKNS_4geom10CoordinateES5_S5_RS3_@Base 3.4.2
 _ZN4geos9algorithm12CentroidLine3addEPKNS_4geom18CoordinateSequenceE@Base 3.4.2
 _ZN4geos9algorithm12CentroidLine3addEPKNS_4geom8GeometryE@Base 3.4.2
 _ZN4geos9algorithm12PointLocator15computeLocationERKNS_4geom10CoordinateEPKNS2_8GeometryE@Base 3.4.2
 _ZN4geos9algorithm12PointLocator18updateLocationInfoEi@Base 3.4.2
 _ZN4geos9algorithm12PointLocator19locateInPolygonRingERKNS_4geom10CoordinateEPKNS2_10LinearRingE@Base 3.4.2
 _ZN4geos9algorithm12PointLocator6locateERKNS_4geom10CoordinateEPKNS2_10LineStringE@Base 3.4.2
 _ZN4geos9algorithm12PointLocator6locateERKNS_4geom10CoordinateEPKNS2_7PolygonE@Base 3.4.2
 _ZN4geos9algorithm12PointLocator6locateERKNS_4geom10CoordinateEPKNS2_8GeometryE@Base 3.4.2
 _ZN4geos9algorithm13CentroidPoint3addEPKNS_4geom10CoordinateE@Base 3.4.2
 _ZN4geos9algorithm13CentroidPoint3addEPKNS_4geom8GeometryE@Base 3.4.2
 _ZN4geos9algorithm13MCPointInRing10MCSelecter6selectERKNS_4geom11LineSegmentE@Base 3.4.2
 _ZN4geos9algorithm13MCPointInRing10MCSelecterC1ERKNS_4geom10CoordinateEPS1_@Base 3.4.2
 _ZN4geos9algorithm13MCPointInRing10MCSelecterC2ERKNS_4geom10CoordinateEPS1_@Base 3.4.2
 _ZN4geos9algorithm13MCPointInRing10MCSelecterD0Ev@Base 3.4.2
 _ZN4geos9algorithm13MCPointInRing10MCSelecterD1Ev@Base 3.4.2
 _ZN4geos9algorithm13MCPointInRing10MCSelecterD2Ev@Base 3.4.2
 _ZN4geos9algorithm13MCPointInRing10buildIndexEv@Base 3.4.2
 _ZN4geos9algorithm13MCPointInRing15testLineSegmentERKNS_4geom10CoordinateERKNS2_11LineSegmentE@Base 3.4.2
 _ZN4geos9algorithm13MCPointInRing17testMonotoneChainEPNS_4geom8EnvelopeEPNS1_10MCSelecterEPNS_5index5chain13MonotoneChainE@Base 3.4.2
 _ZN4geos9algorithm13MCPointInRing8isInsideERKNS_4geom10CoordinateE@Base 3.4.2
 _ZN4geos9algorithm13MCPointInRingC1EPKNS_4geom10LinearRingE@Base 3.4.2
 _ZN4geos9algorithm13MCPointInRingC2EPKNS_4geom10LinearRingE@Base 3.4.2
 _ZN4geos9algorithm13MCPointInRingD0Ev@Base 3.4.2
 _ZN4geos9algorithm13MCPointInRingD1Ev@Base 3.4.2
 _ZN4geos9algorithm13MCPointInRingD2Ev@Base 3.4.2
 _ZN4geos9algorithm15LineIntersector12interpolateZERKNS_4geom10CoordinateES5_S5_@Base 3.4.2
 _ZN4geos9algorithm15LineIntersector15hasIntersectionERKNS_4geom10CoordinateES5_S5_@Base 3.4.2
 _ZN4geos9algorithm15LineIntersector16computeIntersectERKNS_4geom10CoordinateES5_S5_S5_@Base 3.4.2
 _ZN4geos9algorithm15LineIntersector19computeEdgeDistanceERKNS_4geom10CoordinateES5_S5_@Base 3.4.2
 _ZN4geos9algorithm15LineIntersector19computeIntLineIndexEi@Base 3.4.2
 _ZN4geos9algorithm15LineIntersector19computeIntLineIndexEv@Base 3.4.2
 _ZN4geos9algorithm15LineIntersector19computeIntersectionERKNS_4geom10CoordinateES5_S5_@Base 3.4.2
 _ZN4geos9algorithm15LineIntersector19computeIntersectionERKNS_4geom10CoordinateES5_S5_S5_@Base 3.4.2
 _ZN4geos9algorithm15LineIntersector20getIndexAlongSegmentEii@Base 3.4.2
 _ZN4geos9algorithm15LineIntersector20isSameSignAndNonZeroEdd@Base 3.4.2
 _ZN4geos9algorithm15LineIntersector22isInteriorIntersectionEi@Base 3.4.2
 _ZN4geos9algorithm15LineIntersector22isInteriorIntersectionEv@Base 3.4.2
 _ZN4geos9algorithm15LineIntersector27getIntersectionAlongSegmentEii@Base 3.4.2
 _ZN4geos9algorithm15LineIntersector28computeCollinearIntersectionERKNS_4geom10CoordinateES5_S5_S5_@Base 3.4.2
 _ZN4geos9algorithm15MinimumDiameter11getDiameterEv@Base 3.4.2
 _ZN4geos9algorithm15MinimumDiameter12getNextIndexEPKNS_4geom18CoordinateSequenceEj@Base 3.4.2
 _ZN4geos9algorithm15MinimumDiameter18computeWidthConvexEPKNS_4geom8GeometryE@Base 3.4.2
 _ZN4geos9algorithm15MinimumDiameter18getWidthCoordinateEv@Base 3.4.2
 _ZN4geos9algorithm15MinimumDiameter19findMaxPerpDistanceEPKNS_4geom18CoordinateSequenceEPNS2_11LineSegmentEj@Base 3.4.2
 _ZN4geos9algorithm15MinimumDiameter20getSupportingSegmentEv@Base 3.4.2
 _ZN4geos9algorithm15MinimumDiameter22computeMinimumDiameterEv@Base 3.4.2
 _ZN4geos9algorithm15MinimumDiameter28computeConvexRingMinDiameterEPKNS_4geom18CoordinateSequenceE@Base 3.4.2
 _ZN4geos9algorithm15MinimumDiameter9getLengthEv@Base 3.4.2
 _ZN4geos9algorithm15MinimumDiameterC1EPKNS_4geom8GeometryE@Base 3.4.2
 _ZN4geos9algorithm15MinimumDiameterC1EPKNS_4geom8GeometryEb@Base 3.4.2
 _ZN4geos9algorithm15MinimumDiameterC2EPKNS_4geom8GeometryE@Base 3.4.2
 _ZN4geos9algorithm15MinimumDiameterC2EPKNS_4geom8GeometryEb@Base 3.4.2
 _ZN4geos9algorithm15MinimumDiameterD1Ev@Base 3.4.2
 _ZN4geos9algorithm15MinimumDiameterD2Ev@Base 3.4.2
 _ZN4geos9algorithm16BoundaryNodeRule17getBoundaryOGCSFSEv@Base 3.4.2
 _ZN4geos9algorithm16BoundaryNodeRule19getBoundaryEndPointEv@Base 3.4.2
 _ZN4geos9algorithm16BoundaryNodeRule19getBoundaryRuleMod2Ev@Base 3.4.2
 _ZN4geos9algorithm16BoundaryNodeRule29getBoundaryMonovalentEndPointEv@Base 3.4.2
 _ZN4geos9algorithm16BoundaryNodeRule30getBoundaryMultivalentEndPointEv@Base 3.4.2
 _ZN4geos9algorithm17InteriorPointArea10addPolygonEPKNS_4geom8GeometryE@Base 3.4.2
 _ZN4geos9algorithm17InteriorPointArea14widestGeometryEPKNS_4geom18GeometryCollectionE@Base 3.4.2
 _ZN4geos9algorithm17InteriorPointArea14widestGeometryEPKNS_4geom8GeometryE@Base 3.4.2
 _ZN4geos9algorithm17InteriorPointArea18horizontalBisectorEPKNS_4geom8GeometryE@Base 3.4.2
 _ZN4geos9algorithm17InteriorPointArea3addEPKNS_4geom8GeometryE@Base 3.4.2
 _ZN4geos9algorithm17InteriorPointAreaC1EPKNS_4geom8GeometryE@Base 3.4.2
 _ZN4geos9algorithm17InteriorPointAreaC2EPKNS_4geom8GeometryE@Base 3.4.2
 _ZN4geos9algorithm17InteriorPointAreaD1Ev@Base 3.4.2
 _ZN4geos9algorithm17InteriorPointAreaD2Ev@Base 3.4.2
 _ZN4geos9algorithm17InteriorPointLine11addInteriorEPKNS_4geom18CoordinateSequenceE@Base 3.4.2
 _ZN4geos9algorithm17InteriorPointLine11addInteriorEPKNS_4geom8GeometryE@Base 3.4.2
 _ZN4geos9algorithm17InteriorPointLine12addEndpointsEPKNS_4geom18CoordinateSequenceE@Base 3.4.2
 _ZN4geos9algorithm17InteriorPointLine12addEndpointsEPKNS_4geom8GeometryE@Base 3.4.2
 _ZN4geos9algorithm17InteriorPointLine3addERKNS_4geom10CoordinateE@Base 3.4.2
 _ZN4geos9algorithm17InteriorPointLineC1EPKNS_4geom8GeometryE@Base 3.4.2
 _ZN4geos9algorithm17InteriorPointLineC2EPKNS_4geom8GeometryE@Base 3.4.2
 _ZN4geos9algorithm17InteriorPointLineD1Ev@Base 3.4.2
 _ZN4geos9algorithm17InteriorPointLineD2Ev@Base 3.4.2
 _ZN4geos9algorithm17RobustDeterminant12signOfDet2x2Edddd@Base 3.4.2
 _ZN4geos9algorithm17SimplePointInRing8isInsideERKNS_4geom10CoordinateE@Base 3.4.2
 _ZN4geos9algorithm17SimplePointInRingC1EPNS_4geom10LinearRingE@Base 3.4.2
 _ZN4geos9algorithm17SimplePointInRingC2EPNS_4geom10LinearRingE@Base 3.4.2
 _ZN4geos9algorithm17SimplePointInRingD0Ev@Base 3.4.2
 _ZN4geos9algorithm17SimplePointInRingD1Ev@Base 3.4.2
 _ZN4geos9algorithm17SimplePointInRingD2Ev@Base 3.4.2
 _ZN4geos9algorithm18InteriorPointPoint3addEPKNS_4geom10CoordinateE@Base 3.4.2
 _ZN4geos9algorithm18InteriorPointPoint3addEPKNS_4geom8GeometryE@Base 3.4.2
 _ZN4geos9algorithm18InteriorPointPointC1EPKNS_4geom8GeometryE@Base 3.4.2
 _ZN4geos9algorithm18InteriorPointPointC2EPKNS_4geom8GeometryE@Base 3.4.2
 _ZN4geos9algorithm18RayCrossingCounter11getLocationEv@Base 3.4.2
 _ZN4geos9algorithm18RayCrossingCounter12countSegmentERKNS_4geom10CoordinateES5_@Base 3.4.2
 _ZN4geos9algorithm18RayCrossingCounter16isPointInPolygonEv@Base 3.4.2
 _ZN4geos9algorithm18RayCrossingCounter16orientationIndexERKNS_4geom10CoordinateES5_S5_@Base 3.5.0
 _ZN4geos9algorithm18RayCrossingCounter17locatePointInRingERKNS_4geom10CoordinateERKNS2_18CoordinateSequenceE@Base 3.4.2
 _ZN4geos9algorithm18RayCrossingCounter17locatePointInRingERKNS_4geom10CoordinateERKSt6vectorIPS4_SaIS7_EE@Base 3.4.2
 _ZN4geos9algorithm18SIRtreePointInRing10buildIndexEv@Base 3.4.2
 _ZN4geos9algorithm18SIRtreePointInRing15testLineSegmentERKNS_4geom10CoordinateEPNS2_11LineSegmentE@Base 3.4.2
 _ZN4geos9algorithm18SIRtreePointInRing8isInsideERKNS_4geom10CoordinateE@Base 3.4.2
 _ZN4geos9algorithm18SIRtreePointInRingC1EPNS_4geom10LinearRingE@Base 3.4.2
 _ZN4geos9algorithm18SIRtreePointInRingC2EPNS_4geom10LinearRingE@Base 3.4.2
 _ZN4geos9algorithm18SIRtreePointInRingD0Ev@Base 3.4.2
 _ZN4geos9algorithm18SIRtreePointInRingD1Ev@Base 3.4.2
 _ZN4geos9algorithm18SIRtreePointInRingD2Ev@Base 3.4.2
 _ZN4geos9algorithm25NotRepresentableExceptionC1ENSt7__cxx1112basic_stringIcSt11char_traitsIcESaIcEEE@Base 3.4.2
 _ZN4geos9algorithm25NotRepresentableExceptionC1Ev@Base 3.4.2
 _ZN4geos9algorithm25NotRepresentableExceptionC2ENSt7__cxx1112basic_stringIcSt11char_traitsIcESaIcEEE@Base 3.4.2
 _ZN4geos9algorithm25NotRepresentableExceptionC2Ev@Base 3.4.2
 _ZN4geos9algorithm25NotRepresentableExceptionD0Ev@Base 3.4.2
 _ZN4geos9algorithm25NotRepresentableExceptionD1Ev@Base 3.4.2
 _ZN4geos9algorithm25NotRepresentableExceptionD2Ev@Base 3.4.2
 _ZN4geos9algorithm5Angle10PI_TIMES_2E@Base 3.4.2
 _ZN4geos9algorithm5Angle12angleBetweenERKNS_4geom10CoordinateES5_S5_@Base 3.4.2
 _ZN4geos9algorithm5Angle13interiorAngleERKNS_4geom10CoordinateES5_S5_@Base 3.4.2
 _ZN4geos9algorithm5Angle17normalizePositiveEd@Base 3.4.2
 _ZN4geos9algorithm5Angle20angleBetweenOrientedERKNS_4geom10CoordinateES5_S5_@Base 3.4.2
 _ZN4geos9algorithm5Angle4diffEdd@Base 3.4.2
 _ZN4geos9algorithm5Angle5angleERKNS_4geom10CoordinateE@Base 3.4.2
 _ZN4geos9algorithm5Angle5angleERKNS_4geom10CoordinateES5_@Base 3.4.2
 _ZN4geos9algorithm5Angle7getTurnEdd@Base 3.4.2
 _ZN4geos9algorithm5Angle7isAcuteERKNS_4geom10CoordinateES5_S5_@Base 3.4.2
 _ZN4geos9algorithm5Angle8isObtuseERKNS_4geom10CoordinateES5_S5_@Base 3.4.2
 _ZN4geos9algorithm5Angle9PI_OVER_2E@Base 3.4.2
 _ZN4geos9algorithm5Angle9PI_OVER_4E@Base 3.4.2
 _ZN4geos9algorithm5Angle9normalizeEd@Base 3.4.2
 _ZN4geos9algorithm5Angle9toDegreesEd@Base 3.4.2
 _ZN4geos9algorithm5Angle9toRadiansEd@Base 3.4.2
 _ZN4geos9algorithm6locate24SimplePointInAreaLocator13containsPointERKNS_4geom10CoordinateEPKNS3_8GeometryE@Base 3.4.2
 _ZN4geos9algorithm6locate24SimplePointInAreaLocator22containsPointInPolygonERKNS_4geom10CoordinateEPKNS3_7PolygonE@Base 3.4.2
 _ZN4geos9algorithm6locate24SimplePointInAreaLocator6locateEPKNS_4geom10CoordinateE@Base 3.4.2
 _ZN4geos9algorithm6locate24SimplePointInAreaLocator6locateERKNS_4geom10CoordinateEPKNS3_8GeometryE@Base 3.4.2
 _ZN4geos9algorithm6locate25IndexedPointInAreaLocator10buildIndexERKNS_4geom8GeometryE@Base 3.4.2
 _ZN4geos9algorithm6locate25IndexedPointInAreaLocator14SegmentVisitor9visitItemEPv@Base 3.4.2
 _ZN4geos9algorithm6locate25IndexedPointInAreaLocator14SegmentVisitorD0Ev@Base 3.4.2
 _ZN4geos9algorithm6locate25IndexedPointInAreaLocator14SegmentVisitorD1Ev@Base 3.4.2
 _ZN4geos9algorithm6locate25IndexedPointInAreaLocator14SegmentVisitorD2Ev@Base 3.4.2
 _ZN4geos9algorithm6locate25IndexedPointInAreaLocator23IntervalIndexedGeometry4initERKNS_4geom8GeometryE@Base 3.4.2
 _ZN4geos9algorithm6locate25IndexedPointInAreaLocator23IntervalIndexedGeometry5queryEddPNS_5index11ItemVisitorE@Base 3.4.2
 _ZN4geos9algorithm6locate25IndexedPointInAreaLocator23IntervalIndexedGeometry7addLineEPNS_4geom18CoordinateSequenceE@Base 3.4.2
 _ZN4geos9algorithm6locate25IndexedPointInAreaLocator23IntervalIndexedGeometryC1ERKNS_4geom8GeometryE@Base 3.4.2
 _ZN4geos9algorithm6locate25IndexedPointInAreaLocator23IntervalIndexedGeometryC2ERKNS_4geom8GeometryE@Base 3.4.2
 _ZN4geos9algorithm6locate25IndexedPointInAreaLocator23IntervalIndexedGeometryD1Ev@Base 3.4.2
 _ZN4geos9algorithm6locate25IndexedPointInAreaLocator23IntervalIndexedGeometryD2Ev@Base 3.4.2
 _ZN4geos9algorithm6locate25IndexedPointInAreaLocator6locateEPKNS_4geom10CoordinateE@Base 3.4.2
 _ZN4geos9algorithm6locate25IndexedPointInAreaLocatorC1ERKNS_4geom8GeometryE@Base 3.4.2
 _ZN4geos9algorithm6locate25IndexedPointInAreaLocatorC2ERKNS_4geom8GeometryE@Base 3.4.2
 _ZN4geos9algorithm6locate25IndexedPointInAreaLocatorD0Ev@Base 3.4.2
 _ZN4geos9algorithm6locate25IndexedPointInAreaLocatorD1Ev@Base 3.4.2
 _ZN4geos9algorithm6locate25IndexedPointInAreaLocatorD2Ev@Base 3.4.2
 _ZN4geos9algorithm8Centroid11addTriangleERKNS_4geom10CoordinateES5_S5_b@Base 3.4.2
 _ZN4geos9algorithm8Centroid11getCentroidERKNS_4geom8GeometryERNS2_10CoordinateE@Base 3.4.2
 _ZN4geos9algorithm8Centroid12setBasePointERKNS_4geom10CoordinateE@Base 3.4.2
 _ZN4geos9algorithm8Centroid15addLineSegmentsERKNS_4geom18CoordinateSequenceE@Base 3.4.2
 _ZN4geos9algorithm8Centroid3addERKNS_4geom7PolygonE@Base 3.4.2
 _ZN4geos9algorithm8Centroid3addERKNS_4geom8GeometryE@Base 3.4.2
 _ZN4geos9algorithm8Centroid5area2ERKNS_4geom10CoordinateES5_S5_@Base 3.4.2
 _ZN4geos9algorithm8Centroid7addHoleERKNS_4geom18CoordinateSequenceE@Base 3.4.2
 _ZN4geos9algorithm8Centroid8addPointERKNS_4geom10CoordinateE@Base 3.4.2
 _ZN4geos9algorithm8Centroid8addShellERKNS_4geom18CoordinateSequenceE@Base 3.4.2
 _ZN4geos9algorithm8Centroid9centroid3ERKNS_4geom10CoordinateES5_S5_RS3_@Base 3.4.2
 _ZN4geos9algorithm8distance15DistanceToPoint15computeDistanceERKNS_4geom10LineStringERKNS3_10CoordinateERNS1_17PointPairDistanceE@Base 3.4.2
 _ZN4geos9algorithm8distance15DistanceToPoint15computeDistanceERKNS_4geom11LineSegmentERKNS3_10CoordinateERNS1_17PointPairDistanceE@Base 3.4.2
 _ZN4geos9algorithm8distance15DistanceToPoint15computeDistanceERKNS_4geom7PolygonERKNS3_10CoordinateERNS1_17PointPairDistanceE@Base 3.4.2
 _ZN4geos9algorithm8distance15DistanceToPoint15computeDistanceERKNS_4geom8GeometryERKNS3_10CoordinateERNS1_17PointPairDistanceE@Base 3.4.2
 _ZN4geos9algorithm8distance25DiscreteHausdorffDistance22MaxPointDistanceFilter9filter_roEPKNS_4geom10CoordinateE@Base 3.4.2
 _ZN4geos9algorithm8distance25DiscreteHausdorffDistance22MaxPointDistanceFilterD0Ev@Base 3.4.2
 _ZN4geos9algorithm8distance25DiscreteHausdorffDistance22MaxPointDistanceFilterD1Ev@Base 3.4.2
 _ZN4geos9algorithm8distance25DiscreteHausdorffDistance22MaxPointDistanceFilterD2Ev@Base 3.4.2
 _ZN4geos9algorithm8distance25DiscreteHausdorffDistance23computeOrientedDistanceERKNS_4geom8GeometryES6_RNS1_17PointPairDistanceE@Base 3.4.2
 _ZN4geos9algorithm8distance25DiscreteHausdorffDistance36MaxDensifiedByFractionDistanceFilter9filter_roERKNS_4geom18CoordinateSequenceEm@Base 3.5.0
 _ZN4geos9algorithm8distance25DiscreteHausdorffDistance36MaxDensifiedByFractionDistanceFilterD0Ev@Base 3.4.2
 _ZN4geos9algorithm8distance25DiscreteHausdorffDistance36MaxDensifiedByFractionDistanceFilterD1Ev@Base 3.4.2
 _ZN4geos9algorithm8distance25DiscreteHausdorffDistance36MaxDensifiedByFractionDistanceFilterD2Ev@Base 3.4.2
 _ZN4geos9algorithm8distance25DiscreteHausdorffDistance8distanceERKNS_4geom8GeometryES6_@Base 3.4.2
 _ZN4geos9algorithm8distance25DiscreteHausdorffDistance8distanceERKNS_4geom8GeometryES6_d@Base 3.4.2
 _ZN4geos9algorithmlsERSoRKNS0_11HCoordinateE@Base 3.4.2
 _ZN4geos9geomgraph11EdgeEndStar11getLocationEiRKNS_4geom10CoordinateEPSt6vectorIPNS0_13GeometryGraphESaIS8_EE@Base 3.4.2
 _ZN4geos9geomgraph11EdgeEndStar13getCoordinateEv@Base 3.4.2
 _ZN4geos9geomgraph11EdgeEndStar13insertEdgeEndEPNS0_7EdgeEndE@Base 3.4.2
 _ZN4geos9geomgraph11EdgeEndStar16computeLabellingEPSt6vectorIPNS0_13GeometryGraphESaIS4_EE@Base 3.4.2
 _ZN4geos9geomgraph11EdgeEndStar19propagateSideLabelsEi@Base 3.4.2
 _ZN4geos9geomgraph11EdgeEndStar20computeEdgeEndLabelsERKNS_9algorithm16BoundaryNodeRuleE@Base 3.4.2
 _ZN4geos9geomgraph11EdgeEndStar22isAreaLabelsConsistentERKNS0_13GeometryGraphE@Base 3.4.2
 _ZN4geos9geomgraph11EdgeEndStar25checkAreaLabelsConsistentEi@Base 3.4.2
 _ZN4geos9geomgraph11EdgeEndStar3endEv@Base 3.4.2
 _ZN4geos9geomgraph11EdgeEndStar4findEPNS0_7EdgeEndE@Base 3.4.2
 _ZN4geos9geomgraph11EdgeEndStar4rendEv@Base 3.4.2
 _ZN4geos9geomgraph11EdgeEndStar5beginEv@Base 3.4.2
 _ZN4geos9geomgraph11EdgeEndStar5printB5cxx11Ev@Base 3.4.2
 _ZN4geos9geomgraph11EdgeEndStar6rbeginEv@Base 3.4.2
 _ZN4geos9geomgraph11EdgeEndStar8getEdgesEv@Base 3.4.2
 _ZN4geos9geomgraph11EdgeEndStar9getDegreeEv@Base 3.4.2
 _ZN4geos9geomgraph11EdgeEndStar9getNextCWEPNS0_7EdgeEndE@Base 3.4.2
 _ZN4geos9geomgraph11EdgeEndStarC1Ev@Base 3.4.2
 _ZN4geos9geomgraph11EdgeEndStarC2Ev@Base 3.4.2
 _ZN4geos9geomgraph11NodeFactory8instanceEv@Base 3.4.2
 _ZN4geos9geomgraph11NodeFactoryD0Ev@Base 3.4.2
 _ZN4geos9geomgraph11NodeFactoryD1Ev@Base 3.4.2
 _ZN4geos9geomgraph11NodeFactoryD2Ev@Base 3.4.2
 _ZN4geos9geomgraph11PlanarGraph10getNodeMapEv@Base 3.4.2
 _ZN4geos9geomgraph11PlanarGraph10insertEdgeEPNS0_4EdgeE@Base 3.4.2
 _ZN4geos9geomgraph11PlanarGraph10printEdgesB5cxx11Ev@Base 3.4.2
 _ZN4geos9geomgraph11PlanarGraph11findEdgeEndEPNS0_4EdgeE@Base 3.4.2
 _ZN4geos9geomgraph11PlanarGraph11getEdgeEndsEv@Base 3.4.2
 _ZN4geos9geomgraph11PlanarGraph14isBoundaryNodeEiRKNS_4geom10CoordinateE@Base 3.4.2
 _ZN4geos9geomgraph11PlanarGraph15getEdgeIteratorEv@Base 3.4.2
 _ZN4geos9geomgraph11PlanarGraph15getNodeIteratorEv@Base 3.4.2
 _ZN4geos9geomgraph11PlanarGraph20linkAllDirectedEdgesEv@Base 3.4.2
 _ZN4geos9geomgraph11PlanarGraph20matchInSameDirectionERKNS_4geom10CoordinateES5_S5_S5_@Base 3.4.2
 _ZN4geos9geomgraph11PlanarGraph23findEdgeInSameDirectionERKNS_4geom10CoordinateES5_@Base 3.4.2
 _ZN4geos9geomgraph11PlanarGraph23linkResultDirectedEdgesEv@Base 3.4.2
 _ZN4geos9geomgraph11PlanarGraph3addEPNS0_7EdgeEndE@Base 3.4.2
 _ZN4geos9geomgraph11PlanarGraph4findERNS_4geom10CoordinateE@Base 3.4.2
 _ZN4geos9geomgraph11PlanarGraph7addNodeEPNS0_4NodeE@Base 3.4.2
 _ZN4geos9geomgraph11PlanarGraph7addNodeERKNS_4geom10CoordinateE@Base 3.4.2
 _ZN4geos9geomgraph11PlanarGraph8addEdgesERKSt6vectorIPNS0_4EdgeESaIS4_EE@Base 3.4.2
 _ZN4geos9geomgraph11PlanarGraph8findEdgeERKNS_4geom10CoordinateES5_@Base 3.4.2
 _ZN4geos9geomgraph11PlanarGraph8getNodesERSt6vectorIPNS0_4NodeESaIS4_EE@Base 3.4.2
 _ZN4geos9geomgraph11PlanarGraphC1ERKNS0_11NodeFactoryE@Base 3.4.2
 _ZN4geos9geomgraph11PlanarGraphC1Ev@Base 3.4.2
 _ZN4geos9geomgraph11PlanarGraphC2ERKNS0_11NodeFactoryE@Base 3.4.2
 _ZN4geos9geomgraph11PlanarGraphC2Ev@Base 3.4.2
 _ZN4geos9geomgraph11PlanarGraphD0Ev@Base 3.4.2
 _ZN4geos9geomgraph11PlanarGraphD1Ev@Base 3.4.2
 _ZN4geos9geomgraph11PlanarGraphD2Ev@Base 3.4.2
 _ZN4geos9geomgraph12DirectedEdge10getNextMinEv@Base 3.4.2
 _ZN4geos9geomgraph12DirectedEdge10isInResultEv@Base 3.4.2
 _ZN4geos9geomgraph12DirectedEdge10isLineEdgeEv@Base 3.4.2
 _ZN4geos9geomgraph12DirectedEdge10setNextMinEPS1_@Base 3.4.2
 _ZN4geos9geomgraph12DirectedEdge10setVisitedEb@Base 3.4.2
 _ZN4geos9geomgraph12DirectedEdge11depthFactorEii@Base 3.4.2
 _ZN4geos9geomgraph12DirectedEdge11getEdgeRingEv@Base 3.4.2
 _ZN4geos9geomgraph12DirectedEdge11setEdgeRingEPNS0_8EdgeRingE@Base 3.4.2
 _ZN4geos9geomgraph12DirectedEdge11setInResultEb@Base 3.4.2
 _ZN4geos9geomgraph12DirectedEdge13getDepthDeltaEv@Base 3.4.2
 _ZN4geos9geomgraph12DirectedEdge13setEdgeDepthsEii@Base 3.4.2
 _ZN4geos9geomgraph12DirectedEdge14getMinEdgeRingEv@Base 3.4.2
 _ZN4geos9geomgraph12DirectedEdge14setMinEdgeRingEPNS0_8EdgeRingE@Base 3.4.2
 _ZN4geos9geomgraph12DirectedEdge14setVisitedEdgeEb@Base 3.4.2
 _ZN4geos9geomgraph12DirectedEdge18isInteriorAreaEdgeEv@Base 3.4.2
 _ZN4geos9geomgraph12DirectedEdge20computeDirectedLabelEv@Base 3.4.2
 _ZN4geos9geomgraph12DirectedEdge5printB5cxx11Ev@Base 3.4.2
 _ZN4geos9geomgraph12DirectedEdge6getSymEv@Base 3.4.2
 _ZN4geos9geomgraph12DirectedEdge6setSymEPS1_@Base 3.4.2
 _ZN4geos9geomgraph12DirectedEdge7getNextEv@Base 3.4.2
 _ZN4geos9geomgraph12DirectedEdge7setNextEPS1_@Base 3.4.2
 _ZN4geos9geomgraph12DirectedEdge8getDepthEi@Base 3.4.2
 _ZN4geos9geomgraph12DirectedEdge8setDepthEii@Base 3.4.2
 _ZN4geos9geomgraph12DirectedEdge9isForwardEv@Base 3.4.2
 _ZN4geos9geomgraph12DirectedEdge9isVisitedEv@Base 3.4.2
 _ZN4geos9geomgraph12DirectedEdge9printEdgeB5cxx11Ev@Base 3.4.2
 _ZN4geos9geomgraph12DirectedEdgeC1EPNS0_4EdgeEb@Base 3.4.2
 _ZN4geos9geomgraph12DirectedEdgeC2EPNS0_4EdgeEb@Base 3.4.2
 _ZN4geos9geomgraph12DirectedEdgeD0Ev@Base 3.4.2
 _ZN4geos9geomgraph12DirectedEdgeD1Ev@Base 3.4.2
 _ZN4geos9geomgraph12DirectedEdgeD2Ev@Base 3.4.2
 _ZN4geos9geomgraph13GeometryGraph10addPolygonEPKNS_4geom7PolygonE@Base 3.4.2
 _ZN4geos9geomgraph13GeometryGraph11getGeometryEv@Base 3.4.2
 _ZN4geos9geomgraph13GeometryGraph11insertPointEiRKNS_4geom10CoordinateEi@Base 3.4.2
 _ZN4geos9geomgraph13GeometryGraph12isInBoundaryEi@Base 3.4.2
 _ZN4geos9geomgraph13GeometryGraph13addCollectionEPKNS_4geom18GeometryCollectionE@Base 3.4.2
 _ZN4geos9geomgraph13GeometryGraph13addLineStringEPKNS_4geom10LineStringE@Base 3.4.2
 _ZN4geos9geomgraph13GeometryGraph14addPolygonRingEPKNS_4geom10LinearRingEii@Base 3.4.2
 _ZN4geos9geomgraph13GeometryGraph15getInvalidPointEv@Base 3.4.2
 _ZN4geos9geomgraph13GeometryGraph15hasTooFewPointsEv@Base 3.4.2
 _ZN4geos9geomgraph13GeometryGraph16computeSelfNodesERNS_9algorithm15LineIntersectorEbPKNS_4geom8EnvelopeE@Base 3.5.0
 _ZN4geos9geomgraph13GeometryGraph16getBoundaryNodesERSt6vectorIPNS0_4NodeESaIS4_EE@Base 3.4.2
 _ZN4geos9geomgraph13GeometryGraph16getBoundaryNodesEv@Base 3.4.2
 _ZN4geos9geomgraph13GeometryGraph17computeSplitEdgesEPSt6vectorIPNS0_4EdgeESaIS4_EE@Base 3.4.2
 _ZN4geos9geomgraph13GeometryGraph17determineBoundaryERKNS_9algorithm16BoundaryNodeRuleEi@Base 3.4.2
 _ZN4geos9geomgraph13GeometryGraph17determineBoundaryEi@Base 3.4.2
 _ZN4geos9geomgraph13GeometryGraph17getBoundaryPointsEv@Base 3.4.2
 _ZN4geos9geomgraph13GeometryGraph19insertBoundaryPointEiRKNS_4geom10CoordinateE@Base 3.4.2
 _ZN4geos9geomgraph13GeometryGraph23addSelfIntersectionNodeEiRKNS_4geom10CoordinateEi@Base 3.4.2
 _ZN4geos9geomgraph13GeometryGraph24addSelfIntersectionNodesEi@Base 3.4.2
 _ZN4geos9geomgraph13GeometryGraph24computeEdgeIntersectionsEPS1_PNS_9algorithm15LineIntersectorEbPKNS_4geom8EnvelopeE@Base 3.5.0
 _ZN4geos9geomgraph13GeometryGraph24createEdgeSetIntersectorEv@Base 3.4.2
 _ZN4geos9geomgraph13GeometryGraph3addEPKNS_4geom8GeometryE@Base 3.4.2
 _ZN4geos9geomgraph13GeometryGraph7addEdgeEPNS0_4EdgeE@Base 3.4.2
 _ZN4geos9geomgraph13GeometryGraph8addPointEPKNS_4geom5PointE@Base 3.4.2
 _ZN4geos9geomgraph13GeometryGraph8addPointERNS_4geom10CoordinateE@Base 3.4.2
 _ZN4geos9geomgraph13GeometryGraph8findEdgeEPKNS_4geom10LineStringE@Base 3.4.2
 _ZN4geos9geomgraph13GeometryGraph8getEdgesEv@Base 3.4.2
 _ZN4geos9geomgraph13GeometryGraphC1EiPKNS_4geom8GeometryE@Base 3.4.2
 _ZN4geos9geomgraph13GeometryGraphC1EiPKNS_4geom8GeometryERKNS_9algorithm16BoundaryNodeRuleE@Base 3.4.2
 _ZN4geos9geomgraph13GeometryGraphC1Ev@Base 3.4.2
 _ZN4geos9geomgraph13GeometryGraphC2EiPKNS_4geom8GeometryE@Base 3.4.2
 _ZN4geos9geomgraph13GeometryGraphC2EiPKNS_4geom8GeometryERKNS_9algorithm16BoundaryNodeRuleE@Base 3.4.2
 _ZN4geos9geomgraph13GeometryGraphC2Ev@Base 3.4.2
 _ZN4geos9geomgraph13GeometryGraphD0Ev@Base 3.4.2
 _ZN4geos9geomgraph13GeometryGraphD1Ev@Base 3.4.2
 _ZN4geos9geomgraph13GeometryGraphD2Ev@Base 3.4.2
 _ZN4geos9geomgraph14GraphComponent10setCoveredEb@Base 3.4.2
 _ZN4geos9geomgraph14GraphComponent10setVisitedEb@Base 3.4.2
 _ZN4geos9geomgraph14GraphComponent11setInResultEb@Base 3.4.2
 _ZN4geos9geomgraph14GraphComponent8updateIMERNS_4geom18IntersectionMatrixE@Base 3.4.2
 _ZN4geos9geomgraph14GraphComponentC1ERKNS0_5LabelE@Base 3.4.2
 _ZN4geos9geomgraph14GraphComponentC1Ev@Base 3.4.2
 _ZN4geos9geomgraph14GraphComponentC2ERKNS0_5LabelE@Base 3.4.2
 _ZN4geos9geomgraph14GraphComponentC2Ev@Base 3.4.2
 _ZN4geos9geomgraph14GraphComponentD0Ev@Base 3.4.2
 _ZN4geos9geomgraph14GraphComponentD1Ev@Base 3.4.2
 _ZN4geos9geomgraph14GraphComponentD2Ev@Base 3.4.2
 _ZN4geos9geomgraph16DirectedEdgeStar13computeDepthsEPNS0_12DirectedEdgeE@Base 3.4.2
 _ZN4geos9geomgraph16DirectedEdgeStar13computeDepthsESt23_Rb_tree_const_iteratorIPNS0_7EdgeEndEES5_i@Base 3.4.2
 _ZN4geos9geomgraph16DirectedEdgeStar14mergeSymLabelsEv@Base 3.4.2
 _ZN4geos9geomgraph16DirectedEdgeStar15updateLabellingERKNS0_5LabelE@Base 3.4.2
 _ZN4geos9geomgraph16DirectedEdgeStar16computeLabellingEPSt6vectorIPNS0_13GeometryGraphESaIS4_EE@Base 3.4.2
 _ZN4geos9geomgraph16DirectedEdgeStar16getRightmostEdgeEv@Base 3.4.2
 _ZN4geos9geomgraph16DirectedEdgeStar17getOutgoingDegreeEPNS0_8EdgeRingE@Base 3.4.2
 _ZN4geos9geomgraph16DirectedEdgeStar17getOutgoingDegreeEv@Base 3.4.2
 _ZN4geos9geomgraph16DirectedEdgeStar18getResultAreaEdgesEv@Base 3.4.2
 _ZN4geos9geomgraph16DirectedEdgeStar20findCoveredLineEdgesEv@Base 3.4.2
 _ZN4geos9geomgraph16DirectedEdgeStar20linkAllDirectedEdgesEv@Base 3.4.2
 _ZN4geos9geomgraph16DirectedEdgeStar23linkResultDirectedEdgesEv@Base 3.4.2
 _ZN4geos9geomgraph16DirectedEdgeStar24linkMinimalDirectedEdgesEPNS0_8EdgeRingE@Base 3.4.2
 _ZN4geos9geomgraph16DirectedEdgeStar5printB5cxx11Ev@Base 3.4.2
 _ZN4geos9geomgraph16DirectedEdgeStar6insertEPNS0_7EdgeEndE@Base 3.4.2
 _ZN4geos9geomgraph16DirectedEdgeStarD0Ev@Base 3.4.2
 _ZN4geos9geomgraph16DirectedEdgeStarD1Ev@Base 3.4.2
 _ZN4geos9geomgraph16DirectedEdgeStarD2Ev@Base 3.4.2
 _ZN4geos9geomgraph16TopologyLocation11setLocationEi@Base 3.4.2
 _ZN4geos9geomgraph16TopologyLocation11setLocationEmi@Base 3.5.0
 _ZN4geos9geomgraph16TopologyLocation12setLocationsEiii@Base 3.4.2
 _ZN4geos9geomgraph16TopologyLocation15setAllLocationsEi@Base 3.4.2
 _ZN4geos9geomgraph16TopologyLocation21setAllLocationsIfNullEi@Base 3.4.2
 _ZN4geos9geomgraph16TopologyLocation4flipEv@Base 3.4.2
 _ZN4geos9geomgraph16TopologyLocation5mergeERKS1_@Base 3.4.2
 _ZN4geos9geomgraph16TopologyLocationC1ERKS1_@Base 3.4.2
 _ZN4geos9geomgraph16TopologyLocationC1ERKSt6vectorIiSaIiEE@Base 3.4.2
 _ZN4geos9geomgraph16TopologyLocationC1Ei@Base 3.4.2
 _ZN4geos9geomgraph16TopologyLocationC1Eiii@Base 3.4.2
 _ZN4geos9geomgraph16TopologyLocationC1Ev@Base 3.4.2
 _ZN4geos9geomgraph16TopologyLocationC2ERKS1_@Base 3.4.2
 _ZN4geos9geomgraph16TopologyLocationC2ERKSt6vectorIiSaIiEE@Base 3.4.2
 _ZN4geos9geomgraph16TopologyLocationC2Ei@Base 3.4.2
 _ZN4geos9geomgraph16TopologyLocationC2Eiii@Base 3.4.2
 _ZN4geos9geomgraph16TopologyLocationC2Ev@Base 3.4.2
 _ZN4geos9geomgraph16TopologyLocationD1Ev@Base 3.4.2
 _ZN4geos9geomgraph16TopologyLocationD2Ev@Base 3.4.2
 _ZN4geos9geomgraph16TopologyLocationaSERKS1_@Base 3.4.2
 _ZN4geos9geomgraph19EdgeNodingValidator16toSegmentStringsERSt6vectorIPNS0_4EdgeESaIS4_EE@Base 3.4.2
 _ZN4geos9geomgraph19EdgeNodingValidatorD1Ev@Base 3.4.2
 _ZN4geos9geomgraph19EdgeNodingValidatorD2Ev@Base 3.4.2
 _ZN4geos9geomgraph20EdgeIntersectionList12addEndpointsEv@Base 3.4.2
 _ZN4geos9geomgraph20EdgeIntersectionList13addSplitEdgesEPSt6vectorIPNS0_4EdgeESaIS4_EE@Base 3.4.2
 _ZN4geos9geomgraph20EdgeIntersectionList15createSplitEdgeEPNS0_16EdgeIntersectionES3_@Base 3.4.2
 _ZN4geos9geomgraph20EdgeIntersectionList3addERKNS_4geom10CoordinateEid@Base 3.4.2
 _ZN4geos9geomgraph20EdgeIntersectionListC1EPNS0_4EdgeE@Base 3.4.2
 _ZN4geos9geomgraph20EdgeIntersectionListC2EPNS0_4EdgeE@Base 3.4.2
 _ZN4geos9geomgraph20EdgeIntersectionListD1Ev@Base 3.4.2
 _ZN4geos9geomgraph20EdgeIntersectionListD2Ev@Base 3.4.2
 _ZN4geos9geomgraph26collect_intersecting_edgesIN9__gnu_cxx17__normal_iteratorIPPNS0_4EdgeESt6vectorIS5_SaIS5_EEEES9_EEvPKNS_4geom8EnvelopeET_SF_RT0_@Base 3.5.0
 _ZN4geos9geomgraph4Edge11getEnvelopeEv@Base 3.4.2
 _ZN4geos9geomgraph4Edge11setIsolatedEb@Base 3.4.2
 _ZN4geos9geomgraph4Edge13setDepthDeltaEi@Base 3.4.2
 _ZN4geos9geomgraph4Edge15addIntersectionEPNS_9algorithm15LineIntersectorEiii@Base 3.4.2
 _ZN4geos9geomgraph4Edge16addIntersectionsEPNS_9algorithm15LineIntersectorEii@Base 3.4.2
 _ZN4geos9geomgraph4Edge16getCollapsedEdgeEv@Base 3.4.2
 _ZN4geos9geomgraph4Edge20getMonotoneChainEdgeEv@Base 3.4.2
 _ZN4geos9geomgraph4Edge23getEdgeIntersectionListEv@Base 3.4.2
 _ZN4geos9geomgraph4Edge7setNameERKNSt7__cxx1112basic_stringIcSt11char_traitsIcESaIcEEE@Base 3.4.2
 _ZN4geos9geomgraph4Edge8getDepthEv@Base 3.4.2
 _ZN4geos9geomgraph4Edge8updateIMERKNS0_5LabelERNS_4geom18IntersectionMatrixE@Base 3.4.2
 _ZN4geos9geomgraph4Edge9computeIMERNS_4geom18IntersectionMatrixE@Base 3.4.2
 _ZN4geos9geomgraph4EdgeC1EPNS_4geom18CoordinateSequenceE@Base 3.4.2
 _ZN4geos9geomgraph4EdgeC1EPNS_4geom18CoordinateSequenceERKNS0_5LabelE@Base 3.4.2
 _ZN4geos9geomgraph4EdgeC2EPNS_4geom18CoordinateSequenceE@Base 3.4.2
 _ZN4geos9geomgraph4EdgeC2EPNS_4geom18CoordinateSequenceERKNS0_5LabelE@Base 3.4.2
 _ZN4geos9geomgraph4EdgeD0Ev@Base 3.4.2
 _ZN4geos9geomgraph4EdgeD1Ev@Base 3.4.2
 _ZN4geos9geomgraph4EdgeD2Ev@Base 3.4.2
 _ZN4geos9geomgraph4Node10mergeLabelERKNS0_5LabelE@Base 3.4.2
 _ZN4geos9geomgraph4Node10mergeLabelERKS1_@Base 3.4.2
 _ZN4geos9geomgraph4Node16setLabelBoundaryEi@Base 3.4.2
 _ZN4geos9geomgraph4Node21computeMergedLocationERKNS0_5LabelEi@Base 3.4.2
 _ZN4geos9geomgraph4Node3addEPNS0_7EdgeEndE@Base 3.4.2
 _ZN4geos9geomgraph4Node4addZEd@Base 3.4.2
 _ZN4geos9geomgraph4Node5printB5cxx11Ev@Base 3.4.2
 _ZN4geos9geomgraph4Node8getEdgesEv@Base 3.4.2
 _ZN4geos9geomgraph4Node8setLabelEii@Base 3.4.2
 _ZN4geos9geomgraph4Node9computeIMERNS_4geom18IntersectionMatrixE@Base 3.4.2
 _ZN4geos9geomgraph4NodeC1ERKNS_4geom10CoordinateEPNS0_11EdgeEndStarE@Base 3.4.2
 _ZN4geos9geomgraph4NodeC2ERKNS_4geom10CoordinateEPNS0_11EdgeEndStarE@Base 3.4.2
 _ZN4geos9geomgraph4NodeD0Ev@Base 3.4.2
 _ZN4geos9geomgraph4NodeD1Ev@Base 3.4.2
 _ZN4geos9geomgraph4NodeD2Ev@Base 3.4.2
 _ZN4geos9geomgraph5Depth15depthAtLocationEi@Base 3.4.2
 _ZN4geos9geomgraph5Depth3addERKNS0_5LabelE@Base 3.4.2
 _ZN4geos9geomgraph5Depth3addEiii@Base 3.4.2
 _ZN4geos9geomgraph5Depth8setDepthEiii@Base 3.4.2
 _ZN4geos9geomgraph5Depth9normalizeEv@Base 3.4.2
 _ZN4geos9geomgraph5DepthC1Ev@Base 3.4.2
 _ZN4geos9geomgraph5DepthC2Ev@Base 3.4.2
 _ZN4geos9geomgraph5DepthD0Ev@Base 3.4.2
 _ZN4geos9geomgraph5DepthD1Ev@Base 3.4.2
 _ZN4geos9geomgraph5DepthD2Ev@Base 3.4.2
 _ZN4geos9geomgraph5Label11setLocationEii@Base 3.4.2
 _ZN4geos9geomgraph5Label11setLocationEiii@Base 3.4.2
 _ZN4geos9geomgraph5Label11toLineLabelERKS1_@Base 3.4.2
 _ZN4geos9geomgraph5Label15setAllLocationsEii@Base 3.4.2
 _ZN4geos9geomgraph5Label21setAllLocationsIfNullEi@Base 3.4.2
 _ZN4geos9geomgraph5Label21setAllLocationsIfNullEii@Base 3.4.2
 _ZN4geos9geomgraph5Label4flipEv@Base 3.4.2
 _ZN4geos9geomgraph5Label5mergeERKS1_@Base 3.4.2
 _ZN4geos9geomgraph5Label6toLineEi@Base 3.4.2
 _ZN4geos9geomgraph5LabelC1ERKS1_@Base 3.4.2
 _ZN4geos9geomgraph5LabelC1Ei@Base 3.4.2
 _ZN4geos9geomgraph5LabelC1Eii@Base 3.4.2
 _ZN4geos9geomgraph5LabelC1Eiii@Base 3.4.2
 _ZN4geos9geomgraph5LabelC1Eiiii@Base 3.4.2
 _ZN4geos9geomgraph5LabelC1Ev@Base 3.4.2
 _ZN4geos9geomgraph5LabelC2ERKS1_@Base 3.4.2
 _ZN4geos9geomgraph5LabelC2Ei@Base 3.4.2
 _ZN4geos9geomgraph5LabelC2Eii@Base 3.4.2
 _ZN4geos9geomgraph5LabelC2Eiii@Base 3.4.2
 _ZN4geos9geomgraph5LabelC2Eiiii@Base 3.4.2
 _ZN4geos9geomgraph5LabelC2Ev@Base 3.4.2
 _ZN4geos9geomgraph5LabelaSERKS1_@Base 3.4.2
 _ZN4geos9geomgraph5index13MonotoneChainD0Ev@Base 3.4.2
 _ZN4geos9geomgraph5index13MonotoneChainD1Ev@Base 3.4.2
 _ZN4geos9geomgraph5index13MonotoneChainD2Ev@Base 3.4.2
 _ZN4geos9geomgraph5index14SweepLineEvent5printB5cxx11Ev@Base 3.4.2
 _ZN4geos9geomgraph5index14SweepLineEvent9compareToEPS2_@Base 3.4.2
 _ZN4geos9geomgraph5index14SweepLineEventC1EPvdPS2_PNS1_17SweepLineEventOBJE@Base 3.4.2
 _ZN4geos9geomgraph5index14SweepLineEventC2EPvdPS2_PNS1_17SweepLineEventOBJE@Base 3.4.2
 _ZN4geos9geomgraph5index14SweepLineEventD0Ev@Base 3.4.2
 _ZN4geos9geomgraph5index14SweepLineEventD1Ev@Base 3.4.2
 _ZN4geos9geomgraph5index14SweepLineEventD2Ev@Base 3.4.2
 _ZN4geos9geomgraph5index16SweepLineSegment20computeIntersectionsEPS2_PNS1_18SegmentIntersectorE@Base 3.4.2
 _ZN4geos9geomgraph5index16SweepLineSegment7getMaxXEv@Base 3.4.2
 _ZN4geos9geomgraph5index16SweepLineSegment7getMinXEv@Base 3.4.2
 _ZN4geos9geomgraph5index16SweepLineSegmentC1EPNS0_4EdgeEi@Base 3.4.2
 _ZN4geos9geomgraph5index16SweepLineSegmentC2EPNS0_4EdgeEi@Base 3.4.2
 _ZN4geos9geomgraph5index16SweepLineSegmentD0Ev@Base 3.4.2
 _ZN4geos9geomgraph5index16SweepLineSegmentD1Ev@Base 3.4.2
 _ZN4geos9geomgraph5index16SweepLineSegmentD2Ev@Base 3.4.2
 _ZN4geos9geomgraph5index17MonotoneChainEdge14getCoordinatesEv@Base 3.4.2
 _ZN4geos9geomgraph5index17MonotoneChainEdge15getStartIndexesEv@Base 3.4.2
 _ZN4geos9geomgraph5index17MonotoneChainEdge17computeIntersectsERKS2_RNS1_18SegmentIntersectorE@Base 3.4.2
 _ZN4geos9geomgraph5index17MonotoneChainEdge25computeIntersectsForChainEiRKS2_iRNS1_18SegmentIntersectorE@Base 3.4.2
 _ZN4geos9geomgraph5index17MonotoneChainEdge25computeIntersectsForChainEiiRKS2_iiRNS1_18SegmentIntersectorE@Base 3.4.2
 _ZN4geos9geomgraph5index17MonotoneChainEdge7getMaxXEi@Base 3.4.2
 _ZN4geos9geomgraph5index17MonotoneChainEdge7getMinXEi@Base 3.4.2
 _ZN4geos9geomgraph5index17MonotoneChainEdgeC1EPNS0_4EdgeE@Base 3.4.2
 _ZN4geos9geomgraph5index17MonotoneChainEdgeC2EPNS0_4EdgeE@Base 3.4.2
 _ZN4geos9geomgraph5index17MonotoneChainEdgeD1Ev@Base 3.4.2
 _ZN4geos9geomgraph5index17MonotoneChainEdgeD2Ev@Base 3.4.2
 _ZN4geos9geomgraph5index17SweepLineEventOBJD0Ev@Base 3.4.2
 _ZN4geos9geomgraph5index17SweepLineEventOBJD1Ev@Base 3.4.2
 _ZN4geos9geomgraph5index17SweepLineEventOBJD2Ev@Base 3.4.2
 _ZN4geos9geomgraph5index18SegmentIntersector15hasIntersectionEv@Base 3.4.2
 _ZN4geos9geomgraph5index18SegmentIntersector15isBoundaryPointEPNS_9algorithm15LineIntersectorEPSt6vectorIPNS0_4NodeESaIS8_EE@Base 3.4.2
 _ZN4geos9geomgraph5index18SegmentIntersector15isBoundaryPointEPNS_9algorithm15LineIntersectorERSt6vectorIPS6_IPNS0_4NodeESaIS8_EESaISB_EE@Base 3.4.2
 _ZN4geos9geomgraph5index18SegmentIntersector16addIntersectionsEPNS0_4EdgeEiS4_i@Base 3.4.2
 _ZN4geos9geomgraph5index18SegmentIntersector16setBoundaryNodesEPSt6vectorIPNS0_4NodeESaIS5_EES8_@Base 3.4.2
 _ZN4geos9geomgraph5index18SegmentIntersector18isAdjacentSegmentsEii@Base 3.4.2
 _ZN4geos9geomgraph5index18SegmentIntersector21hasProperIntersectionEv@Base 3.4.2
 _ZN4geos9geomgraph5index18SegmentIntersector21isTrivialIntersectionEPNS0_4EdgeEiS4_i@Base 3.4.2
 _ZN4geos9geomgraph5index18SegmentIntersector26getProperIntersectionPointEv@Base 3.4.2
 _ZN4geos9geomgraph5index18SegmentIntersector29hasProperInteriorIntersectionEv@Base 3.4.2
 _ZN4geos9geomgraph5index18SegmentIntersectorD0Ev@Base 3.4.2
 _ZN4geos9geomgraph5index18SegmentIntersectorD1Ev@Base 3.4.2
 _ZN4geos9geomgraph5index18SegmentIntersectorD2Ev@Base 3.4.2
 _ZN4geos9geomgraph5index20MonotoneChainIndexer12findChainEndEPKNS_4geom18CoordinateSequenceEi@Base 3.4.2
 _ZN4geos9geomgraph5index20MonotoneChainIndexer20getChainStartIndicesEPKNS_4geom18CoordinateSequenceERSt6vectorIiSaIiEE@Base 3.4.2
 _ZN4geos9geomgraph5index24SimpleEdgeSetIntersector17computeIntersectsEPNS0_4EdgeES4_PNS1_18SegmentIntersectorE@Base 3.4.2
 _ZN4geos9geomgraph5index24SimpleEdgeSetIntersector20computeIntersectionsEPSt6vectorIPNS0_4EdgeESaIS5_EEPNS1_18SegmentIntersectorEb@Base 3.4.2
 _ZN4geos9geomgraph5index24SimpleEdgeSetIntersector20computeIntersectionsEPSt6vectorIPNS0_4EdgeESaIS5_EES8_PNS1_18SegmentIntersectorE@Base 3.4.2
 _ZN4geos9geomgraph5index24SimpleEdgeSetIntersectorC1Ev@Base 3.4.2
 _ZN4geos9geomgraph5index24SimpleEdgeSetIntersectorC2Ev@Base 3.4.2
 _ZN4geos9geomgraph5index24SimpleEdgeSetIntersectorD0Ev@Base 3.4.2
 _ZN4geos9geomgraph5index24SimpleEdgeSetIntersectorD1Ev@Base 3.4.2
 _ZN4geos9geomgraph5index24SimpleEdgeSetIntersectorD2Ev@Base 3.4.2
 _ZN4geos9geomgraph5index26SimpleSweepLineIntersector13prepareEventsEv@Base 3.4.2
 _ZN4geos9geomgraph5index26SimpleSweepLineIntersector15processOverlapsEiiPNS1_14SweepLineEventEPNS1_18SegmentIntersectorE@Base 3.4.2
 _ZN4geos9geomgraph5index26SimpleSweepLineIntersector20computeIntersectionsEPNS1_18SegmentIntersectorE@Base 3.4.2
 _ZN4geos9geomgraph5index26SimpleSweepLineIntersector20computeIntersectionsEPSt6vectorIPNS0_4EdgeESaIS5_EEPNS1_18SegmentIntersectorEb@Base 3.4.2
 _ZN4geos9geomgraph5index26SimpleSweepLineIntersector20computeIntersectionsEPSt6vectorIPNS0_4EdgeESaIS5_EES8_PNS1_18SegmentIntersectorE@Base 3.4.2
 _ZN4geos9geomgraph5index26SimpleSweepLineIntersector3addEPNS0_4EdgeEPv@Base 3.4.2
 _ZN4geos9geomgraph5index26SimpleSweepLineIntersector3addEPSt6vectorIPNS0_4EdgeESaIS5_EE@Base 3.4.2
 _ZN4geos9geomgraph5index26SimpleSweepLineIntersector3addEPSt6vectorIPNS0_4EdgeESaIS5_EEPv@Base 3.4.2
 _ZN4geos9geomgraph5index26SimpleSweepLineIntersectorC1Ev@Base 3.4.2
 _ZN4geos9geomgraph5index26SimpleSweepLineIntersectorC2Ev@Base 3.4.2
 _ZN4geos9geomgraph5index26SimpleSweepLineIntersectorD0Ev@Base 3.4.2
 _ZN4geos9geomgraph5index26SimpleSweepLineIntersectorD1Ev@Base 3.4.2
 _ZN4geos9geomgraph5index26SimpleSweepLineIntersectorD2Ev@Base 3.4.2
 _ZN4geos9geomgraph5index28SimpleMCSweepLineIntersector13prepareEventsEv@Base 3.4.2
 _ZN4geos9geomgraph5index28SimpleMCSweepLineIntersector15processOverlapsEiiPNS1_14SweepLineEventEPNS1_18SegmentIntersectorE@Base 3.4.2
 _ZN4geos9geomgraph5index28SimpleMCSweepLineIntersector20computeIntersectionsEPNS1_18SegmentIntersectorE@Base 3.4.2
 _ZN4geos9geomgraph5index28SimpleMCSweepLineIntersector20computeIntersectionsEPSt6vectorIPNS0_4EdgeESaIS5_EEPNS1_18SegmentIntersectorEb@Base 3.4.2
 _ZN4geos9geomgraph5index28SimpleMCSweepLineIntersector20computeIntersectionsEPSt6vectorIPNS0_4EdgeESaIS5_EES8_PNS1_18SegmentIntersectorE@Base 3.4.2
 _ZN4geos9geomgraph5index28SimpleMCSweepLineIntersector3addEPNS0_4EdgeEPv@Base 3.4.2
 _ZN4geos9geomgraph5index28SimpleMCSweepLineIntersector3addEPSt6vectorIPNS0_4EdgeESaIS5_EE@Base 3.4.2
 _ZN4geos9geomgraph5index28SimpleMCSweepLineIntersector3addEPSt6vectorIPNS0_4EdgeESaIS5_EEPv@Base 3.4.2
 _ZN4geos9geomgraph5index28SimpleMCSweepLineIntersectorC1Ev@Base 3.4.2
 _ZN4geos9geomgraph5index28SimpleMCSweepLineIntersectorC2Ev@Base 3.4.2
 _ZN4geos9geomgraph5index28SimpleMCSweepLineIntersectorD0Ev@Base 3.4.2
 _ZN4geos9geomgraph5index28SimpleMCSweepLineIntersectorD1Ev@Base 3.4.2
 _ZN4geos9geomgraph5index28SimpleMCSweepLineIntersectorD2Ev@Base 3.4.2
 _ZN4geos9geomgraph7EdgeEnd11getQuadrantEv@Base 3.4.2
 _ZN4geos9geomgraph7EdgeEnd12computeLabelERKNS_9algorithm16BoundaryNodeRuleE@Base 3.4.2
 _ZN4geos9geomgraph7EdgeEnd13getCoordinateEv@Base 3.4.2
 _ZN4geos9geomgraph7EdgeEnd21getDirectedCoordinateEv@Base 3.4.2
 _ZN4geos9geomgraph7EdgeEnd4initERKNS_4geom10CoordinateES5_@Base 3.4.2
 _ZN4geos9geomgraph7EdgeEnd5getDxEv@Base 3.4.2
 _ZN4geos9geomgraph7EdgeEnd5getDyEv@Base 3.4.2
 _ZN4geos9geomgraph7EdgeEnd5printB5cxx11Ev@Base 3.4.2
 _ZN4geos9geomgraph7EdgeEnd7getNodeEv@Base 3.4.2
 _ZN4geos9geomgraph7EdgeEnd7setNodeEPNS0_4NodeE@Base 3.4.2
 _ZN4geos9geomgraph7EdgeEndC1EPNS0_4EdgeE@Base 3.4.2
 _ZN4geos9geomgraph7EdgeEndC1EPNS0_4EdgeERKNS_4geom10CoordinateES7_@Base 3.4.2
 _ZN4geos9geomgraph7EdgeEndC1EPNS0_4EdgeERKNS_4geom10CoordinateES7_RKNS0_5LabelE@Base 3.4.2
 _ZN4geos9geomgraph7EdgeEndC1Ev@Base 3.4.2
 _ZN4geos9geomgraph7EdgeEndC2EPNS0_4EdgeE@Base 3.4.2
 _ZN4geos9geomgraph7EdgeEndC2EPNS0_4EdgeERKNS_4geom10CoordinateES7_@Base 3.4.2
 _ZN4geos9geomgraph7EdgeEndC2EPNS0_4EdgeERKNS_4geom10CoordinateES7_RKNS0_5LabelE@Base 3.4.2
 _ZN4geos9geomgraph7EdgeEndC2Ev@Base 3.4.2
 _ZN4geos9geomgraph7EdgeEndD0Ev@Base 3.4.2
 _ZN4geos9geomgraph7EdgeEndD1Ev@Base 3.4.2
 _ZN4geos9geomgraph7EdgeEndD2Ev@Base 3.4.2
 _ZN4geos9geomgraph7NodeMap3addEPNS0_7EdgeEndE@Base 3.4.2
 _ZN4geos9geomgraph7NodeMap7addNodeEPNS0_4NodeE@Base 3.4.2
 _ZN4geos9geomgraph7NodeMap7addNodeERKNS_4geom10CoordinateE@Base 3.4.2
 _ZN4geos9geomgraph7NodeMapC1ERKNS0_11NodeFactoryE@Base 3.4.2
 _ZN4geos9geomgraph7NodeMapC2ERKNS0_11NodeFactoryE@Base 3.4.2
 _ZN4geos9geomgraph7NodeMapD0Ev@Base 3.4.2
 _ZN4geos9geomgraph7NodeMapD1Ev@Base 3.4.2
 _ZN4geos9geomgraph7NodeMapD2Ev@Base 3.4.2
 _ZN4geos9geomgraph8EdgeList13findEdgeIndexEPNS0_4EdgeE@Base 3.4.2
 _ZN4geos9geomgraph8EdgeList13findEqualEdgeEPNS0_4EdgeE@Base 3.4.2
 _ZN4geos9geomgraph8EdgeList3addEPNS0_4EdgeE@Base 3.4.2
 _ZN4geos9geomgraph8EdgeList3getEi@Base 3.4.2
 _ZN4geos9geomgraph8EdgeList5printB5cxx11Ev@Base 3.4.2
 _ZN4geos9geomgraph8EdgeList6addAllERKSt6vectorIPNS0_4EdgeESaIS4_EE@Base 3.4.2
 _ZN4geos9geomgraph8EdgeList9clearListEv@Base 3.4.2
 _ZN4geos9geomgraph8EdgeListD0Ev@Base 3.4.2
 _ZN4geos9geomgraph8EdgeListD1Ev@Base 3.4.2
 _ZN4geos9geomgraph8EdgeListD2Ev@Base 3.4.2
 _ZN4geos9geomgraph8EdgeRing10isIsolatedEv@Base 3.4.2
 _ZN4geos9geomgraph8EdgeRing10mergeLabelERKNS0_5LabelE@Base 3.4.2
 _ZN4geos9geomgraph8EdgeRing10mergeLabelERKNS0_5LabelEi@Base 3.4.2
 _ZN4geos9geomgraph8EdgeRing11computeRingEv@Base 3.4.2
 _ZN4geos9geomgraph8EdgeRing11setInResultEv@Base 3.4.2
 _ZN4geos9geomgraph8EdgeRing13computePointsEPNS0_12DirectedEdgeE@Base 3.4.2
 _ZN4geos9geomgraph8EdgeRing13containsPointERKNS_4geom10CoordinateE@Base 3.4.2
 _ZN4geos9geomgraph8EdgeRing13getLinearRingEv@Base 3.4.2
 _ZN4geos9geomgraph8EdgeRing16getMaxNodeDegreeEv@Base 3.4.2
 _ZN4geos9geomgraph8EdgeRing20computeMaxNodeDegreeEv@Base 3.4.2
 _ZN4geos9geomgraph8EdgeRing6isHoleEv@Base 3.4.2
 _ZN4geos9geomgraph8EdgeRing7addHoleEPS1_@Base 3.4.2
 _ZN4geos9geomgraph8EdgeRing7isShellEv@Base 3.4.2
 _ZN4geos9geomgraph8EdgeRing8getEdgesEv@Base 3.4.2
 _ZN4geos9geomgraph8EdgeRing8getLabelEv@Base 3.4.2
 _ZN4geos9geomgraph8EdgeRing8getShellEv@Base 3.4.2
 _ZN4geos9geomgraph8EdgeRing8setShellEPS1_@Base 3.4.2
 _ZN4geos9geomgraph8EdgeRing9addPointsEPNS0_4EdgeEbb@Base 3.4.2
 _ZN4geos9geomgraph8EdgeRing9toPolygonEPKNS_4geom15GeometryFactoryE@Base 3.4.2
 _ZN4geos9geomgraph8EdgeRingC1EPNS0_12DirectedEdgeEPKNS_4geom15GeometryFactoryE@Base 3.4.2
 _ZN4geos9geomgraph8EdgeRingC2EPNS0_12DirectedEdgeEPKNS_4geom15GeometryFactoryE@Base 3.4.2
 _ZN4geos9geomgraph8EdgeRingD0Ev@Base 3.4.2
 _ZN4geos9geomgraph8EdgeRingD1Ev@Base 3.4.2
 _ZN4geos9geomgraph8EdgeRingD2Ev@Base 3.4.2
 _ZN4geos9geomgraph8Position8oppositeEi@Base 3.4.2
 _ZN4geos9geomgraph8Quadrant10isNorthernEi@Base 3.4.2
 _ZN4geos9geomgraph8Quadrant10isOppositeEii@Base 3.4.2
 _ZN4geos9geomgraph8Quadrant13isInHalfPlaneEii@Base 3.4.2
 _ZN4geos9geomgraph8Quadrant15commonHalfPlaneEii@Base 3.4.2
 _ZN4geos9geomgraph8Quadrant8quadrantERKNS_4geom10CoordinateES5_@Base 3.4.2
 _ZN4geos9geomgraph8Quadrant8quadrantEdd@Base 3.4.2
 _ZN4geos9geomgraphlsERSoRKNS0_16TopologyLocationE@Base 3.4.2
 _ZN4geos9geomgraphlsERSoRKNS0_20EdgeIntersectionListE@Base 3.4.2
 _ZN4geos9geomgraphlsERSoRKNS0_4EdgeE@Base 3.4.2
 _ZN4geos9geomgraphlsERSoRKNS0_4NodeE@Base 3.4.2
 _ZN4geos9geomgraphlsERSoRKNS0_5LabelE@Base 3.4.2
 _ZN4geos9geomgraphlsERSoRKNS0_7EdgeEndE@Base 3.4.2
 _ZN4geos9geomgraphlsERSoRKNS0_8EdgeListE@Base 3.4.2
 _ZN4geos9geomgraphlsERSoRKNS0_8EdgeRingE@Base 3.4.2
 _ZN4geos9linearref14LinearIterator15loadCurrentLineEv@Base 3.4.2
 _ZN4geos9linearref14LinearIterator21segmentEndVertexIndexERKNS0_14LinearLocationE@Base 3.4.2
 _ZN4geos9linearref14LinearIterator4nextEv@Base 3.4.2
 _ZN4geos9linearref14LinearIteratorC1EPKNS_4geom8GeometryE@Base 3.4.2
 _ZN4geos9linearref14LinearIteratorC1EPKNS_4geom8GeometryERKNS0_14LinearLocationE@Base 3.4.2
 _ZN4geos9linearref14LinearIteratorC1EPKNS_4geom8GeometryEjj@Base 3.4.2
 _ZN4geos9linearref14LinearIteratorC2EPKNS_4geom8GeometryE@Base 3.4.2
 _ZN4geos9linearref14LinearIteratorC2EPKNS_4geom8GeometryERKNS0_14LinearLocationE@Base 3.4.2
 _ZN4geos9linearref14LinearIteratorC2EPKNS_4geom8GeometryEjj@Base 3.4.2
 _ZN4geos9linearref14LinearLocation12snapToVertexEPKNS_4geom8GeometryEd@Base 3.4.2
 _ZN4geos9linearref14LinearLocation14getEndLocationEPKNS_4geom8GeometryE@Base 3.4.2
 _ZN4geos9linearref14LinearLocation21compareLocationValuesEjjdjjd@Base 3.4.2
 _ZN4geos9linearref14LinearLocation27pointAlongSegmentByFractionERKNS_4geom10CoordinateES5_d@Base 3.4.2
 _ZN4geos9linearref14LinearLocation5clampEPKNS_4geom8GeometryE@Base 3.4.2
 _ZN4geos9linearref14LinearLocation8setToEndEPKNS_4geom8GeometryE@Base 3.4.2
 _ZN4geos9linearref14LinearLocation9normalizeEv@Base 3.4.2
 _ZN4geos9linearref14LinearLocationC1Ejd@Base 3.4.2
 _ZN4geos9linearref14LinearLocationC1Ejjd@Base 3.4.2
 _ZN4geos9linearref14LinearLocationC2Ejd@Base 3.4.2
 _ZN4geos9linearref14LinearLocationC2Ejjd@Base 3.4.2
 _ZN4geos9linearref17LengthIndexedLineC1EPKNS_4geom8GeometryE@Base 3.4.2
 _ZN4geos9linearref17LengthIndexedLineC2EPKNS_4geom8GeometryE@Base 3.4.2
 _ZN4geos9linearref17LengthLocationMap9getLengthEPKNS_4geom8GeometryERKNS0_14LinearLocationE@Base 3.4.2
 _ZN4geos9linearref17LengthLocationMapC1EPKNS_4geom8GeometryE@Base 3.4.2
 _ZN4geos9linearref17LengthLocationMapC2EPKNS_4geom8GeometryE@Base 3.4.2
 _ZN4geos9linearref18LengthIndexOfPoint12indexOfAfterEPKNS_4geom8GeometryERKNS2_10CoordinateEd@Base 3.4.2
 _ZN4geos9linearref18LengthIndexOfPoint7indexOfEPKNS_4geom8GeometryERKNS2_10CoordinateE@Base 3.4.2
 _ZN4geos9linearref18LengthIndexOfPointC1EPKNS_4geom8GeometryE@Base 3.4.2
 _ZN4geos9linearref18LengthIndexOfPointC2EPKNS_4geom8GeometryE@Base 3.4.2
 _ZN4geos9linearref19LocationIndexOfLine9indicesOfEPKNS_4geom8GeometryES5_@Base 3.4.2
 _ZN4geos9linearref19LocationIndexOfLineC1EPKNS_4geom8GeometryE@Base 3.4.2
 _ZN4geos9linearref19LocationIndexOfLineC2EPKNS_4geom8GeometryE@Base 3.4.2
 _ZN4geos9linearref20LocationIndexOfPoint12indexOfAfterEPKNS_4geom8GeometryERKNS2_10CoordinateEPKNS0_14LinearLocationE@Base 3.4.2
 _ZN4geos9linearref20LocationIndexOfPoint7indexOfEPKNS_4geom8GeometryERKNS2_10CoordinateE@Base 3.4.2
 _ZN4geos9linearref20LocationIndexOfPointC1EPKNS_4geom8GeometryE@Base 3.4.2
 _ZN4geos9linearref20LocationIndexOfPointC2EPKNS_4geom8GeometryE@Base 3.4.2
 _ZN4geos9linearref21ExtractLineByLocation11computeLineERKNS0_14LinearLocationES4_@Base 3.4.2
 _ZN4geos9linearref21ExtractLineByLocation13computeLinearERKNS0_14LinearLocationES4_@Base 3.4.2
 _ZN4geos9linearref21ExtractLineByLocation7extractEPKNS_4geom8GeometryERKNS0_14LinearLocationES8_@Base 3.4.2
 _ZN4geos9linearref21ExtractLineByLocation7extractERKNS0_14LinearLocationES4_@Base 3.4.2
 _ZN4geos9linearref21ExtractLineByLocation7reverseEPKNS_4geom8GeometryE@Base 3.4.2
 _ZN4geos9linearref21ExtractLineByLocationC1EPKNS_4geom8GeometryE@Base 3.4.2
 _ZN4geos9linearref21ExtractLineByLocationC2EPKNS_4geom8GeometryE@Base 3.4.2
 _ZN4geos9linearref21LinearGeometryBuilder11getGeometryEv@Base 3.4.2
 _ZN4geos9linearref21LinearGeometryBuilder18setFixInvalidLinesEb@Base 3.4.2
 _ZN4geos9linearref21LinearGeometryBuilder21setIgnoreInvalidLinesEb@Base 3.4.2
 _ZN4geos9linearref21LinearGeometryBuilder3addERKNS_4geom10CoordinateE@Base 3.4.2
 _ZN4geos9linearref21LinearGeometryBuilder3addERKNS_4geom10CoordinateEb@Base 3.4.2
 _ZN4geos9linearref21LinearGeometryBuilder7endLineEv@Base 3.4.2
 _ZN4geos9linearref21LinearGeometryBuilderC1EPKNS_4geom15GeometryFactoryE@Base 3.4.2
 _ZN4geos9linearref21LinearGeometryBuilderC2EPKNS_4geom15GeometryFactoryE@Base 3.4.2
 _ZN4geos9linearref21LinearGeometryBuilderD1Ev@Base 3.4.2
 _ZN4geos9linearref21LinearGeometryBuilderD2Ev@Base 3.4.2
 _ZN4geos9linearreflsERSoRKNS0_14LinearLocationE@Base 3.4.2
 _ZN4geos9operation10IsSimpleOp11addEndpointERSt3mapIPKNS_4geom10CoordinateEPNS0_12EndpointInfoENS3_18CoordinateLessThenESaISt4pairIKS6_S8_EEES6_b@Base 3.4.2
 _ZN4geos9operation10IsSimpleOp18isSimpleMultiPointERKNS_4geom10MultiPointE@Base 3.4.2
 _ZN4geos9operation10IsSimpleOp22isSimpleLinearGeometryEPKNS_4geom8GeometryE@Base 3.4.2
 _ZN4geos9operation10IsSimpleOp26hasNonEndpointIntersectionERNS_9geomgraph13GeometryGraphE@Base 3.4.2
 _ZN4geos9operation10IsSimpleOp29hasClosedEndpointIntersectionERNS_9geomgraph13GeometryGraphE@Base 3.4.2
 _ZN4geos9operation10IsSimpleOp8isSimpleEPKNS_4geom10LineStringE@Base 3.4.2
 _ZN4geos9operation10IsSimpleOp8isSimpleEPKNS_4geom10MultiPointE@Base 3.4.2
 _ZN4geos9operation10IsSimpleOp8isSimpleEPKNS_4geom15MultiLineStringE@Base 3.4.2
 _ZN4geos9operation10IsSimpleOp8isSimpleEv@Base 3.4.2
 _ZN4geos9operation10IsSimpleOpC1ERKNS_4geom8GeometryE@Base 3.4.2
 _ZN4geos9operation10IsSimpleOpC1ERKNS_4geom8GeometryERKNS_9algorithm16BoundaryNodeRuleE@Base 3.4.2
 _ZN4geos9operation10IsSimpleOpC1Ev@Base 3.4.2
 _ZN4geos9operation10IsSimpleOpC2ERKNS_4geom8GeometryE@Base 3.4.2
 _ZN4geos9operation10IsSimpleOpC2ERKNS_4geom8GeometryERKNS_9algorithm16BoundaryNodeRuleE@Base 3.4.2
 _ZN4geos9operation10IsSimpleOpC2Ev@Base 3.4.2
 _ZN4geos9operation10polygonize11Polygonizer10getDanglesEv@Base 3.4.2
 _ZN4geos9operation10polygonize11Polygonizer10polygonizeEv@Base 3.4.2
 _ZN4geos9operation10polygonize11Polygonizer11getCutEdgesEv@Base 3.4.2
 _ZN4geos9operation10polygonize11Polygonizer11getPolygonsEv@Base 3.4.2
 _ZN4geos9operation10polygonize11Polygonizer14findValidRingsERKSt6vectorIPNS1_8EdgeRingESaIS5_EERS7_RS3_IPNS_4geom10LineStringESaISD_EE@Base 3.4.2
 _ZN4geos9operation10polygonize11Polygonizer15LineStringAdder9filter_roEPKNS_4geom8GeometryE@Base 3.4.2
 _ZN4geos9operation10polygonize11Polygonizer15LineStringAdderC1EPS2_@Base 3.4.2
 _ZN4geos9operation10polygonize11Polygonizer15LineStringAdderC2EPS2_@Base 3.4.2
 _ZN4geos9operation10polygonize11Polygonizer15LineStringAdderD0Ev@Base 3.4.2
 _ZN4geos9operation10polygonize11Polygonizer15LineStringAdderD1Ev@Base 3.4.2
 _ZN4geos9operation10polygonize11Polygonizer15LineStringAdderD2Ev@Base 3.4.2
 _ZN4geos9operation10polygonize11Polygonizer17assignHoleToShellEPNS1_8EdgeRingERSt6vectorIS4_SaIS4_EE@Base 3.4.2
 _ZN4geos9operation10polygonize11Polygonizer18findShellsAndHolesERKSt6vectorIPNS1_8EdgeRingESaIS5_EE@Base 3.4.2
 _ZN4geos9operation10polygonize11Polygonizer19assignHolesToShellsERKSt6vectorIPNS1_8EdgeRingESaIS5_EERS7_@Base 3.4.2
 _ZN4geos9operation10polygonize11Polygonizer19getInvalidRingLinesEv@Base 3.4.2
 _ZN4geos9operation10polygonize11Polygonizer3addEPKNS_4geom10LineStringE@Base 3.4.2
 _ZN4geos9operation10polygonize11Polygonizer3addEPKNS_4geom8GeometryE@Base 3.4.2
 _ZN4geos9operation10polygonize11Polygonizer3addEPNS_4geom8GeometryE@Base 3.4.2
 _ZN4geos9operation10polygonize11Polygonizer3addEPSt6vectorIPKNS_4geom8GeometryESaIS7_EE@Base 3.4.2
 _ZN4geos9operation10polygonize11Polygonizer3addEPSt6vectorIPNS_4geom8GeometryESaIS6_EE@Base 3.4.2
 _ZN4geos9operation10polygonize11PolygonizerC1Ev@Base 3.4.2
 _ZN4geos9operation10polygonize11PolygonizerC2Ev@Base 3.4.2
 _ZN4geos9operation10polygonize11PolygonizerD1Ev@Base 3.4.2
 _ZN4geos9operation10polygonize11PolygonizerD2Ev@Base 3.4.2
 _ZN4geos9operation10polygonize14PolygonizeEdge7getLineEv@Base 3.4.2
 _ZN4geos9operation10polygonize14PolygonizeEdgeC1EPKNS_4geom10LineStringE@Base 3.4.2
 _ZN4geos9operation10polygonize14PolygonizeEdgeC2EPKNS_4geom10LineStringE@Base 3.4.2
 _ZN4geos9operation10polygonize14PolygonizeEdgeD0Ev@Base 3.4.2
 _ZN4geos9operation10polygonize14PolygonizeEdgeD1Ev@Base 3.4.2
 _ZN4geos9operation10polygonize14PolygonizeEdgeD2Ev@Base 3.4.2
 _ZN4geos9operation10polygonize15PolygonizeGraph12findEdgeRingEPNS1_22PolygonizeDirectedEdgeE@Base 3.4.2
 _ZN4geos9operation10polygonize15PolygonizeGraph12getEdgeRingsERSt6vectorIPNS1_8EdgeRingESaIS5_EE@Base 3.4.2
 _ZN4geos9operation10polygonize15PolygonizeGraph13deleteDanglesERSt6vectorIPKNS_4geom10LineStringESaIS7_EE@Base 3.4.2
 _ZN4geos9operation10polygonize15PolygonizeGraph14deleteAllEdgesEPNS_11planargraph4NodeE@Base 3.4.2
 _ZN4geos9operation10polygonize15PolygonizeGraph14deleteCutEdgesERSt6vectorIPKNS_4geom10LineStringESaIS7_EE@Base 3.4.2
 _ZN4geos9operation10polygonize15PolygonizeGraph18computeNextCWEdgesEPNS_11planargraph4NodeE@Base 3.4.2
 _ZN4geos9operation10polygonize15PolygonizeGraph18computeNextCWEdgesEv@Base 3.4.2
 _ZN4geos9operation10polygonize15PolygonizeGraph18findDirEdgesInRingEPNS1_22PolygonizeDirectedEdgeERSt6vectorIPNS_11planargraph12DirectedEdgeESaIS8_EE@Base 3.4.2
 _ZN4geos9operation10polygonize15PolygonizeGraph19computeNextCCWEdgesEPNS_11planargraph4NodeEl@Base 3.4.2
 _ZN4geos9operation10polygonize15PolygonizeGraph19getDegreeNonDeletedEPNS_11planargraph4NodeE@Base 3.4.2
 _ZN4geos9operation10polygonize15PolygonizeGraph20findLabeledEdgeRingsERSt6vectorIPNS_11planargraph12DirectedEdgeESaIS6_EERS3_IPNS1_22PolygonizeDirectedEdgeESaISB_EE@Base 3.4.2
 _ZN4geos9operation10polygonize15PolygonizeGraph21findIntersectionNodesEPNS1_22PolygonizeDirectedEdgeElRSt6vectorIPNS_11planargraph4NodeESaIS8_EE@Base 3.4.2
 _ZN4geos9operation10polygonize15PolygonizeGraph32convertMaximalToMinimalEdgeRingsERSt6vectorIPNS1_22PolygonizeDirectedEdgeESaIS5_EE@Base 3.4.2
 _ZN4geos9operation10polygonize15PolygonizeGraph5labelERSt6vectorIPNS_11planargraph12DirectedEdgeESaIS6_EEl@Base 3.4.2
 _ZN4geos9operation10polygonize15PolygonizeGraph7addEdgeEPKNS_4geom10LineStringE@Base 3.4.2
 _ZN4geos9operation10polygonize15PolygonizeGraph7getNodeERKNS_4geom10CoordinateE@Base 3.4.2
 _ZN4geos9operation10polygonize15PolygonizeGraph9getDegreeEPNS_11planargraph4NodeEl@Base 3.4.2
 _ZN4geos9operation10polygonize15PolygonizeGraphC1EPKNS_4geom15GeometryFactoryE@Base 3.4.2
 _ZN4geos9operation10polygonize15PolygonizeGraphC2EPKNS_4geom15GeometryFactoryE@Base 3.4.2
 _ZN4geos9operation10polygonize15PolygonizeGraphD0Ev@Base 3.4.2
 _ZN4geos9operation10polygonize15PolygonizeGraphD1Ev@Base 3.4.2
 _ZN4geos9operation10polygonize15PolygonizeGraphD2Ev@Base 3.4.2
 _ZN4geos9operation10polygonize22PolygonizeDirectedEdge7setNextEPS2_@Base 3.4.2
 _ZN4geos9operation10polygonize22PolygonizeDirectedEdge7setRingEPNS1_8EdgeRingE@Base 3.4.2
 _ZN4geos9operation10polygonize22PolygonizeDirectedEdge8setLabelEl@Base 3.4.2
 _ZN4geos9operation10polygonize22PolygonizeDirectedEdgeC1EPNS_11planargraph4NodeES5_RKNS_4geom10CoordinateEb@Base 3.4.2
 _ZN4geos9operation10polygonize22PolygonizeDirectedEdgeC2EPNS_11planargraph4NodeES5_RKNS_4geom10CoordinateEb@Base 3.4.2
 _ZN4geos9operation10polygonize22PolygonizeDirectedEdgeD0Ev@Base 3.4.2
 _ZN4geos9operation10polygonize22PolygonizeDirectedEdgeD1Ev@Base 3.4.2
 _ZN4geos9operation10polygonize22PolygonizeDirectedEdgeD2Ev@Base 3.4.2
 _ZN4geos9operation10polygonize8EdgeRing10getPolygonEv@Base 3.4.2
 _ZN4geos9operation10polygonize8EdgeRing11ptNotInListEPKNS_4geom18CoordinateSequenceES6_@Base 3.4.2
 _ZN4geos9operation10polygonize8EdgeRing13getLineStringEv@Base 3.4.2
 _ZN4geos9operation10polygonize8EdgeRing14getCoordinatesEv@Base 3.4.2
 _ZN4geos9operation10polygonize8EdgeRing15getRingInternalEv@Base 3.4.2
 _ZN4geos9operation10polygonize8EdgeRing16getRingOwnershipEv@Base 3.4.2
 _ZN4geos9operation10polygonize8EdgeRing22findEdgeRingContainingEPS2_PSt6vectorIS3_SaIS3_EE@Base 3.4.2
 _ZN4geos9operation10polygonize8EdgeRing3addEPKNS_11planargraph12DirectedEdgeE@Base 3.4.2
 _ZN4geos9operation10polygonize8EdgeRing6isHoleEv@Base 3.4.2
 _ZN4geos9operation10polygonize8EdgeRing7addEdgeEPKNS_4geom18CoordinateSequenceEbPS4_@Base 3.4.2
 _ZN4geos9operation10polygonize8EdgeRing7addHoleEPNS_4geom10LinearRingE@Base 3.4.2
 _ZN4geos9operation10polygonize8EdgeRing7isValidEv@Base 3.4.2
 _ZN4geos9operation10polygonize8EdgeRing8isInListERKNS_4geom10CoordinateEPKNS3_18CoordinateSequenceE@Base 3.4.2
 _ZN4geos9operation10polygonize8EdgeRingC1EPKNS_4geom15GeometryFactoryE@Base 3.4.2
 _ZN4geos9operation10polygonize8EdgeRingC2EPKNS_4geom15GeometryFactoryE@Base 3.4.2
 _ZN4geos9operation10polygonize8EdgeRingD1Ev@Base 3.4.2
 _ZN4geos9operation10polygonize8EdgeRingD2Ev@Base 3.4.2
 _ZN4geos9operation11sharedpaths13SharedPathsOp10clearEdgesERSt6vectorIPNS_4geom10LineStringESaIS6_EE@Base 3.4.2
 _ZN4geos9operation11sharedpaths13SharedPathsOp13sharedPathsOpERKNS_4geom8GeometryES6_RSt6vectorIPNS3_10LineStringESaIS9_EESC_@Base 3.4.2
 _ZN4geos9operation11sharedpaths13SharedPathsOp14getSharedPathsERSt6vectorIPNS_4geom10LineStringESaIS6_EES9_@Base 3.4.2
 _ZN4geos9operation11sharedpaths13SharedPathsOp16checkLinealInputERKNS_4geom8GeometryE@Base 3.4.2
 _ZN4geos9operation11sharedpaths13SharedPathsOp23findLinearIntersectionsERSt6vectorIPNS_4geom10LineStringESaIS6_EE@Base 3.4.2
 _ZN4geos9operation11sharedpaths13SharedPathsOp9isForwardERKNS_4geom10LineStringERKNS3_8GeometryE@Base 3.4.2
 _ZN4geos9operation11sharedpaths13SharedPathsOpC1ERKNS_4geom8GeometryES6_@Base 3.4.2
 _ZN4geos9operation11sharedpaths13SharedPathsOpC2ERKNS_4geom8GeometryES6_@Base 3.4.2
 _ZN4geos9operation12EndpointInfoC1ERKNS_4geom10CoordinateE@Base 3.4.2
 _ZN4geos9operation12EndpointInfoC2ERKNS_4geom10CoordinateE@Base 3.4.2
 _ZN4geos9operation12intersection13clip_to_edgesERdS2_ddRKNS1_9RectangleE@Base 3.5.0
 _ZN4geos9operation12intersection14normalize_ringERSt6vectorINS_4geom10CoordinateESaIS4_EE@Base 3.5.0
 _ZN4geos9operation12intersection14reverse_pointsERSt6vectorINS_4geom10CoordinateESaIS4_EEii@Base 3.5.0
 _ZN4geos9operation12intersection21RectangleIntersection10clip_pointEPKNS_4geom5PointERNS1_28RectangleIntersectionBuilderERKNS1_9RectangleE@Base 3.5.0
 _ZN4geos9operation12intersection21RectangleIntersection12clipBoundaryERKNS_4geom8GeometryERKNS1_9RectangleE@Base 3.5.0
 _ZN4geos9operation12intersection21RectangleIntersection12clipBoundaryEv@Base 3.5.0
 _ZN4geos9operation12intersection21RectangleIntersection12clip_polygonEPKNS_4geom7PolygonERNS1_28RectangleIntersectionBuilderERKNS1_9RectangleEb@Base 3.5.0
 _ZN4geos9operation12intersection21RectangleIntersection15clip_linestringEPKNS_4geom10LineStringERNS1_28RectangleIntersectionBuilderERKNS1_9RectangleE@Base 3.5.0
 _ZN4geos9operation12intersection21RectangleIntersection15clip_multipointEPKNS_4geom10MultiPointERNS1_28RectangleIntersectionBuilderERKNS1_9RectangleE@Base 3.5.0
 _ZN4geos9operation12intersection21RectangleIntersection17clip_multipolygonEPKNS_4geom12MultiPolygonERNS1_28RectangleIntersectionBuilderERKNS1_9RectangleEb@Base 3.5.0
 _ZN4geos9operation12intersection21RectangleIntersection20clip_multilinestringEPKNS_4geom15MultiLineStringERNS1_28RectangleIntersectionBuilderERKNS1_9RectangleE@Base 3.5.0
 _ZN4geos9operation12intersection21RectangleIntersection21clip_linestring_partsEPKNS_4geom10LineStringERNS1_28RectangleIntersectionBuilderERKNS1_9RectangleE@Base 3.5.0
 _ZN4geos9operation12intersection21RectangleIntersection23clip_geometrycollectionEPKNS_4geom18GeometryCollectionERNS1_28RectangleIntersectionBuilderERKNS1_9RectangleEb@Base 3.5.0
 _ZN4geos9operation12intersection21RectangleIntersection24clip_polygon_to_polygonsEPKNS_4geom7PolygonERNS1_28RectangleIntersectionBuilderERKNS1_9RectangleE@Base 3.5.0
 _ZN4geos9operation12intersection21RectangleIntersection27clip_polygon_to_linestringsEPKNS_4geom7PolygonERNS1_28RectangleIntersectionBuilderERKNS1_9RectangleE@Base 3.5.0
 _ZN4geos9operation12intersection21RectangleIntersection4clipERKNS_4geom8GeometryERKNS1_9RectangleE@Base 3.5.0
 _ZN4geos9operation12intersection21RectangleIntersection4clipEv@Base 3.5.0
 _ZN4geos9operation12intersection21RectangleIntersection9clip_geomEPKNS_4geom8GeometryERNS1_28RectangleIntersectionBuilderERKNS1_9RectangleEb@Base 3.5.0
 _ZN4geos9operation12intersection21RectangleIntersectionC1ERKNS_4geom8GeometryERKNS1_9RectangleE@Base 3.5.0
 _ZN4geos9operation12intersection21RectangleIntersectionC2ERKNS_4geom8GeometryERKNS1_9RectangleE@Base 3.5.0
 _ZN4geos9operation12intersection28RectangleIntersectionBuilder10close_ringERKNS1_9RectangleEPSt6vectorINS_4geom10CoordinateESaIS8_EE@Base 3.5.0
 _ZN4geos9operation12intersection28RectangleIntersectionBuilder12reverseLinesEv@Base 3.5.0
 _ZN4geos9operation12intersection28RectangleIntersectionBuilder14close_boundaryERKNS1_9RectangleEPSt6vectorINS_4geom10CoordinateESaIS8_EEdddd@Base 3.5.0
 _ZN4geos9operation12intersection28RectangleIntersectionBuilder17reconnectPolygonsERKNS1_9RectangleE@Base 3.5.0
 _ZN4geos9operation12intersection28RectangleIntersectionBuilder3addEPNS_4geom10LineStringE@Base 3.5.0
 _ZN4geos9operation12intersection28RectangleIntersectionBuilder3addEPNS_4geom5PointE@Base 3.5.0
 _ZN4geos9operation12intersection28RectangleIntersectionBuilder3addEPNS_4geom7PolygonE@Base 3.5.0
 _ZN4geos9operation12intersection28RectangleIntersectionBuilder5buildEv@Base 3.5.0
 _ZN4geos9operation12intersection28RectangleIntersectionBuilder5clearEv@Base 3.5.0
 _ZN4geos9operation12intersection28RectangleIntersectionBuilder7releaseERS2_@Base 3.5.0
 _ZN4geos9operation12intersection28RectangleIntersectionBuilder9reconnectEv@Base 3.5.0
 _ZN4geos9operation12intersection28RectangleIntersectionBuilderD1Ev@Base 3.5.0
 _ZN4geos9operation12intersection28RectangleIntersectionBuilderD2Ev@Base 3.5.0
 _ZN4geos9operation12intersection8distanceERKNS1_9RectangleERKSt6vectorINS_4geom10CoordinateESaIS7_EE@Base 3.5.0
 _ZN4geos9operation12intersection8distanceERKNS1_9RectangleERKSt6vectorINS_4geom10CoordinateESaIS7_EEPKNS6_10LineStringE@Base 3.5.0
 _ZN4geos9operation12intersection8distanceERKNS1_9RectangleEdddd@Base 3.5.0
 _ZN4geos9operation12intersection9RectangleC1Edddd@Base 3.5.0
 _ZN4geos9operation12intersection9RectangleC2Edddd@Base 3.5.0
 _ZN4geos9operation22GeometryGraphOperation23setComputationPrecisionEPKNS_4geom14PrecisionModelE@Base 3.4.2
 _ZN4geos9operation22GeometryGraphOperationC1EPKNS_4geom8GeometryE@Base 3.4.2
 _ZN4geos9operation22GeometryGraphOperationC1EPKNS_4geom8GeometryES5_@Base 3.4.2
 _ZN4geos9operation22GeometryGraphOperationC1EPKNS_4geom8GeometryES5_RKNS_9algorithm16BoundaryNodeRuleE@Base 3.4.2
 _ZN4geos9operation22GeometryGraphOperationC2EPKNS_4geom8GeometryE@Base 3.4.2
 _ZN4geos9operation22GeometryGraphOperationC2EPKNS_4geom8GeometryES5_@Base 3.4.2
 _ZN4geos9operation22GeometryGraphOperationC2EPKNS_4geom8GeometryES5_RKNS_9algorithm16BoundaryNodeRuleE@Base 3.4.2
 _ZN4geos9operation22GeometryGraphOperationD0Ev@Base 3.4.2
 _ZN4geos9operation22GeometryGraphOperationD1Ev@Base 3.4.2
 _ZN4geos9operation22GeometryGraphOperationD2Ev@Base 3.4.2
 _ZN4geos9operation5valid19RepeatedPointTester13getCoordinateEv@Base 3.4.2
 _ZN4geos9operation5valid19RepeatedPointTester16hasRepeatedPointEPKNS_4geom12MultiPolygonE@Base 3.4.2
 _ZN4geos9operation5valid19RepeatedPointTester16hasRepeatedPointEPKNS_4geom15MultiLineStringE@Base 3.4.2
 _ZN4geos9operation5valid19RepeatedPointTester16hasRepeatedPointEPKNS_4geom18CoordinateSequenceE@Base 3.4.2
 _ZN4geos9operation5valid19RepeatedPointTester16hasRepeatedPointEPKNS_4geom18GeometryCollectionE@Base 3.4.2
 _ZN4geos9operation5valid19RepeatedPointTester16hasRepeatedPointEPKNS_4geom7PolygonE@Base 3.4.2
 _ZN4geos9operation5valid19RepeatedPointTester16hasRepeatedPointEPKNS_4geom8GeometryE@Base 3.4.2
 _ZN4geos9operation5valid20ConsistentAreaTester15getInvalidPointEv@Base 3.4.2
 _ZN4geos9operation5valid20ConsistentAreaTester17hasDuplicateRingsEv@Base 3.4.2
 _ZN4geos9operation5valid20ConsistentAreaTester20isNodeConsistentAreaEv@Base 3.4.2
 _ZN4geos9operation5valid20ConsistentAreaTester30isNodeEdgeAreaLabelsConsistentEv@Base 3.4.2
 _ZN4geos9operation5valid20ConsistentAreaTesterC1EPNS_9geomgraph13GeometryGraphE@Base 3.4.2
 _ZN4geos9operation5valid20ConsistentAreaTesterC2EPNS_9geomgraph13GeometryGraphE@Base 3.4.2
 _ZN4geos9operation5valid20ConsistentAreaTesterD1Ev@Base 3.4.2
 _ZN4geos9operation5valid20ConsistentAreaTesterD2Ev@Base 3.4.2
 _ZN4geos9operation5valid22SimpleNestedRingTester11isNonNestedEv@Base 3.4.2
 _ZN4geos9operation5valid23ConnectedInteriorTester13getCoordinateEv@Base 3.4.2
 _ZN4geos9operation5valid23ConnectedInteriorTester14buildEdgeRingsEPSt6vectorIPNS_9geomgraph7EdgeEndESaIS6_EERS3_IPNS4_8EdgeRingESaISB_EE@Base 3.4.2
 _ZN4geos9operation5valid23ConnectedInteriorTester17visitInteriorRingEPKNS_4geom10LineStringERNS_9geomgraph11PlanarGraphE@Base 3.4.2
 _ZN4geos9operation5valid23ConnectedInteriorTester18findDifferentPointEPKNS_4geom18CoordinateSequenceERKNS3_10CoordinateE@Base 3.4.2
 _ZN4geos9operation5valid23ConnectedInteriorTester19visitShellInteriorsEPKNS_4geom8GeometryERNS_9geomgraph11PlanarGraphE@Base 3.4.2
 _ZN4geos9operation5valid23ConnectedInteriorTester20isInteriorsConnectedEv@Base 3.4.2
 _ZN4geos9operation5valid23ConnectedInteriorTester21hasUnvisitedShellEdgeEPSt6vectorIPNS_9geomgraph8EdgeRingESaIS6_EE@Base 3.4.2
 _ZN4geos9operation5valid23ConnectedInteriorTester24setInteriorEdgesInResultERNS_9geomgraph11PlanarGraphE@Base 3.4.2
 _ZN4geos9operation5valid23ConnectedInteriorTester24visitLinkedDirectedEdgesEPNS_9geomgraph12DirectedEdgeE@Base 3.4.2
 _ZN4geos9operation5valid23ConnectedInteriorTesterC1ERNS_9geomgraph13GeometryGraphE@Base 3.4.2
 _ZN4geos9operation5valid23ConnectedInteriorTesterC2ERNS_9geomgraph13GeometryGraphE@Base 3.4.2
 _ZN4geos9operation5valid23ConnectedInteriorTesterD1Ev@Base 3.4.2
 _ZN4geos9operation5valid23ConnectedInteriorTesterD2Ev@Base 3.4.2
 _ZN4geos9operation5valid23IndexedNestedRingTester10buildIndexEv@Base 3.4.2
 _ZN4geos9operation5valid23IndexedNestedRingTester11isNonNestedEv@Base 3.4.2
 _ZN4geos9operation5valid23IndexedNestedRingTesterD1Ev@Base 3.4.2
 _ZN4geos9operation5valid23IndexedNestedRingTesterD2Ev@Base 3.4.2
 _ZN4geos9operation5valid23TopologyValidationError10getMessageB5cxx11Ev@Base 3.4.2
 _ZN4geos9operation5valid23TopologyValidationError12getErrorTypeEv@Base 3.4.2
 _ZN4geos9operation5valid23TopologyValidationError13getCoordinateEv@Base 3.4.2
 _ZN4geos9operation5valid23TopologyValidationError6errMsgE@Base 3.4.2
 _ZN4geos9operation5valid23TopologyValidationError8toStringB5cxx11Ev@Base 3.4.2
 _ZN4geos9operation5valid23TopologyValidationErrorC1Ei@Base 3.4.2
 _ZN4geos9operation5valid23TopologyValidationErrorC1EiRKNS_4geom10CoordinateE@Base 3.4.2
 _ZN4geos9operation5valid23TopologyValidationErrorC2Ei@Base 3.4.2
 _ZN4geos9operation5valid23TopologyValidationErrorC2EiRKNS_4geom10CoordinateE@Base 3.4.2
 _ZN4geos9operation5valid24QuadtreeNestedRingTester11isNonNestedEv@Base 3.4.2
 _ZN4geos9operation5valid24QuadtreeNestedRingTester13buildQuadtreeEv@Base 3.4.2
 _ZN4geos9operation5valid24QuadtreeNestedRingTester14getNestedPointEv@Base 3.4.2
 _ZN4geos9operation5valid24QuadtreeNestedRingTester3addEPKNS_4geom10LinearRingE@Base 3.4.2
 _ZN4geos9operation5valid24QuadtreeNestedRingTesterC1EPNS_9geomgraph13GeometryGraphE@Base 3.4.2
 _ZN4geos9operation5valid24QuadtreeNestedRingTesterC2EPNS_9geomgraph13GeometryGraphE@Base 3.4.2
 _ZN4geos9operation5valid24QuadtreeNestedRingTesterD1Ev@Base 3.4.2
 _ZN4geos9operation5valid24QuadtreeNestedRingTesterD2Ev@Base 3.4.2
 _ZN4geos9operation5valid25SweeplineNestedRingTester10buildIndexEv@Base 3.4.2
 _ZN4geos9operation5valid25SweeplineNestedRingTester11isNonNestedEv@Base 3.4.2
 _ZN4geos9operation5valid25SweeplineNestedRingTester13OverlapAction7overlapEPNS_5index9sweepline17SweepLineIntervalES7_@Base 3.4.2
 _ZN4geos9operation5valid25SweeplineNestedRingTester13OverlapActionC1EPS2_@Base 3.4.2
 _ZN4geos9operation5valid25SweeplineNestedRingTester13OverlapActionC2EPS2_@Base 3.4.2
 _ZN4geos9operation5valid25SweeplineNestedRingTester13OverlapActionD0Ev@Base 3.4.2
 _ZN4geos9operation5valid25SweeplineNestedRingTester13OverlapActionD1Ev@Base 3.4.2
 _ZN4geos9operation5valid25SweeplineNestedRingTester13OverlapActionD2Ev@Base 3.4.2
 _ZN4geos9operation5valid25SweeplineNestedRingTester8isInsideEPNS_4geom10LinearRingES5_@Base 3.4.2
 _ZN4geos9operation5valid9IsValidOp10checkValidEPKNS_4geom10LineStringE@Base 3.4.2
 _ZN4geos9operation5valid9IsValidOp10checkValidEPKNS_4geom10LinearRingE@Base 3.4.2
 _ZN4geos9operation5valid9IsValidOp10checkValidEPKNS_4geom12MultiPolygonE@Base 3.4.2
 _ZN4geos9operation5valid9IsValidOp10checkValidEPKNS_4geom18GeometryCollectionE@Base 3.4.2
 _ZN4geos9operation5valid9IsValidOp10checkValidEPKNS_4geom5PointE@Base 3.4.2
 _ZN4geos9operation5valid9IsValidOp10checkValidEPKNS_4geom7PolygonE@Base 3.4.2
 _ZN4geos9operation5valid9IsValidOp10checkValidEPKNS_4geom8GeometryE@Base 3.4.2
 _ZN4geos9operation5valid9IsValidOp10checkValidEv@Base 3.4.2
 _ZN4geos9operation5valid9IsValidOp13findPtNotNodeEPKNS_4geom18CoordinateSequenceEPKNS3_10LinearRingEPNS_9geomgraph13GeometryGraphE@Base 3.4.2
 _ZN4geos9operation5valid9IsValidOp15checkClosedRingEPKNS_4geom10LinearRingE@Base 3.4.2
 _ZN4geos9operation5valid9IsValidOp16checkClosedRingsEPKNS_4geom7PolygonE@Base 3.4.2
 _ZN4geos9operation5valid9IsValidOp17checkHolesInShellEPKNS_4geom7PolygonEPNS_9geomgraph13GeometryGraphE@Base 3.4.2
 _ZN4geos9operation5valid9IsValidOp17checkTooFewPointsEPNS_9geomgraph13GeometryGraphE@Base 3.4.2
 _ZN4geos9operation5valid9IsValidOp18getValidationErrorEv@Base 3.4.2
 _ZN4geos9operation5valid9IsValidOp19checkConsistentAreaEPNS_9geomgraph13GeometryGraphE@Base 3.4.2
 _ZN4geos9operation5valid9IsValidOp19checkHolesNotNestedEPKNS_4geom7PolygonEPNS_9geomgraph13GeometryGraphE@Base 3.4.2
 _ZN4geos9operation5valid9IsValidOp19checkShellNotNestedEPKNS_4geom10LinearRingEPKNS3_7PolygonEPNS_9geomgraph13GeometryGraphE@Base 3.4.2
 _ZN4geos9operation5valid9IsValidOp20checkShellInsideHoleEPKNS_4geom10LinearRingES6_PNS_9geomgraph13GeometryGraphE@Base 3.4.2
 _ZN4geos9operation5valid9IsValidOp20checkShellsNotNestedEPKNS_4geom12MultiPolygonEPNS_9geomgraph13GeometryGraphE@Base 3.4.2
 _ZN4geos9operation5valid9IsValidOp23checkConnectedInteriorsERNS_9geomgraph13GeometryGraphE@Base 3.4.2
 _ZN4geos9operation5valid9IsValidOp23checkInvalidCoordinatesEPKNS_4geom18CoordinateSequenceE@Base 3.4.2
 _ZN4geos9operation5valid9IsValidOp23checkInvalidCoordinatesEPKNS_4geom7PolygonE@Base 3.4.2
 _ZN4geos9operation5valid9IsValidOp27checkNoSelfIntersectingRingERNS_9geomgraph20EdgeIntersectionListE@Base 3.4.2
 _ZN4geos9operation5valid9IsValidOp28checkNoSelfIntersectingRingsEPNS_9geomgraph13GeometryGraphE@Base 3.4.2
 _ZN4geos9operation5valid9IsValidOp7isValidERKNS_4geom10CoordinateE@Base 3.4.2
 _ZN4geos9operation5valid9IsValidOp7isValidERKNS_4geom8GeometryE@Base 3.4.2
 _ZN4geos9operation5valid9IsValidOp7isValidEv@Base 3.4.2
 _ZN4geos9operation5valid9IsValidOpD0Ev@Base 3.4.2
 _ZN4geos9operation5valid9IsValidOpD1Ev@Base 3.4.2
 _ZN4geos9operation5valid9IsValidOpD2Ev@Base 3.4.2
 _ZN4geos9operation6buffer13BufferBuilder10depthDeltaERKNS_9geomgraph5LabelE@Base 3.4.2
 _ZN4geos9operation6buffer13BufferBuilder14buildSubgraphsERKSt6vectorIPNS1_14BufferSubgraphESaIS5_EERNS0_7overlay14PolygonBuilderE@Base 3.4.2
 _ZN4geos9operation6buffer13BufferBuilder15createSubgraphsEPNS_9geomgraph11PlanarGraphERSt6vectorIPNS1_14BufferSubgraphESaIS8_EE@Base 3.4.2
 _ZN4geos9operation6buffer13BufferBuilder16insertUniqueEdgeEPNS_9geomgraph4EdgeE@Base 3.4.2
 _ZN4geos9operation6buffer13BufferBuilder17computeNodedEdgesERSt6vectorIPNS_6noding13SegmentStringESaIS6_EEPKNS_4geom14PrecisionModelE@Base 3.4.2
 _ZN4geos9operation6buffer13BufferBuilder21bufferLineSingleSidedEPKNS_4geom8GeometryEdb@Base 3.4.2
 _ZN4geos9operation6buffer13BufferBuilder6bufferEPKNS_4geom8GeometryEd@Base 3.4.2
 _ZN4geos9operation6buffer13BufferBuilder8getNoderEPKNS_4geom14PrecisionModelE@Base 3.4.2
 _ZN4geos9operation6buffer13BufferBuilderD1Ev@Base 3.4.2
 _ZN4geos9operation6buffer13BufferBuilderD2Ev@Base 3.4.2
 _ZN4geos9operation6buffer14BufferSubgraph11getEnvelopeEv@Base 3.4.2
 _ZN4geos9operation6buffer14BufferSubgraph12addReachableEPNS_9geomgraph4NodeE@Base 3.4.2
 _ZN4geos9operation6buffer14BufferSubgraph12computeDepthEi@Base 3.4.2
 _ZN4geos9operation6buffer14BufferSubgraph13computeDepthsEPNS_9geomgraph12DirectedEdgeE@Base 3.4.2
 _ZN4geos9operation6buffer14BufferSubgraph13copySymDepthsEPNS_9geomgraph12DirectedEdgeE@Base 3.4.2
 _ZN4geos9operation6buffer14BufferSubgraph15findResultEdgesEv@Base 3.4.2
 _ZN4geos9operation6buffer14BufferSubgraph16computeNodeDepthEPNS_9geomgraph4NodeE@Base 3.4.2
 _ZN4geos9operation6buffer14BufferSubgraph17clearVisitedEdgesEv@Base 3.4.2
 _ZN4geos9operation6buffer14BufferSubgraph3addEPNS_9geomgraph4NodeEPSt6vectorIS5_SaIS5_EE@Base 3.4.2
 _ZN4geos9operation6buffer14BufferSubgraph6createEPNS_9geomgraph4NodeE@Base 3.4.2
 _ZN4geos9operation6buffer14BufferSubgraph8containsERSt3setIPNS_9geomgraph4NodeESt4lessIS6_ESaIS6_EES6_@Base 3.4.2
 _ZN4geos9operation6buffer14BufferSubgraph9compareToEPS2_@Base 3.4.2
 _ZN4geos9operation6buffer14BufferSubgraphC1Ev@Base 3.4.2
 _ZN4geos9operation6buffer14BufferSubgraphC2Ev@Base 3.4.2
 _ZN4geos9operation6buffer14BufferSubgraphD1Ev@Base 3.4.2
 _ZN4geos9operation6buffer14BufferSubgraphD2Ev@Base 3.4.2
 _ZN4geos9operation6buffer16BufferParameters19DEFAULT_MITRE_LIMITE@Base 3.4.2
 _ZN4geos9operation6buffer16BufferParameters19bufferDistanceErrorEi@Base 3.4.2
 _ZN4geos9operation6buffer16BufferParameters19setQuadrantSegmentsEi@Base 3.4.2
 _ZN4geos9operation6buffer16BufferParametersC1Ei@Base 3.4.2
 _ZN4geos9operation6buffer16BufferParametersC1EiNS2_11EndCapStyleE@Base 3.4.2
 _ZN4geos9operation6buffer16BufferParametersC1EiNS2_11EndCapStyleENS2_9JoinStyleEd@Base 3.4.2
 _ZN4geos9operation6buffer16BufferParametersC1Ev@Base 3.4.2
 _ZN4geos9operation6buffer16BufferParametersC2Ei@Base 3.4.2
 _ZN4geos9operation6buffer16BufferParametersC2EiNS2_11EndCapStyleE@Base 3.4.2
 _ZN4geos9operation6buffer16BufferParametersC2EiNS2_11EndCapStyleENS2_9JoinStyleEd@Base 3.4.2
 _ZN4geos9operation6buffer16BufferParametersC2Ev@Base 3.4.2
 _ZN4geos9operation6buffer16BufferSubgraphGTEPNS1_14BufferSubgraphES3_@Base 3.4.2
 _ZN4geos9operation6buffer18OffsetCurveBuilder12getLineCurveEPKNS_4geom18CoordinateSequenceEdRSt6vectorIPS4_SaIS8_EE@Base 3.4.2
 _ZN4geos9operation6buffer18OffsetCurveBuilder12getRingCurveEPKNS_4geom18CoordinateSequenceEidRSt6vectorIPS4_SaIS8_EE@Base 3.4.2
 _ZN4geos9operation6buffer18OffsetCurveBuilder15SIMPLIFY_FACTORE@Base 3.4.2
 _ZN4geos9operation6buffer18OffsetCurveBuilder17computePointCurveERKNS_4geom10CoordinateERNS1_22OffsetSegmentGeneratorE@Base 3.4.2
 _ZN4geos9operation6buffer18OffsetCurveBuilder17simplifyToleranceEd@Base 3.4.2
 _ZN4geos9operation6buffer18OffsetCurveBuilder22computeLineBufferCurveERKNS_4geom18CoordinateSequenceERNS1_22OffsetSegmentGeneratorE@Base 3.4.2
 _ZN4geos9operation6buffer18OffsetCurveBuilder22computeRingBufferCurveERKNS_4geom18CoordinateSequenceEiRNS1_22OffsetSegmentGeneratorE@Base 3.4.2
 _ZN4geos9operation6buffer18OffsetCurveBuilder23getSingleSidedLineCurveEPKNS_4geom18CoordinateSequenceEdRSt6vectorIPS4_SaIS8_EEbb@Base 3.4.2
 _ZN4geos9operation6buffer18OffsetCurveBuilder29computeSingleSidedBufferCurveERKNS_4geom18CoordinateSequenceEbRNS1_22OffsetSegmentGeneratorE@Base 3.4.2
 _ZN4geos9operation6buffer18OffsetCurveBuilder9getSegGenEd@Base 3.4.2
 _ZN4geos9operation6buffer19RightmostEdgeFinder16getRightmostSideEPNS_9geomgraph12DirectedEdgeEi@Base 3.4.2
 _ZN4geos9operation6buffer19RightmostEdgeFinder23findRightmostEdgeAtNodeEv@Base 3.4.2
 _ZN4geos9operation6buffer19RightmostEdgeFinder25findRightmostEdgeAtVertexEv@Base 3.4.2
 _ZN4geos9operation6buffer19RightmostEdgeFinder25getRightmostSideOfSegmentEPNS_9geomgraph12DirectedEdgeEi@Base 3.4.2
 _ZN4geos9operation6buffer19RightmostEdgeFinder27checkForRightmostCoordinateEPNS_9geomgraph12DirectedEdgeE@Base 3.4.2
 _ZN4geos9operation6buffer19RightmostEdgeFinder8findEdgeEPSt6vectorIPNS_9geomgraph12DirectedEdgeESaIS6_EE@Base 3.4.2
 _ZN4geos9operation6buffer19RightmostEdgeFinderC1Ev@Base 3.4.2
 _ZN4geos9operation6buffer19RightmostEdgeFinderC2Ev@Base 3.4.2
 _ZN4geos9operation6buffer20SubgraphDepthLocater19findStabbedSegmentsERKNS_4geom10CoordinateEPNS_9geomgraph12DirectedEdgeERSt6vectorIPNS1_12DepthSegmentESaISC_EE@Base 3.4.2
 _ZN4geos9operation6buffer20SubgraphDepthLocater19findStabbedSegmentsERKNS_4geom10CoordinateEPSt6vectorIPNS_9geomgraph12DirectedEdgeESaISA_EERS7_IPNS1_12DepthSegmentESaISF_EE@Base 3.4.2
 _ZN4geos9operation6buffer20SubgraphDepthLocater19findStabbedSegmentsERKNS_4geom10CoordinateERSt6vectorIPNS1_12DepthSegmentESaIS9_EE@Base 3.4.2
 _ZN4geos9operation6buffer20SubgraphDepthLocater8getDepthERKNS_4geom10CoordinateE@Base 3.4.2
 _ZN4geos9operation6buffer21OffsetCurveSetBuilder10addPolygonEPKNS_4geom7PolygonE@Base 3.4.2
 _ZN4geos9operation6buffer21OffsetCurveSetBuilder13addCollectionEPKNS_4geom18GeometryCollectionE@Base 3.4.2
 _ZN4geos9operation6buffer21OffsetCurveSetBuilder13addLineStringEPKNS_4geom10LineStringE@Base 3.4.2
 _ZN4geos9operation6buffer21OffsetCurveSetBuilder14addPolygonRingEPKNS_4geom18CoordinateSequenceEdiii@Base 3.4.2
 _ZN4geos9operation6buffer21OffsetCurveSetBuilder18isErodedCompletelyEPKNS_4geom10LinearRingEd@Base 3.4.2
 _ZN4geos9operation6buffer21OffsetCurveSetBuilder26isTriangleErodedCompletelyEPKNS_4geom18CoordinateSequenceEd@Base 3.4.2
 _ZN4geos9operation6buffer21OffsetCurveSetBuilder3addERKNS_4geom8GeometryE@Base 3.4.2
 _ZN4geos9operation6buffer21OffsetCurveSetBuilder8addCurveEPNS_4geom18CoordinateSequenceEii@Base 3.4.2
 _ZN4geos9operation6buffer21OffsetCurveSetBuilder8addPointEPKNS_4geom5PointE@Base 3.4.2
 _ZN4geos9operation6buffer21OffsetCurveSetBuilder9addCurvesERKSt6vectorIPNS_4geom18CoordinateSequenceESaIS6_EEii@Base 3.4.2
 _ZN4geos9operation6buffer21OffsetCurveSetBuilder9getCurvesEv@Base 3.4.2
 _ZN4geos9operation6buffer21OffsetCurveSetBuilderC1ERKNS_4geom8GeometryEdRNS1_18OffsetCurveBuilderE@Base 3.4.2
 _ZN4geos9operation6buffer21OffsetCurveSetBuilderC2ERKNS_4geom8GeometryEdRNS1_18OffsetCurveBuilderE@Base 3.4.2
 _ZN4geos9operation6buffer21OffsetCurveSetBuilderD1Ev@Base 3.4.2
 _ZN4geos9operation6buffer21OffsetCurveSetBuilderD2Ev@Base 3.4.2
 _ZN4geos9operation6buffer22OffsetSegmentGenerator12addBevelJoinERKNS_4geom11LineSegmentES6_@Base 3.4.2
 _ZN4geos9operation6buffer22OffsetSegmentGenerator12addCollinearEb@Base 3.4.2
 _ZN4geos9operation6buffer22OffsetSegmentGenerator12addMitreJoinERKNS_4geom10CoordinateERKNS3_11LineSegmentES9_d@Base 3.4.2
 _ZN4geos9operation6buffer22OffsetSegmentGenerator12createCircleERKNS_4geom10CoordinateEd@Base 3.4.2
 _ZN4geos9operation6buffer22OffsetSegmentGenerator12createSquareERKNS_4geom10CoordinateEd@Base 3.4.2
 _ZN4geos9operation6buffer22OffsetSegmentGenerator13addInsideTurnEib@Base 3.4.2
 _ZN4geos9operation6buffer22OffsetSegmentGenerator13addLineEndCapERKNS_4geom10CoordinateES6_@Base 3.4.2
 _ZN4geos9operation6buffer22OffsetSegmentGenerator14addNextSegmentERKNS_4geom10CoordinateEb@Base 3.4.2
 _ZN4geos9operation6buffer22OffsetSegmentGenerator14addOutsideTurnEib@Base 3.4.2
 _ZN4geos9operation6buffer22OffsetSegmentGenerator15SIMPLIFY_FACTORE@Base 3.4.2
 _ZN4geos9operation6buffer22OffsetSegmentGenerator16initSideSegmentsERKNS_4geom10CoordinateES6_i@Base 3.4.2
 _ZN4geos9operation6buffer22OffsetSegmentGenerator19addLimitedMitreJoinERKNS_4geom11LineSegmentES6_dd@Base 3.4.2
 _ZN4geos9operation6buffer22OffsetSegmentGenerator20computeOffsetSegmentERKNS_4geom11LineSegmentEidRS4_@Base 3.4.2
 _ZN4geos9operation6buffer22OffsetSegmentGenerator2PIE@Base 3.4.2
 _ZN4geos9operation6buffer22OffsetSegmentGenerator32OFFSET_SEGMENT_SEPARATION_FACTORE@Base 3.4.2
 _ZN4geos9operation6buffer22OffsetSegmentGenerator33CURVE_VERTEX_SNAP_DISTANCE_FACTORE@Base 3.4.2
 _ZN4geos9operation6buffer22OffsetSegmentGenerator39INSIDE_TURN_VERTEX_SNAP_DISTANCE_FACTORE@Base 3.4.2
 _ZN4geos9operation6buffer22OffsetSegmentGenerator4initEd@Base 3.4.2
 _ZN4geos9operation6buffer22OffsetSegmentGenerator9addFilletERKNS_4geom10CoordinateES6_S6_id@Base 3.4.2
 _ZN4geos9operation6buffer22OffsetSegmentGenerator9addFilletERKNS_4geom10CoordinateEddid@Base 3.4.2
 _ZN4geos9operation6buffer22OffsetSegmentGeneratorC1EPKNS_4geom14PrecisionModelERKNS1_16BufferParametersEd@Base 3.4.2
 _ZN4geos9operation6buffer22OffsetSegmentGeneratorC2EPKNS_4geom14PrecisionModelERKNS1_16BufferParametersEd@Base 3.4.2
 _ZN4geos9operation6buffer25BufferInputLineSimplifier24deleteShallowConcavitiesEv@Base 3.4.2
 _ZN4geos9operation6buffer25BufferInputLineSimplifier8simplifyERKNS_4geom18CoordinateSequenceEd@Base 3.4.2
 _ZN4geos9operation6buffer25BufferInputLineSimplifier8simplifyEd@Base 3.4.2
 _ZN4geos9operation6buffer25BufferInputLineSimplifierC1ERKNS_4geom18CoordinateSequenceE@Base 3.4.2
 _ZN4geos9operation6buffer25BufferInputLineSimplifierC2ERKNS_4geom18CoordinateSequenceE@Base 3.4.2
 _ZN4geos9operation6buffer8BufferOp15computeGeometryEv@Base 3.4.2
 _ZN4geos9operation6buffer8BufferOp17getResultGeometryEd@Base 3.4.2
 _ZN4geos9operation6buffer8BufferOp20bufferFixedPrecisionERKNS_4geom14PrecisionModelE@Base 3.4.2
 _ZN4geos9operation6buffer8BufferOp20precisionScaleFactorEPKNS_4geom8GeometryEdi@Base 3.4.2
 _ZN4geos9operation6buffer8BufferOp22bufferReducedPrecisionEi@Base 3.4.2
 _ZN4geos9operation6buffer8BufferOp22bufferReducedPrecisionEv@Base 3.4.2
 _ZN4geos9operation6buffer8BufferOp23bufferOriginalPrecisionEv@Base 3.4.2
 _ZN4geos9operation6buffer8BufferOp8bufferOpEPKNS_4geom8GeometryEdii@Base 3.4.2
 _ZN4geos9operation6bufferlsERSoRKNS1_14BufferSubgraphE@Base 3.4.2
 _ZN4geos9operation6relate10RelateNode17updateIMFromEdgesERNS_4geom18IntersectionMatrixE@Base 3.4.2
 _ZN4geos9operation6relate10RelateNode9computeIMERNS_4geom18IntersectionMatrixE@Base 3.4.2
 _ZN4geos9operation6relate10RelateNodeC1ERKNS_4geom10CoordinateEPNS_9geomgraph11EdgeEndStarE@Base 3.4.2
 _ZN4geos9operation6relate10RelateNodeC2ERKNS_4geom10CoordinateEPNS_9geomgraph11EdgeEndStarE@Base 3.4.2
 _ZN4geos9operation6relate10RelateNodeD0Ev@Base 3.4.2
 _ZN4geos9operation6relate10RelateNodeD1Ev@Base 3.4.2
 _ZN4geos9operation6relate10RelateNodeD2Ev@Base 3.4.2
 _ZN4geos9operation6relate13EdgeEndBundle11getEdgeEndsEv@Base 3.4.2
 _ZN4geos9operation6relate13EdgeEndBundle12computeLabelERKNS_9algorithm16BoundaryNodeRuleE@Base 3.4.2
 _ZN4geos9operation6relate13EdgeEndBundle14computeLabelOnEiRKNS_9algorithm16BoundaryNodeRuleE@Base 3.4.2
 _ZN4geos9operation6relate13EdgeEndBundle16computeLabelSideEii@Base 3.4.2
 _ZN4geos9operation6relate13EdgeEndBundle17computeLabelSidesEi@Base 3.4.2
 _ZN4geos9operation6relate13EdgeEndBundle5printB5cxx11Ev@Base 3.4.2
 _ZN4geos9operation6relate13EdgeEndBundle6insertEPNS_9geomgraph7EdgeEndE@Base 3.4.2
 _ZN4geos9operation6relate13EdgeEndBundle8updateIMERNS_4geom18IntersectionMatrixE@Base 3.4.2
 _ZN4geos9operation6relate13EdgeEndBundleC1EPNS_9geomgraph7EdgeEndE@Base 3.4.2
 _ZN4geos9operation6relate13EdgeEndBundleC2EPNS_9geomgraph7EdgeEndE@Base 3.4.2
 _ZN4geos9operation6relate13EdgeEndBundleD0Ev@Base 3.4.2
 _ZN4geos9operation6relate13EdgeEndBundleD1Ev@Base 3.4.2
 _ZN4geos9operation6relate13EdgeEndBundleD2Ev@Base 3.4.2
 _ZN4geos9operation6relate14EdgeEndBuilder15computeEdgeEndsEPNS_9geomgraph4EdgeEPSt6vectorIPNS3_7EdgeEndESaIS8_EE@Base 3.4.2
 _ZN4geos9operation6relate14EdgeEndBuilder15computeEdgeEndsEPSt6vectorIPNS_9geomgraph4EdgeESaIS6_EE@Base 3.4.2
 _ZN4geos9operation6relate14EdgeEndBuilder20createEdgeEndForNextEPNS_9geomgraph4EdgeEPSt6vectorIPNS3_7EdgeEndESaIS8_EEPNS3_16EdgeIntersectionESD_@Base 3.4.2
 _ZN4geos9operation6relate14EdgeEndBuilder20createEdgeEndForPrevEPNS_9geomgraph4EdgeEPSt6vectorIPNS3_7EdgeEndESaIS8_EEPNS3_16EdgeIntersectionESD_@Base 3.4.2
 _ZN4geos9operation6relate14RelateComputer14insertEdgeEndsEPSt6vectorIPNS_9geomgraph7EdgeEndESaIS6_EE@Base 3.4.2
 _ZN4geos9operation6relate14RelateComputer14labelNodeEdgesEv@Base 3.4.2
 _ZN4geos9operation6relate14RelateComputer17computeDisjointIMEPNS_4geom18IntersectionMatrixE@Base 3.4.2
 _ZN4geos9operation6relate14RelateComputer17labelIsolatedEdgeEPNS_9geomgraph4EdgeEiPKNS_4geom8GeometryE@Base 3.4.2
 _ZN4geos9operation6relate14RelateComputer17labelIsolatedNodeEPNS_9geomgraph4NodeEi@Base 3.4.2
 _ZN4geos9operation6relate14RelateComputer18copyNodesAndLabelsEi@Base 3.4.2
 _ZN4geos9operation6relate14RelateComputer18labelIsolatedEdgesEii@Base 3.4.2
 _ZN4geos9operation6relate14RelateComputer18labelIsolatedNodesEv@Base 3.4.2
 _ZN4geos9operation6relate14RelateComputer22labelIntersectionNodesEi@Base 3.4.2
 _ZN4geos9operation6relate14RelateComputer24computeIntersectionNodesEi@Base 3.4.2
 _ZN4geos9operation6relate14RelateComputer27computeProperIntersectionIMEPNS_9geomgraph5index18SegmentIntersectorEPNS_4geom18IntersectionMatrixE@Base 3.4.2
 _ZN4geos9operation6relate14RelateComputer8updateIMERNS_4geom18IntersectionMatrixE@Base 3.4.2
 _ZN4geos9operation6relate14RelateComputer9computeIMEv@Base 3.4.2
 _ZN4geos9operation6relate14RelateComputerC1EPSt6vectorIPNS_9geomgraph13GeometryGraphESaIS6_EE@Base 3.4.2
 _ZN4geos9operation6relate14RelateComputerC2EPSt6vectorIPNS_9geomgraph13GeometryGraphESaIS6_EE@Base 3.4.2
 _ZN4geos9operation6relate14RelateComputerD1Ev@Base 3.4.2
 _ZN4geos9operation6relate14RelateComputerD2Ev@Base 3.4.2
 _ZN4geos9operation6relate15RelateNodeGraph10getNodeMapEv@Base 3.4.2
 _ZN4geos9operation6relate15RelateNodeGraph14insertEdgeEndsEPSt6vectorIPNS_9geomgraph7EdgeEndESaIS6_EE@Base 3.4.2
 _ZN4geos9operation6relate15RelateNodeGraph18copyNodesAndLabelsEPNS_9geomgraph13GeometryGraphEi@Base 3.4.2
 _ZN4geos9operation6relate15RelateNodeGraph24computeIntersectionNodesEPNS_9geomgraph13GeometryGraphEi@Base 3.4.2
 _ZN4geos9operation6relate15RelateNodeGraph5buildEPNS_9geomgraph13GeometryGraphE@Base 3.4.2
 _ZN4geos9operation6relate15RelateNodeGraphC1Ev@Base 3.4.2
 _ZN4geos9operation6relate15RelateNodeGraphC2Ev@Base 3.4.2
 _ZN4geos9operation6relate15RelateNodeGraphD0Ev@Base 3.4.2
 _ZN4geos9operation6relate15RelateNodeGraphD1Ev@Base 3.4.2
 _ZN4geos9operation6relate15RelateNodeGraphD2Ev@Base 3.4.2
 _ZN4geos9operation6relate17EdgeEndBundleStar6insertEPNS_9geomgraph7EdgeEndE@Base 3.4.2
 _ZN4geos9operation6relate17EdgeEndBundleStar8updateIMERNS_4geom18IntersectionMatrixE@Base 3.4.2
 _ZN4geos9operation6relate17EdgeEndBundleStarD0Ev@Base 3.4.2
 _ZN4geos9operation6relate17EdgeEndBundleStarD1Ev@Base 3.4.2
 _ZN4geos9operation6relate17EdgeEndBundleStarD2Ev@Base 3.4.2
 _ZN4geos9operation6relate17RelateNodeFactory8instanceEv@Base 3.4.2
 _ZN4geos9operation6relate17RelateNodeFactoryD0Ev@Base 3.4.2
 _ZN4geos9operation6relate17RelateNodeFactoryD1Ev@Base 3.4.2
 _ZN4geos9operation6relate17RelateNodeFactoryD2Ev@Base 3.4.2
 _ZN4geos9operation6relate8RelateOp21getIntersectionMatrixEv@Base 3.4.2
 _ZN4geos9operation6relate8RelateOp6relateEPKNS_4geom8GeometryES6_@Base 3.4.2
 _ZN4geos9operation6relate8RelateOp6relateEPKNS_4geom8GeometryES6_RKNS_9algorithm16BoundaryNodeRuleE@Base 3.4.2
 _ZN4geos9operation6relate8RelateOpC1EPKNS_4geom8GeometryES6_@Base 3.4.2
 _ZN4geos9operation6relate8RelateOpC1EPKNS_4geom8GeometryES6_RKNS_9algorithm16BoundaryNodeRuleE@Base 3.4.2
 _ZN4geos9operation6relate8RelateOpC2EPKNS_4geom8GeometryES6_@Base 3.4.2
 _ZN4geos9operation6relate8RelateOpC2EPKNS_4geom8GeometryES6_RKNS_9algorithm16BoundaryNodeRuleE@Base 3.4.2
 _ZN4geos9operation6relate8RelateOpD0Ev@Base 3.4.2
 _ZN4geos9operation6relate8RelateOpD1Ev@Base 3.4.2
 _ZN4geos9operation6relate8RelateOpD2Ev@Base 3.4.2
 _ZN4geos9operation7overlay11LineBuilder10buildLinesENS1_9OverlayOp6OpCodeE@Base 3.4.2
 _ZN4geos9operation7overlay11LineBuilder10propagateZEPNS_4geom18CoordinateSequenceE@Base 3.4.2
 _ZN4geos9operation7overlay11LineBuilder12collectLinesENS1_9OverlayOp6OpCodeE@Base 3.4.2
 _ZN4geos9operation7overlay11LineBuilder15collectLineEdgeEPNS_9geomgraph12DirectedEdgeENS1_9OverlayOp6OpCodeEPSt6vectorIPNS3_4EdgeESaISA_EE@Base 3.4.2
 _ZN4geos9operation7overlay11LineBuilder17labelIsolatedLineEPNS_9geomgraph4EdgeEi@Base 3.4.2
 _ZN4geos9operation7overlay11LineBuilder18labelIsolatedLinesEPSt6vectorIPNS_9geomgraph4EdgeESaIS6_EE@Base 3.4.2
 _ZN4geos9operation7overlay11LineBuilder20findCoveredLineEdgesEv@Base 3.4.2
 _ZN4geos9operation7overlay11LineBuilder24collectBoundaryTouchEdgeEPNS_9geomgraph12DirectedEdgeENS1_9OverlayOp6OpCodeEPSt6vectorIPNS3_4EdgeESaISA_EE@Base 3.4.2
 _ZN4geos9operation7overlay11LineBuilder5buildENS1_9OverlayOp6OpCodeE@Base 3.4.2
 _ZN4geos9operation7overlay11LineBuilderC1EPNS1_9OverlayOpEPKNS_4geom15GeometryFactoryEPNS_9algorithm12PointLocatorE@Base 3.4.2
 _ZN4geos9operation7overlay11LineBuilderC2EPNS1_9OverlayOpEPKNS_4geom15GeometryFactoryEPNS_9algorithm12PointLocatorE@Base 3.4.2
 _ZN4geos9operation7overlay11LineBuilderD1Ev@Base 3.4.2
 _ZN4geos9operation7overlay11LineBuilderD2Ev@Base 3.4.2
 _ZN4geos9operation7overlay12EdgeSetNoder13getNodedEdgesEv@Base 3.4.2
 _ZN4geos9operation7overlay12EdgeSetNoder8addEdgesEPSt6vectorIPNS_9geomgraph4EdgeESaIS6_EE@Base 3.4.2
 _ZN4geos9operation7overlay12PointBuilder24filterCoveredNodeToPointEPKNS_9geomgraph4NodeE@Base 3.4.2
 _ZN4geos9operation7overlay12PointBuilder28extractNonCoveredResultNodesENS1_9OverlayOp6OpCodeE@Base 3.4.2
 _ZN4geos9operation7overlay12PointBuilder5buildENS1_9OverlayOp6OpCodeE@Base 3.4.2
 _ZN4geos9operation7overlay14PolygonBuilder11getPolygonsEv@Base 3.4.2
 _ZN4geos9operation7overlay14PolygonBuilder13containsPointERKNS_4geom10CoordinateE@Base 3.4.2
 _ZN4geos9operation7overlay14PolygonBuilder14placeFreeHolesERSt6vectorIPNS_9geomgraph8EdgeRingESaIS6_EES9_@Base 3.4.2
 _ZN4geos9operation7overlay14PolygonBuilder15computePolygonsERSt6vectorIPNS_9geomgraph8EdgeRingESaIS6_EE@Base 3.4.2
 _ZN4geos9operation7overlay14PolygonBuilder17placePolygonHolesEPNS_9geomgraph8EdgeRingEPSt6vectorIPNS1_15MinimalEdgeRingESaIS8_EE@Base 3.4.2
 _ZN4geos9operation7overlay14PolygonBuilder18sortShellsAndHolesERSt6vectorIPNS1_15MaximalEdgeRingESaIS5_EERS3_IPNS_9geomgraph8EdgeRingESaISB_EESE_@Base 3.4.2
 _ZN4geos9operation7overlay14PolygonBuilder21buildMaximalEdgeRingsEPKSt6vectorIPNS_9geomgraph12DirectedEdgeESaIS6_EERS3_IPNS1_15MaximalEdgeRingESaISC_EE@Base 3.4.2
 _ZN4geos9operation7overlay14PolygonBuilder21buildMinimalEdgeRingsERSt6vectorIPNS1_15MaximalEdgeRingESaIS5_EERS3_IPNS_9geomgraph8EdgeRingESaISB_EESE_S8_@Base 3.4.2
 _ZN4geos9operation7overlay14PolygonBuilder22findEdgeRingContainingEPNS_9geomgraph8EdgeRingERSt6vectorIS5_SaIS5_EE@Base 3.4.2
 _ZN4geos9operation7overlay14PolygonBuilder3addEPKSt6vectorIPNS_9geomgraph12DirectedEdgeESaIS6_EEPKS3_IPNS4_4NodeESaISC_EE@Base 3.4.2
 _ZN4geos9operation7overlay14PolygonBuilder3addEPNS_9geomgraph11PlanarGraphE@Base 3.4.2
 _ZN4geos9operation7overlay14PolygonBuilder9findShellEPSt6vectorIPNS1_15MinimalEdgeRingESaIS5_EE@Base 3.4.2
 _ZN4geos9operation7overlay14PolygonBuilderC1EPKNS_4geom15GeometryFactoryE@Base 3.4.2
 _ZN4geos9operation7overlay14PolygonBuilderC2EPKNS_4geom15GeometryFactoryE@Base 3.4.2
 _ZN4geos9operation7overlay14PolygonBuilderD1Ev@Base 3.4.2
 _ZN4geos9operation7overlay14PolygonBuilderD2Ev@Base 3.4.2
 _ZN4geos9operation7overlay15ElevationMatrix3addEPKNS_4geom8GeometryE@Base 3.4.2
 _ZN4geos9operation7overlay15ElevationMatrix3addERKNS_4geom10CoordinateE@Base 3.4.2
 _ZN4geos9operation7overlay15ElevationMatrix7getCellERKNS_4geom10CoordinateE@Base 3.4.2
 _ZN4geos9operation7overlay15ElevationMatrixC1ERKNS_4geom8EnvelopeEjj@Base 3.4.2
 _ZN4geos9operation7overlay15ElevationMatrixC2ERKNS_4geom8EnvelopeEjj@Base 3.4.2
 _ZN4geos9operation7overlay15ElevationMatrixD1Ev@Base 3.4.2
 _ZN4geos9operation7overlay15ElevationMatrixD2Ev@Base 3.4.2
 _ZN4geos9operation7overlay15MaximalEdgeRing11setEdgeRingEPNS_9geomgraph12DirectedEdgeEPNS3_8EdgeRingE@Base 3.4.2
 _ZN4geos9operation7overlay15MaximalEdgeRing17buildMinimalRingsERSt6vectorIPNS1_15MinimalEdgeRingESaIS5_EE@Base 3.4.2
 _ZN4geos9operation7overlay15MaximalEdgeRing17buildMinimalRingsERSt6vectorIPNS_9geomgraph8EdgeRingESaIS6_EE@Base 3.4.2
 _ZN4geos9operation7overlay15MaximalEdgeRing17buildMinimalRingsEv@Base 3.4.2
 _ZN4geos9operation7overlay15MaximalEdgeRing36linkDirectedEdgesForMinimalEdgeRingsEv@Base 3.4.2
 _ZN4geos9operation7overlay15MaximalEdgeRing7getNextEPNS_9geomgraph12DirectedEdgeE@Base 3.4.2
 _ZN4geos9operation7overlay15MaximalEdgeRingC1EPNS_9geomgraph12DirectedEdgeEPKNS_4geom15GeometryFactoryE@Base 3.4.2
 _ZN4geos9operation7overlay15MaximalEdgeRingC2EPNS_9geomgraph12DirectedEdgeEPKNS_4geom15GeometryFactoryE@Base 3.4.2
 _ZN4geos9operation7overlay15MaximalEdgeRingD0Ev@Base 3.4.2
 _ZN4geos9operation7overlay15MaximalEdgeRingD1Ev@Base 3.4.2
 _ZN4geos9operation7overlay15MaximalEdgeRingD2Ev@Base 3.4.2
 _ZN4geos9operation7overlay15MinimalEdgeRing11setEdgeRingEPNS_9geomgraph12DirectedEdgeEPNS3_8EdgeRingE@Base 3.4.2
 _ZN4geos9operation7overlay15MinimalEdgeRing7getNextEPNS_9geomgraph12DirectedEdgeE@Base 3.4.2
 _ZN4geos9operation7overlay15MinimalEdgeRingC1EPNS_9geomgraph12DirectedEdgeEPKNS_4geom15GeometryFactoryE@Base 3.4.2
 _ZN4geos9operation7overlay15MinimalEdgeRingC2EPNS_9geomgraph12DirectedEdgeEPKNS_4geom15GeometryFactoryE@Base 3.4.2
 _ZN4geos9operation7overlay15MinimalEdgeRingD0Ev@Base 3.4.2
 _ZN4geos9operation7overlay15MinimalEdgeRingD1Ev@Base 3.4.2
 _ZN4geos9operation7overlay15MinimalEdgeRingD2Ev@Base 3.4.2
 _ZN4geos9operation7overlay18OverlayNodeFactory8instanceEv@Base 3.4.2
 _ZN4geos9operation7overlay18OverlayNodeFactoryD0Ev@Base 3.4.2
 _ZN4geos9operation7overlay18OverlayNodeFactoryD1Ev@Base 3.4.2
 _ZN4geos9operation7overlay18OverlayNodeFactoryD2Ev@Base 3.4.2
 _ZN4geos9operation7overlay19ElevationMatrixCell3addERKNS_4geom10CoordinateE@Base 3.4.2
 _ZN4geos9operation7overlay19ElevationMatrixCell3addEd@Base 3.4.2
 _ZN4geos9operation7overlay19ElevationMatrixCellC1Ev@Base 3.4.2
 _ZN4geos9operation7overlay19ElevationMatrixCellC2Ev@Base 3.4.2
 _ZN4geos9operation7overlay19ElevationMatrixCellD1Ev@Base 3.4.2
 _ZN4geos9operation7overlay19ElevationMatrixCellD2Ev@Base 3.4.2
 _ZN4geos9operation7overlay21ElevationMatrixFilter9filter_roEPKNS_4geom10CoordinateE@Base 3.4.2
 _ZN4geos9operation7overlay21ElevationMatrixFilterC1ERNS1_15ElevationMatrixE@Base 3.4.2
 _ZN4geos9operation7overlay21ElevationMatrixFilterC2ERNS1_15ElevationMatrixE@Base 3.4.2
 _ZN4geos9operation7overlay21ElevationMatrixFilterD0Ev@Base 3.4.2
 _ZN4geos9operation7overlay21ElevationMatrixFilterD1Ev@Base 3.4.2
 _ZN4geos9operation7overlay21ElevationMatrixFilterD2Ev@Base 3.4.2
 _ZN4geos9operation7overlay4snap13SnapOverlayOp13prepareResultERNS_4geom8GeometryE@Base 3.4.2
 _ZN4geos9operation7overlay4snap13SnapOverlayOp16removeCommonBitsERKNS_4geom8GeometryES7_RNS4_11GeomPtrPairE@Base 3.4.2
 _ZN4geos9operation7overlay4snap13SnapOverlayOp17getResultGeometryENS1_9OverlayOp6OpCodeE@Base 3.4.2
 _ZN4geos9operation7overlay4snap13SnapOverlayOp20computeSnapToleranceEv@Base 3.4.2
 _ZN4geos9operation7overlay4snap13SnapOverlayOp4snapERNS_4geom11GeomPtrPairE@Base 3.4.2
 _ZN4geos9operation7overlay4snap15GeometrySnapper10snapToSelfERKNS_4geom8GeometryEdb@Base 3.4.2
 _ZN4geos9operation7overlay4snap15GeometrySnapper10snapToSelfEdb@Base 3.4.2
 _ZN4geos9operation7overlay4snap15GeometrySnapper19snapPrecisionFactorE@Base 3.4.2
 _ZN4geos9operation7overlay4snap15GeometrySnapper24extractTargetCoordinatesERKNS_4geom8GeometryE@Base 3.4.2
 _ZN4geos9operation7overlay4snap15GeometrySnapper27computeOverlaySnapToleranceERKNS_4geom8GeometryE@Base 3.4.2
 _ZN4geos9operation7overlay4snap15GeometrySnapper27computeOverlaySnapToleranceERKNS_4geom8GeometryES7_@Base 3.4.2
 _ZN4geos9operation7overlay4snap15GeometrySnapper29computeSizeBasedSnapToleranceERKNS_4geom8GeometryE@Base 3.4.2
 _ZN4geos9operation7overlay4snap15GeometrySnapper4snapERKNS_4geom8GeometryES7_dRNS4_11GeomPtrPairE@Base 3.4.2
 _ZN4geos9operation7overlay4snap15GeometrySnapper6snapToERKNS_4geom8GeometryEd@Base 3.4.2
 _ZN4geos9operation7overlay4snap15SnapTransformer20transformCoordinatesEPKNS_4geom18CoordinateSequenceEPKNS4_8GeometryE@Base 3.4.2
 _ZN4geos9operation7overlay4snap15SnapTransformerD0Ev@Base 3.4.2
 _ZN4geos9operation7overlay4snap15SnapTransformerD1Ev@Base 3.4.2
 _ZN4geos9operation7overlay4snap15SnapTransformerD2Ev@Base 3.4.2
 _ZN4geos9operation7overlay4snap17LineStringSnapper12snapSegmentsERNS_4geom14CoordinateListERKSt6vectorIPKNS4_10CoordinateESaISA_EE@Base 3.4.2
 _ZN4geos9operation7overlay4snap17LineStringSnapper12snapVerticesERNS_4geom14CoordinateListERKSt6vectorIPKNS4_10CoordinateESaISA_EE@Base 3.4.2
 _ZN4geos9operation7overlay4snap17LineStringSnapper16findVertexToSnapERKNS_4geom10CoordinateESt14_List_iteratorIS5_ES9_@Base 3.4.2
 _ZN4geos9operation7overlay4snap17LineStringSnapper17findSegmentToSnapERKNS_4geom10CoordinateESt14_List_iteratorIS5_ES9_@Base 3.4.2
 _ZN4geos9operation7overlay4snap17LineStringSnapper17findSnapForVertexERKNS_4geom10CoordinateERKSt6vectorIPS6_SaIS9_EE@Base 3.4.2
 _ZN4geos9operation7overlay4snap17LineStringSnapper6snapToERKSt6vectorIPKNS_4geom10CoordinateESaIS8_EE@Base 3.4.2
 _ZN4geos9operation7overlay4snap21SnapIfNeededOverlayOp17getResultGeometryENS1_9OverlayOp6OpCodeE@Base 3.4.2
 _ZN4geos9operation7overlay8validate17FuzzyPointLocator11getLineWorkERKNS_4geom8GeometryE@Base 3.4.2
 _ZN4geos9operation7overlay8validate17FuzzyPointLocator11getLocationERKNS_4geom10CoordinateE@Base 3.4.2
 _ZN4geos9operation7overlay8validate17FuzzyPointLocator15extractLineWorkERKNS_4geom8GeometryE@Base 3.4.2
 _ZN4geos9operation7overlay8validate17FuzzyPointLocatorC1ERKNS_4geom8GeometryEd@Base 3.4.2
 _ZN4geos9operation7overlay8validate17FuzzyPointLocatorC2ERKNS_4geom8GeometryEd@Base 3.4.2
 _ZN4geos9operation7overlay8validate20OffsetPointGenerator13extractPointsEPKNS_4geom10LineStringE@Base 3.4.2
 _ZN4geos9operation7overlay8validate20OffsetPointGenerator14computeOffsetsERKNS_4geom10CoordinateES7_@Base 3.4.2
 _ZN4geos9operation7overlay8validate20OffsetPointGenerator9getPointsEv@Base 3.4.2
 _ZN4geos9operation7overlay8validate20OffsetPointGeneratorC1ERKNS_4geom8GeometryEd@Base 3.4.2
 _ZN4geos9operation7overlay8validate20OffsetPointGeneratorC2ERKNS_4geom8GeometryEd@Base 3.4.2
 _ZN4geos9operation7overlay8validate22OverlayResultValidator10addTestPtsERKNS_4geom8GeometryE@Base 3.4.2
 _ZN4geos9operation7overlay8validate22OverlayResultValidator11addVerticesERKNS_4geom8GeometryE@Base 3.4.2
 _ZN4geos9operation7overlay8validate22OverlayResultValidator13isValidResultENS1_9OverlayOp6OpCodeERSt6vectorINS_4geom8Location5ValueESaIS9_EE@Base 3.4.2
 _ZN4geos9operation7overlay8validate22OverlayResultValidator32computeBoundaryDistanceToleranceERKNS_4geom8GeometryES7_@Base 3.4.2
 _ZN4geos9operation7overlay8validate22OverlayResultValidator7isValidENS1_9OverlayOp6OpCodeE@Base 3.4.2
 _ZN4geos9operation7overlay8validate22OverlayResultValidator7isValidERKNS_4geom8GeometryES7_NS1_9OverlayOp6OpCodeES7_@Base 3.4.2
 _ZN4geos9operation7overlay8validate22OverlayResultValidator9testValidENS1_9OverlayOp6OpCodeE@Base 3.4.2
 _ZN4geos9operation7overlay8validate22OverlayResultValidator9testValidENS1_9OverlayOp6OpCodeERKNS_4geom10CoordinateE@Base 3.4.2
 _ZN4geos9operation7overlay8validate22OverlayResultValidatorC1ERKNS_4geom8GeometryES7_S7_@Base 3.4.2
 _ZN4geos9operation7overlay8validate22OverlayResultValidatorC2ERKNS_4geom8GeometryES7_S7_@Base 3.4.2
 _ZN4geos9operation7overlay8validate22OverlayResultValidatorD1Ev@Base 3.4.2
 _ZN4geos9operation7overlay8validate22OverlayResultValidatorD2Ev@Base 3.4.2
 _ZN4geos9operation7overlay9OverlayOp10copyPointsEiPKNS_4geom8EnvelopeE@Base 3.5.0
 _ZN4geos9operation7overlay9OverlayOp11getAverageZEPKNS_4geom7PolygonE@Base 3.4.2
 _ZN4geos9operation7overlay9OverlayOp11getAverageZEi@Base 3.4.2
 _ZN4geos9operation7overlay9OverlayOp12isCoveredByAERKNS_4geom10CoordinateE@Base 3.4.2
 _ZN4geos9operation7overlay9OverlayOp12isResultOfOpERKNS_9geomgraph5LabelENS2_6OpCodeE@Base 3.4.2
 _ZN4geos9operation7overlay9OverlayOp12isResultOfOpEiiNS2_6OpCodeE@Base 3.4.2
 _ZN4geos9operation7overlay9OverlayOp13isCoveredByLAERKNS_4geom10CoordinateE@Base 3.4.2
 _ZN4geos9operation7overlay9OverlayOp14computeOverlayENS2_6OpCodeE@Base 3.4.2
 _ZN4geos9operation7overlay9OverlayOp14mergeSymLabelsEv@Base 3.4.2
 _ZN4geos9operation7overlay9OverlayOp15computeGeometryEPSt6vectorIPNS_4geom5PointESaIS6_EEPS3_IPNS4_10LineStringESaISB_EEPS3_IPNS4_7PolygonESaISG_EE@Base 3.4.2
 _ZN4geos9operation7overlay9OverlayOp16computeLabellingEv@Base 3.4.2
 _ZN4geos9operation7overlay9OverlayOp16insertUniqueEdgeEPNS_9geomgraph4EdgeE@Base 3.4.2
 _ZN4geos9operation7overlay9OverlayOp17getResultGeometryENS2_6OpCodeE@Base 3.4.2
 _ZN4geos9operation7overlay9OverlayOp17insertUniqueEdgesEPSt6vectorIPNS_9geomgraph4EdgeESaIS6_EEPKNS_4geom8EnvelopeE@Base 3.5.0
 _ZN4geos9operation7overlay9OverlayOp19findResultAreaEdgesENS2_6OpCodeE@Base 3.4.2
 _ZN4geos9operation7overlay9OverlayOp19labelIncompleteNodeEPNS_9geomgraph4NodeEi@Base 3.4.2
 _ZN4geos9operation7overlay9OverlayOp19updateNodeLabellingEv@Base 3.4.2
 _ZN4geos9operation7overlay9OverlayOp20labelIncompleteNodesEv@Base 3.4.2
 _ZN4geos9operation7overlay9OverlayOp21replaceCollapsedEdgesEv@Base 3.4.2
 _ZN4geos9operation7overlay9OverlayOp23computeLabelsFromDepthsEv@Base 3.4.2
 _ZN4geos9operation7overlay9OverlayOp25checkObviouslyWrongResultENS2_6OpCodeE@Base 3.4.2
 _ZN4geos9operation7overlay9OverlayOp26cancelDuplicateResultEdgesEv@Base 3.4.2
 _ZN4geos9operation7overlay9OverlayOp9isCoveredERKNS_4geom10CoordinateEPSt6vectorIPNS3_10LineStringESaIS9_EE@Base 3.4.2
 _ZN4geos9operation7overlay9OverlayOp9isCoveredERKNS_4geom10CoordinateEPSt6vectorIPNS3_7PolygonESaIS9_EE@Base 3.4.2
 _ZN4geos9operation7overlay9OverlayOp9isCoveredERKNS_4geom10CoordinateEPSt6vectorIPNS3_8GeometryESaIS9_EE@Base 3.4.2
 _ZN4geos9operation7overlay9OverlayOp9overlayOpEPKNS_4geom8GeometryES6_NS2_6OpCodeE@Base 3.4.2
 _ZN4geos9operation7overlay9OverlayOpC1EPKNS_4geom8GeometryES6_@Base 3.4.2
 _ZN4geos9operation7overlay9OverlayOpC2EPKNS_4geom8GeometryES6_@Base 3.4.2
 _ZN4geos9operation7overlay9OverlayOpD0Ev@Base 3.4.2
 _ZN4geos9operation7overlay9OverlayOpD1Ev@Base 3.4.2
 _ZN4geos9operation7overlay9OverlayOpD2Ev@Base 3.4.2
 _ZN4geos9operation8distance10DistanceOp13closestPointsEPKNS_4geom8GeometryES6_@Base 3.4.2
 _ZN4geos9operation8distance10DistanceOp13closestPointsEv@Base 3.4.2
 _ZN4geos9operation8distance10DistanceOp13computeInsideEPNS1_16GeometryLocationEPKNS_4geom7PolygonEPSt6vectorIS4_SaIS4_EE@Base 3.4.2
 _ZN4geos9operation8distance10DistanceOp13computeInsideEPSt6vectorIPNS1_16GeometryLocationESaIS5_EERKS3_IPKNS_4geom7PolygonESaISC_EES8_@Base 3.4.2
 _ZN4geos9operation8distance10DistanceOp13nearestPointsEPKNS_4geom8GeometryES6_@Base 3.4.2
 _ZN4geos9operation8distance10DistanceOp13nearestPointsEv@Base 3.4.2
 _ZN4geos9operation8distance10DistanceOp16isWithinDistanceERKNS_4geom8GeometryES6_d@Base 3.4.2
 _ZN4geos9operation8distance10DistanceOp16nearestLocationsEv@Base 3.4.2
 _ZN4geos9operation8distance10DistanceOp17updateMinDistanceERSt6vectorIPNS1_16GeometryLocationESaIS5_EEb@Base 3.4.2
 _ZN4geos9operation8distance10DistanceOp18computeMinDistanceEPKNS_4geom10LineStringEPKNS3_5PointERSt6vectorIPNS1_16GeometryLocationESaISC_EE@Base 3.4.2
 _ZN4geos9operation8distance10DistanceOp18computeMinDistanceEPKNS_4geom10LineStringES6_RSt6vectorIPNS1_16GeometryLocationESaIS9_EE@Base 3.4.2
 _ZN4geos9operation8distance10DistanceOp18computeMinDistanceEv@Base 3.4.2
 _ZN4geos9operation8distance10DistanceOp20computeFacetDistanceEv@Base 3.4.2
 _ZN4geos9operation8distance10DistanceOp23computeMinDistanceLinesERKSt6vectorIPKNS_4geom10LineStringESaIS7_EESB_RS3_IPNS1_16GeometryLocationESaISD_EE@Base 3.4.2
 _ZN4geos9operation8distance10DistanceOp24computeMinDistancePointsERKSt6vectorIPKNS_4geom5PointESaIS7_EESB_RS3_IPNS1_16GeometryLocationESaISD_EE@Base 3.4.2
 _ZN4geos9operation8distance10DistanceOp26computeContainmentDistanceEv@Base 3.4.2
 _ZN4geos9operation8distance10DistanceOp29computeMinDistanceLinesPointsERKSt6vectorIPKNS_4geom10LineStringESaIS7_EERKS3_IPKNS4_5PointESaISE_EERS3_IPNS1_16GeometryLocationESaISK_EE@Base 3.4.2
 _ZN4geos9operation8distance10DistanceOp8distanceEPKNS_4geom8GeometryES6_@Base 3.4.2
 _ZN4geos9operation8distance10DistanceOp8distanceERKNS_4geom8GeometryES6_@Base 3.4.2
 _ZN4geos9operation8distance10DistanceOp8distanceEv@Base 3.4.2
 _ZN4geos9operation8distance10DistanceOpC1EPKNS_4geom8GeometryES6_@Base 3.4.2
 _ZN4geos9operation8distance10DistanceOpC1ERKNS_4geom8GeometryES6_@Base 3.4.2
 _ZN4geos9operation8distance10DistanceOpC1ERKNS_4geom8GeometryES6_d@Base 3.4.2
 _ZN4geos9operation8distance10DistanceOpC2EPKNS_4geom8GeometryES6_@Base 3.4.2
 _ZN4geos9operation8distance10DistanceOpC2ERKNS_4geom8GeometryES6_@Base 3.4.2
 _ZN4geos9operation8distance10DistanceOpC2ERKNS_4geom8GeometryES6_d@Base 3.4.2
 _ZN4geos9operation8distance10DistanceOpD1Ev@Base 3.4.2
 _ZN4geos9operation8distance10DistanceOpD2Ev@Base 3.4.2
 _ZN4geos9operation8distance16GeometryLocation12isInsideAreaEv@Base 3.4.2
 _ZN4geos9operation8distance16GeometryLocation13getCoordinateEv@Base 3.4.2
 _ZN4geos9operation8distance16GeometryLocation15getSegmentIndexEv@Base 3.4.2
 _ZN4geos9operation8distance16GeometryLocation20getGeometryComponentEv@Base 3.4.2
 _ZN4geos9operation8distance16GeometryLocationC1EPKNS_4geom8GeometryERKNS3_10CoordinateE@Base 3.4.2
 _ZN4geos9operation8distance16GeometryLocationC1EPKNS_4geom8GeometryEiRKNS3_10CoordinateE@Base 3.4.2
 _ZN4geos9operation8distance16GeometryLocationC2EPKNS_4geom8GeometryERKNS3_10CoordinateE@Base 3.4.2
 _ZN4geos9operation8distance16GeometryLocationC2EPKNS_4geom8GeometryEiRKNS3_10CoordinateE@Base 3.4.2
 _ZN4geos9operation8distance27ConnectedElementPointFilter14getCoordinatesEPKNS_4geom8GeometryE@Base 3.4.2
 _ZN4geos9operation8distance27ConnectedElementPointFilter9filter_roEPKNS_4geom8GeometryE@Base 3.4.2
 _ZN4geos9operation8distance27ConnectedElementPointFilterD0Ev@Base 3.4.2
 _ZN4geos9operation8distance27ConnectedElementPointFilterD1Ev@Base 3.4.2
 _ZN4geos9operation8distance27ConnectedElementPointFilterD2Ev@Base 3.4.2
 _ZN4geos9operation8distance30ConnectedElementLocationFilter12getLocationsEPKNS_4geom8GeometryE@Base 3.4.2
 _ZN4geos9operation8distance30ConnectedElementLocationFilter9filter_roEPKNS_4geom8GeometryE@Base 3.4.2
 _ZN4geos9operation8distance30ConnectedElementLocationFilter9filter_rwEPNS_4geom8GeometryE@Base 3.4.2
 _ZN4geos9operation8distance30ConnectedElementLocationFilterD0Ev@Base 3.4.2
 _ZN4geos9operation8distance30ConnectedElementLocationFilterD1Ev@Base 3.4.2
 _ZN4geos9operation8distance30ConnectedElementLocationFilterD2Ev@Base 3.4.2
 _ZN4geos9operation8geounion12UnaryUnionOp13unionWithNullESt8auto_ptrINS_4geom8GeometryEES6_@Base 3.4.2
 _ZN4geos9operation8geounion12UnaryUnionOp5UnionEv@Base 3.4.2
 _ZN4geos9operation8geounion12UnaryUnionOpD1Ev@Base 3.4.2
 _ZN4geos9operation8geounion12UnaryUnionOpD2Ev@Base 3.4.2
 _ZN4geos9operation8geounion13CascadedUnion11binaryUnionEPNS1_18GeometryListHolderE@Base 3.4.2
 _ZN4geos9operation8geounion13CascadedUnion11binaryUnionEPNS1_18GeometryListHolderEmm@Base 3.5.0
 _ZN4geos9operation8geounion13CascadedUnion11unionActualEPNS_4geom8GeometryES5_@Base 3.4.2
 _ZN4geos9operation8geounion13CascadedUnion14unionOptimizedEPNS_4geom8GeometryES5_@Base 3.4.2
 _ZN4geos9operation8geounion13CascadedUnion17extractByEnvelopeERKNS_4geom8EnvelopeEPNS3_8GeometryERSt6vectorIS8_SaIS8_EE@Base 3.4.2
 _ZN4geos9operation8geounion13CascadedUnion18reduceToGeometriesEPNS_5index7strtree9ItemsListE@Base 3.4.2
 _ZN4geos9operation8geounion13CascadedUnion30unionUsingEnvelopeIntersectionEPNS_4geom8GeometryES5_RKNS3_8EnvelopeE@Base 3.4.2
 _ZN4geos9operation8geounion13CascadedUnion5UnionEPSt6vectorIPNS_4geom8GeometryESaIS6_EE@Base 3.4.2
 _ZN4geos9operation8geounion13CascadedUnion5UnionEv@Base 3.4.2
 _ZN4geos9operation8geounion13CascadedUnion9unionSafeEPNS_4geom8GeometryES5_@Base 3.4.2
 _ZN4geos9operation8geounion13CascadedUnion9unionTreeEPNS_5index7strtree9ItemsListE@Base 3.4.2
 _ZN4geos9operation8geounion18GeometryListHolder10deleteItemEPNS_4geom8GeometryE@Base 3.4.2
 _ZN4geos9operation8geounion18PointGeometryUnion5UnionERKNS_4geom6PuntalERKNS3_8GeometryE@Base 3.4.2
 _ZN4geos9operation8geounion18PointGeometryUnionC1ERKNS_4geom6PuntalERKNS3_8GeometryE@Base 3.4.2
 _ZN4geos9operation8geounion18PointGeometryUnionC2ERKNS_4geom6PuntalERKNS3_8GeometryE@Base 3.4.2
 _ZN4geos9operation8geounion20CascadedPolygonUnion11binaryUnionEPNS1_18GeometryListHolderE@Base 3.4.2
 _ZN4geos9operation8geounion20CascadedPolygonUnion11binaryUnionEPNS1_18GeometryListHolderEmm@Base 3.5.0
 _ZN4geos9operation8geounion20CascadedPolygonUnion11unionActualEPNS_4geom8GeometryES5_@Base 3.4.2
 _ZN4geos9operation8geounion20CascadedPolygonUnion14unionOptimizedEPNS_4geom8GeometryES5_@Base 3.4.2
 _ZN4geos9operation8geounion20CascadedPolygonUnion17extractByEnvelopeERKNS_4geom8EnvelopeEPNS3_8GeometryERSt6vectorIS8_SaIS8_EE@Base 3.4.2
 _ZN4geos9operation8geounion20CascadedPolygonUnion18reduceToGeometriesEPNS_5index7strtree9ItemsListE@Base 3.4.2
 _ZN4geos9operation8geounion20CascadedPolygonUnion18restrictToPolygonsESt8auto_ptrINS_4geom8GeometryEE@Base 3.4.2
 _ZN4geos9operation8geounion20CascadedPolygonUnion30unionUsingEnvelopeIntersectionEPNS_4geom8GeometryES5_RKNS3_8EnvelopeE@Base 3.4.2
 _ZN4geos9operation8geounion20CascadedPolygonUnion5UnionEPKNS_4geom12MultiPolygonE@Base 3.4.2
 _ZN4geos9operation8geounion20CascadedPolygonUnion5UnionEPSt6vectorIPNS_4geom7PolygonESaIS6_EE@Base 3.4.2
 _ZN4geos9operation8geounion20CascadedPolygonUnion5UnionEv@Base 3.4.2
 _ZN4geos9operation8geounion20CascadedPolygonUnion9unionSafeEPNS_4geom8GeometryES5_@Base 3.4.2
 _ZN4geos9operation8geounion20CascadedPolygonUnion9unionTreeEPNS_5index7strtree9ItemsListE@Base 3.4.2
 _ZN4geos9operation9linemerge10EdgeString12toLineStringEv@Base 3.4.2
 _ZN4geos9operation9linemerge10EdgeString14getCoordinatesEv@Base 3.4.2
 _ZN4geos9operation9linemerge10EdgeString3addEPNS1_21LineMergeDirectedEdgeE@Base 3.4.2
 _ZN4geos9operation9linemerge10EdgeStringC1EPKNS_4geom15GeometryFactoryE@Base 3.4.2
 _ZN4geos9operation9linemerge10EdgeStringC2EPKNS_4geom15GeometryFactoryE@Base 3.4.2
 _ZN4geos9operation9linemerge10EdgeStringD1Ev@Base 3.4.2
 _ZN4geos9operation9linemerge10EdgeStringD2Ev@Base 3.4.2
 _ZN4geos9operation9linemerge10LineMerger20getMergedLineStringsEv@Base 3.4.2
 _ZN4geos9operation9linemerge10LineMerger26buildEdgeStringsStartingAtEPNS_11planargraph4NodeE@Base 3.4.2
 _ZN4geos9operation9linemerge10LineMerger27buildEdgeStringStartingWithEPNS1_21LineMergeDirectedEdgeE@Base 3.4.2
 _ZN4geos9operation9linemerge10LineMerger32buildEdgeStringsForIsolatedLoopsEv@Base 3.4.2
 _ZN4geos9operation9linemerge10LineMerger34buildEdgeStringsForNonDegree2NodesEv@Base 3.4.2
 _ZN4geos9operation9linemerge10LineMerger35buildEdgeStringsForUnprocessedNodesEv@Base 3.4.2
 _ZN4geos9operation9linemerge10LineMerger36buildEdgeStringsForObviousStartNodesEv@Base 3.4.2
 _ZN4geos9operation9linemerge10LineMerger3addEPKNS_4geom10LineStringE@Base 3.4.2
 _ZN4geos9operation9linemerge10LineMerger3addEPKNS_4geom8GeometryE@Base 3.4.2
 _ZN4geos9operation9linemerge10LineMerger3addEPSt6vectorIPNS_4geom8GeometryESaIS6_EE@Base 3.4.2
 _ZN4geos9operation9linemerge10LineMerger5mergeEv@Base 3.4.2
 _ZN4geos9operation9linemerge10LineMergerC1Ev@Base 3.4.2
 _ZN4geos9operation9linemerge10LineMergerC2Ev@Base 3.4.2
 _ZN4geos9operation9linemerge10LineMergerD1Ev@Base 3.4.2
 _ZN4geos9operation9linemerge10LineMergerD2Ev@Base 3.4.2
 _ZN4geos9operation9linemerge13LineMergeEdgeC1EPKNS_4geom10LineStringE@Base 3.4.2
 _ZN4geos9operation9linemerge13LineMergeEdgeC2EPKNS_4geom10LineStringE@Base 3.4.2
 _ZN4geos9operation9linemerge13LineMergeEdgeD0Ev@Base 3.4.2
 _ZN4geos9operation9linemerge13LineMergeEdgeD1Ev@Base 3.4.2
 _ZN4geos9operation9linemerge13LineMergeEdgeD2Ev@Base 3.4.2
 _ZN4geos9operation9linemerge13LineSequencer11hasSequenceERNS_11planargraph8SubgraphE@Base 3.4.2
 _ZN4geos9operation9linemerge13LineSequencer11isSequencedEPKNS_4geom8GeometryE@Base 3.4.2
 _ZN4geos9operation9linemerge13LineSequencer12findSequenceB5cxx11ERNS_11planargraph8SubgraphE@Base 3.4.2
 _ZN4geos9operation9linemerge13LineSequencer13findSequencesB5cxx11Ev@Base 3.4.2
 _ZN4geos9operation9linemerge13LineSequencer15computeSequenceEv@Base 3.4.2
 _ZN4geos9operation9linemerge13LineSequencer17addReverseSubpathEPKNS_11planargraph12DirectedEdgeERNSt7__cxx114listIPS4_SaIS9_EEESt14_List_iteratorIS9_Eb@Base 3.4.2
 _ZN4geos9operation9linemerge13LineSequencer20findLowestDegreeNodeERKNS_11planargraph8SubgraphE@Base 3.4.2
 _ZN4geos9operation9linemerge13LineSequencer22buildSequencedGeometryERKSt6vectorIPNSt7__cxx114listIPNS_11planargraph12DirectedEdgeESaIS8_EEESaISB_EE@Base 3.4.2
 _ZN4geos9operation9linemerge13LineSequencer27findUnvisitedBestOrientedDEEPKNS_11planargraph4NodeE@Base 3.4.2
 _ZN4geos9operation9linemerge13LineSequencer6delAllERSt6vectorIPNSt7__cxx114listIPNS_11planargraph12DirectedEdgeESaIS8_EEESaISB_EE@Base 3.4.2
 _ZN4geos9operation9linemerge13LineSequencer6orientEPNSt7__cxx114listIPNS_11planargraph12DirectedEdgeESaIS7_EEE@Base 3.4.2
 _ZN4geos9operation9linemerge13LineSequencer7addLineEPKNS_4geom10LineStringE@Base 3.4.2
 _ZN4geos9operation9linemerge13LineSequencer7reverseEPKNS_4geom10LineStringE@Base 3.4.2
 _ZN4geos9operation9linemerge13LineSequencer7reverseERNSt7__cxx114listIPNS_11planargraph12DirectedEdgeESaIS7_EEE@Base 3.4.2
 _ZN4geos9operation9linemerge14LineMergeGraph7addEdgeEPKNS_4geom10LineStringE@Base 3.4.2
 _ZN4geos9operation9linemerge14LineMergeGraph7getNodeERKNS_4geom10CoordinateE@Base 3.4.2
 _ZN4geos9operation9linemerge14LineMergeGraphD0Ev@Base 3.4.2
 _ZN4geos9operation9linemerge14LineMergeGraphD1Ev@Base 3.4.2
 _ZN4geos9operation9linemerge14LineMergeGraphD2Ev@Base 3.4.2
 _ZN4geos9operation9linemerge21LineMergeDirectedEdge7getNextEv@Base 3.4.2
 _ZN4geos9operation9linemerge21LineMergeDirectedEdgeC1EPNS_11planargraph4NodeES5_RKNS_4geom10CoordinateEb@Base 3.4.2
 _ZN4geos9operation9linemerge21LineMergeDirectedEdgeC2EPNS_11planargraph4NodeES5_RKNS_4geom10CoordinateEb@Base 3.4.2
 _ZN4geos9operation9linemerge21LineMergeDirectedEdgeD0Ev@Base 3.4.2
 _ZN4geos9operation9linemerge21LineMergeDirectedEdgeD1Ev@Base 3.4.2
 _ZN4geos9operation9linemerge21LineMergeDirectedEdgeD2Ev@Base 3.4.2
 _ZN4geos9operation9linemerge25LMGeometryComponentFilterD0Ev@Base 3.4.2
 _ZN4geos9operation9linemerge25LMGeometryComponentFilterD1Ev@Base 3.4.2
 _ZN4geos9operation9linemerge25LMGeometryComponentFilterD2Ev@Base 3.4.2
 _ZN4geos9operation9predicate17RectangleContains21isContainedInBoundaryERKNS_4geom8GeometryE@Base 3.4.2
 _ZN4geos9operation9predicate17RectangleContains26isPointContainedInBoundaryERKNS_4geom10CoordinateE@Base 3.4.2
 _ZN4geos9operation9predicate17RectangleContains26isPointContainedInBoundaryERKNS_4geom5PointE@Base 3.4.2
 _ZN4geos9operation9predicate17RectangleContains31isLineStringContainedInBoundaryERKNS_4geom10LineStringE@Base 3.4.2
 _ZN4geos9operation9predicate17RectangleContains32isLineSegmentContainedInBoundaryERKNS_4geom10CoordinateES6_@Base 3.4.2
 _ZN4geos9operation9predicate17RectangleContains8containsERKNS_4geom8GeometryE@Base 3.4.2
 _ZN4geos9operation9predicate19RectangleIntersects10intersectsERKNS_4geom8GeometryE@Base 3.4.2
 _ZN4geos9operation9predicate20ContainsPointVisitor5visitERKNS_4geom8GeometryE@Base 3.4.2
 _ZN4geos9operation9predicate20ContainsPointVisitor6isDoneEv@Base 3.4.2
 _ZN4geos9operation9predicate20ContainsPointVisitorD0Ev@Base 3.4.2
 _ZN4geos9operation9predicate20ContainsPointVisitorD1Ev@Base 3.4.2
 _ZN4geos9operation9predicate20ContainsPointVisitorD2Ev@Base 3.4.2
 _ZN4geos9operation9predicate21LineIntersectsVisitor5visitERKNS_4geom8GeometryE@Base 3.4.2
 _ZN4geos9operation9predicate21LineIntersectsVisitor6isDoneEv@Base 3.4.2
 _ZN4geos9operation9predicate21LineIntersectsVisitorD0Ev@Base 3.4.2
 _ZN4geos9operation9predicate21LineIntersectsVisitorD1Ev@Base 3.4.2
 _ZN4geos9operation9predicate21LineIntersectsVisitorD2Ev@Base 3.4.2
 _ZN4geos9operation9predicate25EnvelopeIntersectsVisitor5visitERKNS_4geom8GeometryE@Base 3.4.2
 _ZN4geos9operation9predicate25EnvelopeIntersectsVisitor6isDoneEv@Base 3.4.2
 _ZN4geos9operation9predicate25EnvelopeIntersectsVisitorD0Ev@Base 3.4.2
 _ZN4geos9operation9predicate25EnvelopeIntersectsVisitorD1Ev@Base 3.4.2
 _ZN4geos9operation9predicate25EnvelopeIntersectsVisitorD2Ev@Base 3.4.2
 _ZN4geos9operation9predicate25SegmentIntersectionTester15hasIntersectionERKNS_4geom10LineStringES6_@Base 3.4.2
 _ZN4geos9operation9predicate25SegmentIntersectionTester30hasIntersectionWithLineStringsERKNS_4geom10LineStringERKSt6vectorIPS5_SaIS8_EE@Base 3.4.2
 _ZN4geos9operation9predicate25SegmentIntersectionTester33hasIntersectionWithEnvelopeFilterERKNS_4geom10LineStringES6_@Base 3.4.2
 _ZN4geos9precision10CommonBits11signExpBitsEx@Base 3.5.0
 _ZN4geos9precision10CommonBits13zeroLowerBitsExi@Base 3.5.0
 _ZN4geos9precision10CommonBits28numCommonMostSigMantissaBitsExx@Base 3.5.0
 _ZN4geos9precision10CommonBits3addEd@Base 3.4.2
 _ZN4geos9precision10CommonBits6getBitExi@Base 3.5.0
 _ZN4geos9precision10CommonBits9getCommonEv@Base 3.4.2
 _ZN4geos9precision10CommonBitsC1Ev@Base 3.4.2
 _ZN4geos9precision10CommonBitsC2Ev@Base 3.4.2
 _ZN4geos9precision10Translater9filter_roEPKNS_4geom10CoordinateE@Base 3.4.2
 _ZN4geos9precision10TranslaterD0Ev@Base 3.4.2
 _ZN4geos9precision10TranslaterD1Ev@Base 3.4.2
 _ZN4geos9precision10TranslaterD2Ev@Base 3.4.2
 _ZN4geos9precision12CommonBitsOp10differenceEPKNS_4geom8GeometryES5_@Base 3.4.2
 _ZN4geos9precision12CommonBitsOp12intersectionEPKNS_4geom8GeometryES5_@Base 3.4.2
 _ZN4geos9precision12CommonBitsOp13symDifferenceEPKNS_4geom8GeometryES5_@Base 3.4.2
 _ZN4geos9precision12CommonBitsOp16removeCommonBitsEPKNS_4geom8GeometryE@Base 3.4.2
 _ZN4geos9precision12CommonBitsOp16removeCommonBitsEPKNS_4geom8GeometryES5_RSt8auto_ptrIS3_ES8_@Base 3.4.2
 _ZN4geos9precision12CommonBitsOp22computeResultPrecisionEPNS_4geom8GeometryE@Base 3.4.2
 _ZN4geos9precision12CommonBitsOp5UnionEPKNS_4geom8GeometryES5_@Base 3.4.2
 _ZN4geos9precision12CommonBitsOp6bufferEPKNS_4geom8GeometryEd@Base 3.4.2
 _ZN4geos9precision12CommonBitsOpC1Eb@Base 3.4.2
 _ZN4geos9precision12CommonBitsOpC1Ev@Base 3.4.2
 _ZN4geos9precision12CommonBitsOpC2Eb@Base 3.4.2
 _ZN4geos9precision12CommonBitsOpC2Ev@Base 3.4.2
 _ZN4geos9precision17CommonBitsRemover13addCommonBitsEPNS_4geom8GeometryE@Base 3.4.2
 _ZN4geos9precision17CommonBitsRemover16removeCommonBitsEPNS_4geom8GeometryE@Base 3.4.2
 _ZN4geos9precision17CommonBitsRemover19getCommonCoordinateEv@Base 3.4.2
 _ZN4geos9precision17CommonBitsRemover3addEPKNS_4geom8GeometryE@Base 3.4.2
 _ZN4geos9precision17CommonBitsRemoverC1Ev@Base 3.4.2
 _ZN4geos9precision17CommonBitsRemoverC2Ev@Base 3.4.2
 _ZN4geos9precision17CommonBitsRemoverD1Ev@Base 3.4.2
 _ZN4geos9precision17CommonBitsRemoverD2Ev@Base 3.4.2
 _ZN4geos9precision19EnhancedPrecisionOp10differenceEPKNS_4geom8GeometryES5_@Base 3.4.2
 _ZN4geos9precision19EnhancedPrecisionOp12intersectionEPKNS_4geom8GeometryES5_@Base 3.4.2
 _ZN4geos9precision19EnhancedPrecisionOp13symDifferenceEPKNS_4geom8GeometryES5_@Base 3.4.2
 _ZN4geos9precision19EnhancedPrecisionOp5UnionEPKNS_4geom8GeometryES5_@Base 3.4.2
 _ZN4geos9precision19EnhancedPrecisionOp6bufferEPKNS_4geom8GeometryEd@Base 3.4.2
 _ZN4geos9precision22CommonCoordinateFilter9filter_roEPKNS_4geom10CoordinateE@Base 3.4.2
 _ZN4geos9precision22CommonCoordinateFilterD0Ev@Base 3.4.2
 _ZN4geos9precision22CommonCoordinateFilterD1Ev@Base 3.4.2
 _ZN4geos9precision22CommonCoordinateFilterD2Ev@Base 3.4.2
 _ZN4geos9precision24GeometryPrecisionReducer13createFactoryERKNS_4geom15GeometryFactoryERKNS2_14PrecisionModelE@Base 3.4.2
 _ZN4geos9precision24GeometryPrecisionReducer15reducePointwiseERKNS_4geom8GeometryE@Base 3.4.2
 _ZN4geos9precision24GeometryPrecisionReducer20fixPolygonalTopologyERKNS_4geom8GeometryE@Base 3.4.2
 _ZN4geos9precision24GeometryPrecisionReducer6reduceERKNS_4geom8GeometryE@Base 3.4.2
 _ZN4geos9precision24GeometryPrecisionReducerC1ERKNS_4geom15GeometryFactoryE@Base 3.4.2
 _ZN4geos9precision24GeometryPrecisionReducerC2ERKNS_4geom15GeometryFactoryE@Base 3.4.2
 _ZN4geos9precision30SimpleGeometryPrecisionReducer17getPrecisionModelEv@Base 3.4.2
 _ZN4geos9precision30SimpleGeometryPrecisionReducer18getRemoveCollapsedEv@Base 3.4.2
 _ZN4geos9precision30SimpleGeometryPrecisionReducer28setRemoveCollapsedComponentsEb@Base 3.4.2
 _ZN4geos9precision30SimpleGeometryPrecisionReducer6reduceEPKNS_4geom8GeometryE@Base 3.4.2
 _ZN4geos9precision30SimpleGeometryPrecisionReducerC1EPKNS_4geom14PrecisionModelE@Base 3.4.2
 _ZN4geos9precision30SimpleGeometryPrecisionReducerC2EPKNS_4geom14PrecisionModelE@Base 3.4.2
 _ZN4geos9precision35PrecisionReducerCoordinateOperation4editEPKNS_4geom18CoordinateSequenceEPKNS2_8GeometryE@Base 3.4.2
 _ZN4geos9precision35PrecisionReducerCoordinateOperationD0Ev@Base 3.4.2
 _ZN4geos9precision35PrecisionReducerCoordinateOperationD1Ev@Base 3.4.2
 _ZN4geos9precision35PrecisionReducerCoordinateOperationD2Ev@Base 3.4.2
 _ZNK4geos11planargraph12DirectedEdge11getFromNodeEv@Base 3.4.2
 _ZNK4geos11planargraph12DirectedEdge11getQuadrantEv@Base 3.4.2
 _ZNK4geos11planargraph12DirectedEdge13getCoordinateEv@Base 3.4.2
 _ZNK4geos11planargraph12DirectedEdge14getDirectionPtEv@Base 3.4.2
 _ZNK4geos11planargraph12DirectedEdge16compareDirectionEPKS1_@Base 3.4.2
 _ZNK4geos11planargraph12DirectedEdge16getEdgeDirectionEv@Base 3.4.2
 _ZNK4geos11planargraph12DirectedEdge5printB5cxx11Ev@Base 3.4.2
 _ZNK4geos11planargraph12DirectedEdge6getSymEv@Base 3.4.2
 _ZNK4geos11planargraph12DirectedEdge7getEdgeEv@Base 3.4.2
 _ZNK4geos11planargraph12DirectedEdge8getAngleEv@Base 3.4.2
 _ZNK4geos11planargraph12DirectedEdge9compareToEPKS1_@Base 3.4.2
 _ZNK4geos11planargraph12DirectedEdge9getToNodeEv@Base 3.4.2
 _ZNK4geos11planargraph14GraphComponent8isMarkedEv@Base 3.4.2
 _ZNK4geos11planargraph14GraphComponent9isVisitedEv@Base 3.4.2
 _ZNK4geos11planargraph16DirectedEdgeStar13getCoordinateEv@Base 3.4.2
 _ZNK4geos11planargraph16DirectedEdgeStar3endEv@Base 3.4.2
 _ZNK4geos11planargraph16DirectedEdgeStar5beginEv@Base 3.4.2
 _ZNK4geos11planargraph16DirectedEdgeStar8getIndexEi@Base 3.4.2
 _ZNK4geos11planargraph16DirectedEdgeStar9sortEdgesEv@Base 3.4.2
 _ZNK4geos11triangulate8quadedge19QuadEdgeSubdivision11isFrameEdgeERKNS1_8QuadEdgeE@Base 3.4.2
 _ZNK4geos11triangulate8quadedge19QuadEdgeSubdivision13isFrameVertexERKNS1_6VertexE@Base 3.4.2
 _ZNK4geos11triangulate8quadedge19QuadEdgeSubdivision14isVertexOfEdgeERKNS1_8QuadEdgeERKNS1_6VertexE@Base 3.4.2
 _ZNK4geos11triangulate8quadedge19QuadEdgeSubdivision14locateFromEdgeERKNS1_6VertexERKNS1_8QuadEdgeE@Base 3.4.2
 _ZNK4geos11triangulate8quadedge19QuadEdgeSubdivision17isFrameBorderEdgeERKNS1_8QuadEdgeE@Base 3.4.2
 _ZNK4geos11triangulate8quadedge19QuadEdgeSubdivision8isOnEdgeERKNS1_8QuadEdgeERKNS_4geom10CoordinateE@Base 3.4.2
 _ZNK4geos11triangulate8quadedge6Vertex10isInCircleERKS2_S4_S4_@Base 3.4.2
 _ZNK4geos11triangulate8quadedge6Vertex12circleCenterERKS2_S4_@Base 3.4.2
 _ZNK4geos11triangulate8quadedge6Vertex17interpolateZValueERKS2_S4_S4_@Base 3.4.2
 _ZNK4geos11triangulate8quadedge6Vertex6leftOfERKNS1_8QuadEdgeE@Base 3.4.2
 _ZNK4geos11triangulate8quadedge6Vertex7rightOfERKNS1_8QuadEdgeE@Base 3.4.2
 _ZNK4geos11triangulate8quadedge8QuadEdge10getPrimaryEv@Base 3.4.2
 _ZNK4geos11triangulate8quadedge8QuadEdge13toLineSegmentEv@Base 3.4.2
 _ZNK4geos11triangulate8quadedge8QuadEdge14equalsOrientedERKS2_@Base 3.4.2
 _ZNK4geos11triangulate8quadedge8QuadEdge17equalsNonOrientedERKS2_@Base 3.4.2
 _ZNK4geos2io9WKBWriter12getByteOrderEv@Base 3.4.2
 _ZNK4geos2io9WKBWriter14getIncludeSRIDEv@Base 3.4.2
 _ZNK4geos2io9WKBWriter18getOutputDimensionEv@Base 3.4.2
 _ZNK4geos4geom10Coordinate6equalsERKS1_@Base 3.4.2
 _ZNK4geos4geom10Coordinate6isNullEv@Base 3.4.2
 _ZNK4geos4geom10Coordinate8distanceERKS1_@Base 3.4.2
 _ZNK4geos4geom10Coordinate8equals2DERKS1_@Base 3.4.2
 _ZNK4geos4geom10Coordinate8equals3DERKS1_@Base 3.4.2
 _ZNK4geos4geom10Coordinate8hashCodeEv@Base 3.4.2
 _ZNK4geos4geom10Coordinate8toStringB5cxx11Ev@Base 3.4.2
 _ZNK4geos4geom10Coordinate9compareToERKS1_@Base 3.4.2
 _ZNK4geos4geom10LineString11equalsExactEPKNS0_8GeometryEd@Base 3.4.2
 _ZNK4geos4geom10LineString11getBoundaryEv@Base 3.4.2
 _ZNK4geos4geom10LineString11getEndPointEv@Base 3.4.2
 _ZNK4geos4geom10LineString12getDimensionEv@Base 3.4.2
 _ZNK4geos4geom10LineString12getNumPointsEv@Base 3.4.2
 _ZNK4geos4geom10LineString12isCoordinateERNS0_10CoordinateE@Base 3.4.2
 _ZNK4geos4geom10LineString13getCoordinateEv@Base 3.4.2
 _ZNK4geos4geom10LineString13getStartPointEv@Base 3.4.2
 _ZNK4geos4geom10LineString14getCoordinateNEi@Base 3.4.2
 _ZNK4geos4geom10LineString14getCoordinatesEv@Base 3.4.2
 _ZNK4geos4geom10LineString15getGeometryTypeB5cxx11Ev@Base 3.4.2
 _ZNK4geos4geom10LineString16getCoordinatesROEv@Base 3.4.2
 _ZNK4geos4geom10LineString17getGeometryTypeIdEv@Base 3.4.2
 _ZNK4geos4geom10LineString18compareToSameClassEPKNS0_8GeometryE@Base 3.4.2
 _ZNK4geos4geom10LineString20getBoundaryDimensionEv@Base 3.4.2
 _ZNK4geos4geom10LineString22getCoordinateDimensionEv@Base 3.4.2
 _ZNK4geos4geom10LineString23computeEnvelopeInternalEv@Base 3.4.2
 _ZNK4geos4geom10LineString5cloneEv@Base 3.4.2
 _ZNK4geos4geom10LineString6isRingEv@Base 3.4.2
 _ZNK4geos4geom10LineString7isEmptyEv@Base 3.4.2
 _ZNK4geos4geom10LineString7reverseEv@Base 3.4.2
 _ZNK4geos4geom10LineString8apply_roEPNS0_14GeometryFilterE@Base 3.4.2
 _ZNK4geos4geom10LineString8apply_roEPNS0_16CoordinateFilterE@Base 3.4.2
 _ZNK4geos4geom10LineString8apply_roEPNS0_23GeometryComponentFilterE@Base 3.4.2
 _ZNK4geos4geom10LineString8apply_roERNS0_24CoordinateSequenceFilterE@Base 3.4.2
 _ZNK4geos4geom10LineString8isClosedEv@Base 3.4.2
 _ZNK4geos4geom10LineString9getLengthEv@Base 3.4.2
 _ZNK4geos4geom10LineString9getPointNEm@Base 3.5.0
 _ZNK4geos4geom10LinearRing15getGeometryTypeB5cxx11Ev@Base 3.4.2
 _ZNK4geos4geom10LinearRing17getGeometryTypeIdEv@Base 3.4.2
 _ZNK4geos4geom10LinearRing20getBoundaryDimensionEv@Base 3.4.2
 _ZNK4geos4geom10LinearRing5cloneEv@Base 3.4.2
 _ZNK4geos4geom10LinearRing7reverseEv@Base 3.4.2
 _ZNK4geos4geom10LinearRing8isClosedEv@Base 3.4.2
 _ZNK4geos4geom10LinearRing8isSimpleEv@Base 3.4.2
 _ZNK4geos4geom10MultiPoint11equalsExactEPKNS0_8GeometryEd@Base 3.4.2
 _ZNK4geos4geom10MultiPoint11getBoundaryEv@Base 3.4.2
 _ZNK4geos4geom10MultiPoint12getDimensionEv@Base 3.4.2
 _ZNK4geos4geom10MultiPoint14getCoordinateNEi@Base 3.4.2
 _ZNK4geos4geom10MultiPoint15getGeometryTypeB5cxx11Ev@Base 3.4.2
 _ZNK4geos4geom10MultiPoint17getGeometryTypeIdEv@Base 3.4.2
 _ZNK4geos4geom10MultiPoint20getBoundaryDimensionEv@Base 3.4.2
 _ZNK4geos4geom10MultiPoint5cloneEv@Base 3.4.2
 _ZNK4geos4geom11LineSegment10equalsTopoERKS1_@Base 3.4.2
 _ZNK4geos4geom11LineSegment10isVerticalEv@Base 3.4.2
 _ZNK4geos4geom11LineSegment10pointAlongEdRNS0_10CoordinateE@Base 3.4.2
 _ZNK4geos4geom11LineSegment10toGeometryERKNS0_15GeometryFactoryE@Base 3.4.2
 _ZNK4geos4geom11LineSegment12closestPointERKNS0_10CoordinateERS2_@Base 3.4.2
 _ZNK4geos4geom11LineSegment12intersectionERKS1_RNS0_10CoordinateE@Base 3.4.2
 _ZNK4geos4geom11LineSegment12isHorizontalEv@Base 3.4.2
 _ZNK4geos4geom11LineSegment15segmentFractionERKNS0_10CoordinateE@Base 3.4.2
 _ZNK4geos4geom11LineSegment16lineIntersectionERKS1_RNS0_10CoordinateE@Base 3.4.2
 _ZNK4geos4geom11LineSegment16orientationIndexEPKS1_@Base 3.4.2
 _ZNK4geos4geom11LineSegment16orientationIndexERKNS0_10CoordinateE@Base 3.4.2
 _ZNK4geos4geom11LineSegment16orientationIndexERKS1_@Base 3.4.2
 _ZNK4geos4geom11LineSegment16pointAlongOffsetEddRNS0_10CoordinateE@Base 3.4.2
 _ZNK4geos4geom11LineSegment16projectionFactorERKNS0_10CoordinateE@Base 3.4.2
 _ZNK4geos4geom11LineSegment21distancePerpendicularERKNS0_10CoordinateE@Base 3.4.2
 _ZNK4geos4geom11LineSegment5angleEv@Base 3.4.2
 _ZNK4geos4geom11LineSegment7projectERKNS0_10CoordinateERS2_@Base 3.4.2
 _ZNK4geos4geom11LineSegment7projectERKS1_RS1_@Base 3.4.2
 _ZNK4geos4geom11LineSegment8distanceERKNS0_10CoordinateE@Base 3.4.2
 _ZNK4geos4geom11LineSegment8distanceERKS1_@Base 3.4.2
 _ZNK4geos4geom11LineSegment8midPointERNS0_10CoordinateE@Base 3.4.2
 _ZNK4geos4geom11LineSegment9compareToERKS1_@Base 3.4.2
 _ZNK4geos4geom11LineSegment9getLengthEv@Base 3.4.2
 _ZNK4geos4geom11LineSegmentixEm@Base 3.5.0
 _ZNK4geos4geom12GeometryList4sizeEv@Base 3.4.2
 _ZNK4geos4geom12GeometryListixEm@Base 3.5.0
 _ZNK4geos4geom12MultiPolygon11equalsExactEPKNS0_8GeometryEd@Base 3.4.2
 _ZNK4geos4geom12MultiPolygon11getBoundaryEv@Base 3.4.2
 _ZNK4geos4geom12MultiPolygon12getDimensionEv@Base 3.4.2
 _ZNK4geos4geom12MultiPolygon15getGeometryTypeB5cxx11Ev@Base 3.4.2
 _ZNK4geos4geom12MultiPolygon17getGeometryTypeIdEv@Base 3.4.2
 _ZNK4geos4geom12MultiPolygon20getBoundaryDimensionEv@Base 3.4.2
 _ZNK4geos4geom12MultiPolygon5cloneEv@Base 3.4.2
 _ZNK4geos4geom12MultiPolygon8isSimpleEv@Base 3.4.2
 _ZNK4geos4geom14PrecisionModel10getOffsetXEv@Base 3.4.2
 _ZNK4geos4geom14PrecisionModel10getOffsetYEv@Base 3.4.2
 _ZNK4geos4geom14PrecisionModel10isFloatingEv@Base 3.4.2
 _ZNK4geos4geom14PrecisionModel11makePreciseEPNS0_10CoordinateE@Base 3.4.2
 _ZNK4geos4geom14PrecisionModel11makePreciseERNS0_10CoordinateE@Base 3.4.2
 _ZNK4geos4geom14PrecisionModel11makePreciseEd@Base 3.4.2
 _ZNK4geos4geom14PrecisionModel27getMaximumSignificantDigitsEv@Base 3.4.2
 _ZNK4geos4geom14PrecisionModel7getTypeEv@Base 3.4.2
 _ZNK4geos4geom14PrecisionModel8getScaleEv@Base 3.4.2
 _ZNK4geos4geom14PrecisionModel8toStringB5cxx11Ev@Base 3.4.2
 _ZNK4geos4geom14PrecisionModel9compareToEPKS1_@Base 3.4.2
 _ZNK4geos4geom15GeometryFactory10toGeometryEPKNS0_8EnvelopeE@Base 3.4.2
 _ZNK4geos4geom15GeometryFactory11createPointEPNS0_18CoordinateSequenceE@Base 3.4.2
 _ZNK4geos4geom15GeometryFactory11createPointERKNS0_10CoordinateE@Base 3.4.2
 _ZNK4geos4geom15GeometryFactory11createPointERKNS0_18CoordinateSequenceE@Base 3.4.2
 _ZNK4geos4geom15GeometryFactory11createPointEv@Base 3.4.2
 _ZNK4geos4geom15GeometryFactory13buildGeometryEPSt6vectorIPNS0_8GeometryESaIS4_EE@Base 3.4.2
 _ZNK4geos4geom15GeometryFactory13buildGeometryERKSt6vectorIPNS0_8GeometryESaIS4_EE@Base 3.4.2
 _ZNK4geos4geom15GeometryFactory13createPolygonEPNS0_10LinearRingEPSt6vectorIPNS0_8GeometryESaIS6_EE@Base 3.4.2
 _ZNK4geos4geom15GeometryFactory13createPolygonERKNS0_10LinearRingERKSt6vectorIPNS0_8GeometryESaIS7_EE@Base 3.4.2
 _ZNK4geos4geom15GeometryFactory13createPolygonEv@Base 3.4.2
 _ZNK4geos4geom15GeometryFactory14createGeometryEPKNS0_8GeometryE@Base 3.4.2
 _ZNK4geos4geom15GeometryFactory15destroyGeometryEPNS0_8GeometryE@Base 3.4.2
 _ZNK4geos4geom15GeometryFactory16createLineStringEPNS0_18CoordinateSequenceE@Base 3.4.2
 _ZNK4geos4geom15GeometryFactory16createLineStringERKNS0_10LineStringE@Base 3.4.2
 _ZNK4geos4geom15GeometryFactory16createLineStringERKNS0_18CoordinateSequenceE@Base 3.4.2
 _ZNK4geos4geom15GeometryFactory16createLineStringESt8auto_ptrINS0_18CoordinateSequenceEE@Base 3.4.2
 _ZNK4geos4geom15GeometryFactory16createLineStringEv@Base 3.4.2
 _ZNK4geos4geom15GeometryFactory16createLinearRingEPNS0_18CoordinateSequenceE@Base 3.4.2
 _ZNK4geos4geom15GeometryFactory16createLinearRingERKNS0_18CoordinateSequenceE@Base 3.4.2
 _ZNK4geos4geom15GeometryFactory16createLinearRingESt8auto_ptrINS0_18CoordinateSequenceEE@Base 3.4.2
 _ZNK4geos4geom15GeometryFactory16createLinearRingEv@Base 3.4.2
 _ZNK4geos4geom15GeometryFactory16createMultiPointEPSt6vectorIPNS0_8GeometryESaIS4_EE@Base 3.4.2
 _ZNK4geos4geom15GeometryFactory16createMultiPointERKNS0_18CoordinateSequenceE@Base 3.4.2
 _ZNK4geos4geom15GeometryFactory16createMultiPointERKSt6vectorINS0_10CoordinateESaIS3_EE@Base 3.4.2
 _ZNK4geos4geom15GeometryFactory16createMultiPointERKSt6vectorIPNS0_8GeometryESaIS4_EE@Base 3.4.2
 _ZNK4geos4geom15GeometryFactory16createMultiPointEv@Base 3.4.2
 _ZNK4geos4geom15GeometryFactory17getPrecisionModelEv@Base 3.4.2
 _ZNK4geos4geom15GeometryFactory18createMultiPolygonEPSt6vectorIPNS0_8GeometryESaIS4_EE@Base 3.4.2
 _ZNK4geos4geom15GeometryFactory18createMultiPolygonERKSt6vectorIPNS0_8GeometryESaIS4_EE@Base 3.4.2
 _ZNK4geos4geom15GeometryFactory18createMultiPolygonEv@Base 3.4.2
 _ZNK4geos4geom15GeometryFactory19createEmptyGeometryEv@Base 3.4.2
 _ZNK4geos4geom15GeometryFactory21createMultiLineStringEPSt6vectorIPNS0_8GeometryESaIS4_EE@Base 3.4.2
 _ZNK4geos4geom15GeometryFactory21createMultiLineStringERKSt6vectorIPNS0_8GeometryESaIS4_EE@Base 3.4.2
 _ZNK4geos4geom15GeometryFactory21createMultiLineStringEv@Base 3.4.2
 _ZNK4geos4geom15GeometryFactory24createGeometryCollectionEPSt6vectorIPNS0_8GeometryESaIS4_EE@Base 3.4.2
 _ZNK4geos4geom15GeometryFactory24createGeometryCollectionERKSt6vectorIPNS0_8GeometryESaIS4_EE@Base 3.4.2
 _ZNK4geos4geom15GeometryFactory24createGeometryCollectionEv@Base 3.4.2
 _ZNK4geos4geom15GeometryFactory28createPointFromInternalCoordEPKNS0_10CoordinateEPKNS0_8GeometryE@Base 3.4.2
 _ZNK4geos4geom15GeometryFactory28getCoordinateSequenceFactoryEv@Base 3.4.2
 _ZNK4geos4geom15GeometryFactory7getSRIDEv@Base 3.4.2
 _ZNK4geos4geom15MultiLineString11equalsExactEPKNS0_8GeometryEd@Base 3.4.2
 _ZNK4geos4geom15MultiLineString11getBoundaryEv@Base 3.4.2
 _ZNK4geos4geom15MultiLineString12getDimensionEv@Base 3.4.2
 _ZNK4geos4geom15MultiLineString15getGeometryTypeB5cxx11Ev@Base 3.4.2
 _ZNK4geos4geom15MultiLineString17getGeometryTypeIdEv@Base 3.4.2
 _ZNK4geos4geom15MultiLineString20getBoundaryDimensionEv@Base 3.4.2
 _ZNK4geos4geom15MultiLineString5cloneEv@Base 3.4.2
 _ZNK4geos4geom15MultiLineString7reverseEv@Base 3.4.2
 _ZNK4geos4geom15MultiLineString8isClosedEv@Base 3.4.2
 _ZNK4geos4geom16CoordinateFilter9filter_rwEPNS0_10CoordinateE@Base 3.4.2
 _ZNK4geos4geom18CoordinateLessThenclEPKNS0_10CoordinateES4_@Base 3.4.2
 _ZNK4geos4geom18CoordinateLessThenclERKNS0_10CoordinateES4_@Base 3.4.2
 _ZNK4geos4geom18CoordinateSequence13minCoordinateEv@Base 3.4.2
 _ZNK4geos4geom18CoordinateSequence14expandEnvelopeERNS0_8EnvelopeE@Base 3.4.2
 _ZNK4geos4geom18CoordinateSequence17hasRepeatedPointsEv@Base 3.4.2
 _ZNK4geos4geom18CoordinateSequence4getXEm@Base 3.5.0
 _ZNK4geos4geom18CoordinateSequence4getYEm@Base 3.5.0
 _ZNK4geos4geom18GeometryCollection11equalsExactEPKNS0_8GeometryEd@Base 3.4.2
 _ZNK4geos4geom18GeometryCollection11getBoundaryEv@Base 3.4.2
 _ZNK4geos4geom18GeometryCollection12getDimensionEv@Base 3.4.2
 _ZNK4geos4geom18GeometryCollection12getGeometryNEm@Base 3.5.0
 _ZNK4geos4geom18GeometryCollection12getNumPointsEv@Base 3.4.2
 _ZNK4geos4geom18GeometryCollection13getCoordinateEv@Base 3.4.2
 _ZNK4geos4geom18GeometryCollection14getCoordinatesEv@Base 3.4.2
 _ZNK4geos4geom18GeometryCollection15getGeometryTypeB5cxx11Ev@Base 3.4.2
 _ZNK4geos4geom18GeometryCollection16getNumGeometriesEv@Base 3.4.2
 _ZNK4geos4geom18GeometryCollection17getGeometryTypeIdEv@Base 3.4.2
 _ZNK4geos4geom18GeometryCollection18compareToSameClassEPKNS0_8GeometryE@Base 3.4.2
 _ZNK4geos4geom18GeometryCollection20getBoundaryDimensionEv@Base 3.4.2
 _ZNK4geos4geom18GeometryCollection22getCoordinateDimensionEv@Base 3.4.2
 _ZNK4geos4geom18GeometryCollection23computeEnvelopeInternalEv@Base 3.4.2
 _ZNK4geos4geom18GeometryCollection3endEv@Base 3.4.2
 _ZNK4geos4geom18GeometryCollection5beginEv@Base 3.4.2
 _ZNK4geos4geom18GeometryCollection5cloneEv@Base 3.4.2
 _ZNK4geos4geom18GeometryCollection7getAreaEv@Base 3.4.2
 _ZNK4geos4geom18GeometryCollection7isEmptyEv@Base 3.4.2
 _ZNK4geos4geom18GeometryCollection8apply_roEPNS0_14GeometryFilterE@Base 3.4.2
 _ZNK4geos4geom18GeometryCollection8apply_roEPNS0_16CoordinateFilterE@Base 3.4.2
 _ZNK4geos4geom18GeometryCollection8apply_roEPNS0_23GeometryComponentFilterE@Base 3.4.2
 _ZNK4geos4geom18GeometryCollection8apply_roERNS0_24CoordinateSequenceFilterE@Base 3.4.2
 _ZNK4geos4geom18GeometryCollection9getLengthEv@Base 3.4.2
 _ZNK4geos4geom18IntersectionMatrix10isContainsEv@Base 3.4.2
 _ZNK4geos4geom18IntersectionMatrix10isDisjointEv@Base 3.4.2
 _ZNK4geos4geom18IntersectionMatrix10isOverlapsEii@Base 3.4.2
 _ZNK4geos4geom18IntersectionMatrix11isCoveredByEv@Base 3.4.2
 _ZNK4geos4geom18IntersectionMatrix12isIntersectsEv@Base 3.4.2
 _ZNK4geos4geom18IntersectionMatrix3getEii@Base 3.4.2
 _ZNK4geos4geom18IntersectionMatrix7matchesERKNSt7__cxx1112basic_stringIcSt11char_traitsIcESaIcEEE@Base 3.4.2
 _ZNK4geos4geom18IntersectionMatrix8isCoversEv@Base 3.4.2
 _ZNK4geos4geom18IntersectionMatrix8isEqualsEii@Base 3.4.2
 _ZNK4geos4geom18IntersectionMatrix8isWithinEv@Base 3.4.2
 _ZNK4geos4geom18IntersectionMatrix8toStringB5cxx11Ev@Base 3.4.2
 _ZNK4geos4geom18IntersectionMatrix9isCrossesEii@Base 3.4.2
 _ZNK4geos4geom18IntersectionMatrix9isTouchesEii@Base 3.4.2
 _ZNK4geos4geom23CoordinateArraySequence11getOrdinateEmm@Base 3.5.0
 _ZNK4geos4geom23CoordinateArraySequence12getDimensionEv@Base 3.4.2
 _ZNK4geos4geom23CoordinateArraySequence14expandEnvelopeERNS0_8EnvelopeE@Base 3.4.2
 _ZNK4geos4geom23CoordinateArraySequence5cloneEv@Base 3.4.2
 _ZNK4geos4geom23CoordinateArraySequence5getAtEm@Base 3.5.0
 _ZNK4geos4geom23CoordinateArraySequence5getAtEmRNS0_10CoordinateE@Base 3.5.0
 _ZNK4geos4geom23CoordinateArraySequence7getSizeEv@Base 3.4.2
 _ZNK4geos4geom23CoordinateArraySequence7isEmptyEv@Base 3.4.2
 _ZNK4geos4geom23CoordinateArraySequence8apply_roEPNS0_16CoordinateFilterE@Base 3.4.2
 _ZNK4geos4geom23CoordinateArraySequence8toStringB5cxx11Ev@Base 3.4.2
 _ZNK4geos4geom23CoordinateArraySequence8toVectorERSt6vectorINS0_10CoordinateESaIS3_EE@Base 3.4.2
 _ZNK4geos4geom23CoordinateArraySequence8toVectorEv@Base 3.4.2
 _ZNK4geos4geom30CoordinateArraySequenceFactory6createEPSt6vectorINS0_10CoordinateESaIS3_EEm@Base 3.5.0
 _ZNK4geos4geom30CoordinateArraySequenceFactory6createERKNS0_18CoordinateSequenceE@Base 3.4.2
 _ZNK4geos4geom30CoordinateArraySequenceFactory6createEmm@Base 3.5.0
 _ZNK4geos4geom30CoordinateArraySequenceFactory6createEv@Base 3.5.0
 _ZNK4geos4geom4prep13PreparedPoint10intersectsEPKNS0_8GeometryE@Base 3.5.0
 _ZNK4geos4geom4prep15PreparedPolygon10intersectsEPKNS0_8GeometryE@Base 3.4.2
 _ZNK4geos4geom4prep15PreparedPolygon15getPointLocatorEv@Base 3.4.2
 _ZNK4geos4geom4prep15PreparedPolygon16containsProperlyEPKNS0_8GeometryE@Base 3.4.2
 _ZNK4geos4geom4prep15PreparedPolygon21getIntersectionFinderEv@Base 3.4.2
 _ZNK4geos4geom4prep15PreparedPolygon6coversEPKNS0_8GeometryE@Base 3.4.2
 _ZNK4geos4geom4prep15PreparedPolygon8containsEPKNS0_8GeometryE@Base 3.4.2
 _ZNK4geos4geom4prep18PreparedLineString10intersectsEPKNS0_8GeometryE@Base 3.4.2
 _ZNK4geos4geom4prep21BasicPreparedGeometry10intersectsEPKNS0_8GeometryE@Base 3.4.2
 _ZNK4geos4geom4prep21BasicPreparedGeometry11getGeometryEv@Base 3.4.2
 _ZNK4geos4geom4prep21BasicPreparedGeometry14envelopeCoversEPKNS0_8GeometryE@Base 3.4.2
 _ZNK4geos4geom4prep21BasicPreparedGeometry16containsProperlyEPKNS0_8GeometryE@Base 3.4.2
 _ZNK4geos4geom4prep21BasicPreparedGeometry18envelopesIntersectEPKNS0_8GeometryE@Base 3.4.2
 _ZNK4geos4geom4prep21BasicPreparedGeometry26isAnyTargetComponentInTestEPKNS0_8GeometryE@Base 3.4.2
 _ZNK4geos4geom4prep21BasicPreparedGeometry6coversEPKNS0_8GeometryE@Base 3.4.2
 _ZNK4geos4geom4prep21BasicPreparedGeometry6withinEPKNS0_8GeometryE@Base 3.4.2
 _ZNK4geos4geom4prep21BasicPreparedGeometry7crossesEPKNS0_8GeometryE@Base 3.4.2
 _ZNK4geos4geom4prep21BasicPreparedGeometry7touchesEPKNS0_8GeometryE@Base 3.4.2
 _ZNK4geos4geom4prep21BasicPreparedGeometry8containsEPKNS0_8GeometryE@Base 3.4.2
 _ZNK4geos4geom4prep21BasicPreparedGeometry8disjointEPKNS0_8GeometryE@Base 3.4.2
 _ZNK4geos4geom4prep21BasicPreparedGeometry8overlapsEPKNS0_8GeometryE@Base 3.4.2
 _ZNK4geos4geom4prep21BasicPreparedGeometry9coveredByEPKNS0_8GeometryE@Base 3.4.2
 _ZNK4geos4geom4prep23PreparedGeometryFactory6createEPKNS0_8GeometryE@Base 3.4.2
 _ZNK4geos4geom4prep24PreparedPolygonPredicate26isAnyTestComponentInTargetEPKNS0_8GeometryE@Base 3.4.2
 _ZNK4geos4geom4prep24PreparedPolygonPredicate27isAllTestComponentsInTargetEPKNS0_8GeometryE@Base 3.4.2
 _ZNK4geos4geom4prep24PreparedPolygonPredicate30isAnyTargetComponentInAreaTestEPKNS0_8GeometryEPKSt6vectorIPKNS0_10CoordinateESaIS9_EE@Base 3.4.2
 _ZNK4geos4geom4prep24PreparedPolygonPredicate34isAnyTestComponentInTargetInteriorEPKNS0_8GeometryE@Base 3.4.2
 _ZNK4geos4geom4prep24PreparedPolygonPredicate35isAllTestComponentsInTargetInteriorEPKNS0_8GeometryE@Base 3.4.2
 _ZNK4geos4geom4prep28PreparedLineStringIntersects10intersectsEPKNS0_8GeometryE@Base 3.4.2
 _ZNK4geos4geom4prep28PreparedLineStringIntersects22isAnyTestPointInTargetEPKNS0_8GeometryE@Base 3.4.2
 _ZNK4geos4geom4util15SineStarFactory14createSineStarEv@Base 3.4.2
 _ZNK4geos4geom5Point11equalsExactEPKNS0_8GeometryEd@Base 3.4.2
 _ZNK4geos4geom5Point11getBoundaryEv@Base 3.4.2
 _ZNK4geos4geom5Point12getDimensionEv@Base 3.4.2
 _ZNK4geos4geom5Point12getNumPointsEv@Base 3.4.2
 _ZNK4geos4geom5Point13getCoordinateEv@Base 3.4.2
 _ZNK4geos4geom5Point14getCoordinatesEv@Base 3.4.2
 _ZNK4geos4geom5Point15getGeometryTypeB5cxx11Ev@Base 3.4.2
 _ZNK4geos4geom5Point16getCoordinatesROEv@Base 3.4.2
 _ZNK4geos4geom5Point17getGeometryTypeIdEv@Base 3.4.2
 _ZNK4geos4geom5Point18compareToSameClassEPKNS0_8GeometryE@Base 3.4.2
 _ZNK4geos4geom5Point20getBoundaryDimensionEv@Base 3.4.2
 _ZNK4geos4geom5Point22getCoordinateDimensionEv@Base 3.4.2
 _ZNK4geos4geom5Point23computeEnvelopeInternalEv@Base 3.4.2
 _ZNK4geos4geom5Point4getXEv@Base 3.4.2
 _ZNK4geos4geom5Point4getYEv@Base 3.4.2
 _ZNK4geos4geom5Point5cloneEv@Base 3.4.2
 _ZNK4geos4geom5Point7isEmptyEv@Base 3.4.2
 _ZNK4geos4geom5Point8apply_roEPNS0_14GeometryFilterE@Base 3.4.2
 _ZNK4geos4geom5Point8apply_roEPNS0_16CoordinateFilterE@Base 3.4.2
 _ZNK4geos4geom5Point8apply_roEPNS0_23GeometryComponentFilterE@Base 3.4.2
 _ZNK4geos4geom5Point8apply_roERNS0_24CoordinateSequenceFilterE@Base 3.4.2
 _ZNK4geos4geom5Point8isSimpleEv@Base 3.4.2
 _ZNK4geos4geom7Polygon10convexHullEv@Base 3.4.2
 _ZNK4geos4geom7Polygon11equalsExactEPKNS0_8GeometryEd@Base 3.4.2
 _ZNK4geos4geom7Polygon11getBoundaryEv@Base 3.4.2
 _ZNK4geos4geom7Polygon11isRectangleEv@Base 3.4.2
 _ZNK4geos4geom7Polygon12getDimensionEv@Base 3.4.2
 _ZNK4geos4geom7Polygon12getNumPointsEv@Base 3.4.2
 _ZNK4geos4geom7Polygon13getCoordinateEv@Base 3.4.2
 _ZNK4geos4geom7Polygon14getCoordinatesEv@Base 3.4.2
 _ZNK4geos4geom7Polygon15getExteriorRingEv@Base 3.4.2
 _ZNK4geos4geom7Polygon15getGeometryTypeB5cxx11Ev@Base 3.4.2
 _ZNK4geos4geom7Polygon16getInteriorRingNEm@Base 3.5.0
 _ZNK4geos4geom7Polygon17getGeometryTypeIdEv@Base 3.4.2
 _ZNK4geos4geom7Polygon18compareToSameClassEPKNS0_8GeometryE@Base 3.4.2
 _ZNK4geos4geom7Polygon18getNumInteriorRingEv@Base 3.4.2
 _ZNK4geos4geom7Polygon20getBoundaryDimensionEv@Base 3.4.2
 _ZNK4geos4geom7Polygon22getCoordinateDimensionEv@Base 3.4.2
 _ZNK4geos4geom7Polygon23computeEnvelopeInternalEv@Base 3.4.2
 _ZNK4geos4geom7Polygon5cloneEv@Base 3.4.2
 _ZNK4geos4geom7Polygon7getAreaEv@Base 3.4.2
 _ZNK4geos4geom7Polygon7isEmptyEv@Base 3.4.2
 _ZNK4geos4geom7Polygon8apply_roEPNS0_14GeometryFilterE@Base 3.4.2
 _ZNK4geos4geom7Polygon8apply_roEPNS0_16CoordinateFilterE@Base 3.4.2
 _ZNK4geos4geom7Polygon8apply_roEPNS0_23GeometryComponentFilterE@Base 3.4.2
 _ZNK4geos4geom7Polygon8apply_roERNS0_24CoordinateSequenceFilterE@Base 3.4.2
 _ZNK4geos4geom7Polygon8isSimpleEv@Base 3.4.2
 _ZNK4geos4geom7Polygon9getLengthEv@Base 3.4.2
 _ZNK4geos4geom8Envelope10intersectsEPKS1_@Base 3.4.2
 _ZNK4geos4geom8Envelope10intersectsERKNS0_10CoordinateE@Base 3.4.2
 _ZNK4geos4geom8Envelope10intersectsERKS1_@Base 3.4.2
 _ZNK4geos4geom8Envelope10intersectsEdd@Base 3.4.2
 _ZNK4geos4geom8Envelope12intersectionERKS1_RS1_@Base 3.4.2
 _ZNK4geos4geom8Envelope6centreERNS0_10CoordinateE@Base 3.4.2
 _ZNK4geos4geom8Envelope6coversEPKNS0_10CoordinateE@Base 3.4.2
 _ZNK4geos4geom8Envelope6coversERKS1_@Base 3.4.2
 _ZNK4geos4geom8Envelope6coversEdd@Base 3.4.2
 _ZNK4geos4geom8Envelope6equalsEPKS1_@Base 3.4.2
 _ZNK4geos4geom8Envelope6isNullEv@Base 3.4.2
 _ZNK4geos4geom8Envelope7getMaxXEv@Base 3.4.2
 _ZNK4geos4geom8Envelope7getMaxYEv@Base 3.4.2
 _ZNK4geos4geom8Envelope7getMinXEv@Base 3.4.2
 _ZNK4geos4geom8Envelope7getMinYEv@Base 3.4.2
 _ZNK4geos4geom8Envelope8distanceEPKS1_@Base 3.4.2
 _ZNK4geos4geom8Envelope8getWidthEv@Base 3.4.2
 _ZNK4geos4geom8Envelope8hashCodeEv@Base 3.4.2
 _ZNK4geos4geom8Envelope8toStringB5cxx11Ev@Base 3.4.2
 _ZNK4geos4geom8Envelope9getHeightEv@Base 3.4.2
 _ZNK4geos4geom8Geometry10convexHullEv@Base 3.4.2
 _ZNK4geos4geom8Geometry10differenceEPKS1_@Base 3.4.2
 _ZNK4geos4geom8Geometry10intersectsEPKS1_@Base 3.4.2
 _ZNK4geos4geom8Geometry11getCentroidERNS0_10CoordinateE@Base 3.4.2
 _ZNK4geos4geom8Geometry11getCentroidEv@Base 3.4.2
 _ZNK4geos4geom8Geometry11getEnvelopeEv@Base 3.4.2
 _ZNK4geos4geom8Geometry11isRectangleEv@Base 3.4.2
 _ZNK4geos4geom8Geometry12getGeometryNEm@Base 3.5.0
 _ZNK4geos4geom8Geometry12intersectionEPKS1_@Base 3.4.2
 _ZNK4geos4geom8Geometry13symDifferenceEPKS1_@Base 3.4.2
 _ZNK4geos4geom8Geometry16getInteriorPointEv@Base 3.4.2
 _ZNK4geos4geom8Geometry16getNumGeometriesEv@Base 3.4.2
 _ZNK4geos4geom8Geometry16isWithinDistanceEPKS1_d@Base 3.4.2
 _ZNK4geos4geom8Geometry17getClassSortIndexEv@Base 3.4.2
 _ZNK4geos4geom8Geometry17getPrecisionModelEv@Base 3.4.2
 _ZNK4geos4geom8Geometry17isEquivalentClassEPKS1_@Base 3.4.2
 _ZNK4geos4geom8Geometry19getEnvelopeInternalEv@Base 3.4.2
 _ZNK4geos4geom8Geometry5UnionEPKS1_@Base 3.4.2
 _ZNK4geos4geom8Geometry5UnionEv@Base 3.4.2
 _ZNK4geos4geom8Geometry5equalERKNS0_10CoordinateES4_d@Base 3.4.2
 _ZNK4geos4geom8Geometry6bufferEd@Base 3.4.2
 _ZNK4geos4geom8Geometry6bufferEdi@Base 3.4.2
 _ZNK4geos4geom8Geometry6bufferEdii@Base 3.4.2
 _ZNK4geos4geom8Geometry6coversEPKS1_@Base 3.4.2
 _ZNK4geos4geom8Geometry6equalsEPKS1_@Base 3.4.2
 _ZNK4geos4geom8Geometry6relateEPKS1_@Base 3.4.2
 _ZNK4geos4geom8Geometry6relateEPKS1_RKNSt7__cxx1112basic_stringIcSt11char_traitsIcESaIcEEE@Base 3.4.2
 _ZNK4geos4geom8Geometry6toTextB5cxx11Ev@Base 3.4.2
 _ZNK4geos4geom8Geometry6withinEPKS1_@Base 3.4.2
 _ZNK4geos4geom8Geometry7compareESt6vectorINS0_10CoordinateESaIS3_EES5_@Base 3.4.2
 _ZNK4geos4geom8Geometry7compareESt6vectorIPS1_SaIS3_EES5_@Base 3.4.2
 _ZNK4geos4geom8Geometry7crossesEPKS1_@Base 3.4.2
 _ZNK4geos4geom8Geometry7getAreaEv@Base 3.4.2
 _ZNK4geos4geom8Geometry7getSRIDEv@Base 3.4.2
 _ZNK4geos4geom8Geometry7isValidEv@Base 3.4.2
 _ZNK4geos4geom8Geometry7touchesEPKS1_@Base 3.4.2
 _ZNK4geos4geom8Geometry8apply_roEPNS0_14GeometryFilterE@Base 3.4.2
 _ZNK4geos4geom8Geometry8apply_roEPNS0_23GeometryComponentFilterE@Base 3.4.2
 _ZNK4geos4geom8Geometry8containsEPKS1_@Base 3.4.2
 _ZNK4geos4geom8Geometry8disjointEPKS1_@Base 3.4.2
 _ZNK4geos4geom8Geometry8distanceEPKS1_@Base 3.4.2
 _ZNK4geos4geom8Geometry8isSimpleEv@Base 3.4.2
 _ZNK4geos4geom8Geometry8overlapsEPKS1_@Base 3.4.2
 _ZNK4geos4geom8Geometry8toStringB5cxx11Ev@Base 3.4.2
 _ZNK4geos4geom8Geometry9compareToEPKS1_@Base 3.4.2
 _ZNK4geos4geom8Geometry9getLengthEv@Base 3.4.2
 _ZNK4geos4geom8Triangle3detEdddd@Base 3.5.0
 _ZNK4geos4util13GEOSException4whatEv@Base 3.4.2
 _ZNK4geos4util21GeometricShapeFactory10Dimensions11getEnvelopeEv@Base 3.4.2
 _ZNK4geos4util21GeometricShapeFactory5coordEdd@Base 3.4.2
 _ZNK4geos4util7Profile13getNumTimingsEv@Base 3.4.2
 _ZNK4geos4util7Profile6getAvgEv@Base 3.4.2
 _ZNK4geos4util7Profile6getMaxEv@Base 3.4.2
 _ZNK4geos4util7Profile6getMinEv@Base 3.4.2
 _ZNK4geos4util7Profile6getTotEv@Base 3.4.2
 _ZNK4geos5index13intervalrtree21IntervalRTreeLeafNode5queryEddPNS0_11ItemVisitorE@Base 3.4.2
 _ZNK4geos5index13intervalrtree23IntervalRTreeBranchNode5queryEddPNS0_11ItemVisitorE@Base 3.4.2
 _ZNK4geos5index5chain13MonotoneChain11getEnvelopeEv@Base 3.4.2
 _ZNK4geos5index5chain13MonotoneChain14getCoordinatesEv@Base 3.4.2
 _ZNK4geos5index5chain13MonotoneChain14getLineSegmentEmRNS_4geom11LineSegmentE@Base 3.5.0
 _ZNK4geos5index7bintree8Interval6getMaxEv@Base 3.4.2
 _ZNK4geos5index7bintree8Interval6getMinEv@Base 3.4.2
 _ZNK4geos5index7bintree8Interval8containsEPKS2_@Base 3.4.2
 _ZNK4geos5index7bintree8Interval8containsEd@Base 3.4.2
 _ZNK4geos5index7bintree8Interval8containsEdd@Base 3.4.2
 _ZNK4geos5index7bintree8Interval8getWidthEv@Base 3.4.2
 _ZNK4geos5index7bintree8Interval8overlapsEPKS2_@Base 3.4.2
 _ZNK4geos5index7bintree8Interval8overlapsEdd@Base 3.4.2
 _ZNK4geos5index7strtree12AbstractNode9getBoundsEv@Base 3.4.2
 _ZNK4geos5index7strtree13ItemBoundable7getItemEv@Base 3.4.2
 _ZNK4geos5index7strtree13ItemBoundable9getBoundsEv@Base 3.4.2
 _ZNK4geos5index7strtree15SIRAbstractNode13computeBoundsEv@Base 3.4.2
 _ZNK4geos5index7strtree15STRAbstractNode13computeBoundsEv@Base 3.4.2
 _ZNK4geos5index7strtree8Interval10intersectsEPKS2_@Base 3.5.0
 _ZNK4geos5index7strtree8Interval6equalsEPKS2_@Base 3.5.0
 _ZNK4geos5index8quadtree10DoubleBits11getExponentEv@Base 3.4.2
 _ZNK4geos5index8quadtree10DoubleBits14biasedExponentEv@Base 3.4.2
 _ZNK4geos5index8quadtree10DoubleBits21numCommonMantissaBitsERKS2_@Base 3.4.2
 _ZNK4geos5index8quadtree10DoubleBits6getBitEi@Base 3.4.2
 _ZNK4geos5index8quadtree10DoubleBits8toStringB5cxx11Ev@Base 3.4.2
 _ZNK4geos5index8quadtree10DoubleBits9getDoubleEv@Base 3.4.2
 _ZNK4geos5index8quadtree3Key11getEnvelopeEv@Base 3.4.2
 _ZNK4geos5index8quadtree3Key8getLevelEv@Base 3.4.2
 _ZNK4geos5index8quadtree3Key8getPointEv@Base 3.4.2
 _ZNK4geos5index8quadtree3Key9getCentreEv@Base 3.4.2
 _ZNK4geos5index8quadtree4Node13isSearchMatchERKNS_4geom8EnvelopeE@Base 3.4.2
 _ZNK4geos5index8quadtree4Node8toStringB5cxx11Ev@Base 3.4.2
 _ZNK4geos5index8quadtree4Root13isSearchMatchERKNS_4geom8EnvelopeE@Base 3.4.2
 _ZNK4geos5index8quadtree8NodeBase11addAllItemsERSt6vectorIPvSaIS4_EE@Base 3.4.2
 _ZNK4geos5index8quadtree8NodeBase12getNodeCountEv@Base 3.4.2
 _ZNK4geos5index8quadtree8NodeBase26addAllItemsFromOverlappingERKNS_4geom8EnvelopeERSt6vectorIPvSaIS8_EE@Base 3.4.2
 _ZNK4geos5index8quadtree8NodeBase4sizeEv@Base 3.4.2
 _ZNK4geos5index8quadtree8NodeBase5depthEv@Base 3.4.2
 _ZNK4geos5index8quadtree8NodeBase8toStringB5cxx11Ev@Base 3.4.2
 _ZNK4geos5index8quadtree8Quadtree8toStringB5cxx11Ev@Base 3.4.2
 _ZNK4geos5index9sweepline14SweepLineEvent9compareToEPKS2_@Base 3.4.2
 _ZNK4geos5index9sweepline22SweepLineEventLessThenclEPKNS1_14SweepLineEventES5_@Base 3.4.2
 _ZNK4geos6noding11ScaledNoder18getNodedSubstringsEv@Base 3.4.2
 _ZNK4geos6noding11ScaledNoder5scaleERSt6vectorIPNS0_13SegmentStringESaIS4_EE@Base 3.4.2
 _ZNK4geos6noding11ScaledNoder6Scaler9filter_rwEPNS_4geom10CoordinateE@Base 3.4.2
 _ZNK4geos6noding11ScaledNoder7rescaleERSt6vectorIPNS0_13SegmentStringESaIS4_EE@Base 3.4.2
 _ZNK4geos6noding11ScaledNoder8ReScaler9filter_rwEPNS_4geom10CoordinateE@Base 3.4.2
 _ZNK4geos6noding11SegmentNode10isEndPointEj@Base 3.4.2
 _ZNK4geos6noding11SimpleNoder18getNodedSubstringsEv@Base 3.4.2
 _ZNK4geos6noding12MCIndexNoder18getNodedSubstringsEv@Base 3.4.2
 _ZNK4geos6noding13IteratedNoder18getNodedSubstringsEv@Base 3.4.2
 _ZNK4geos6noding13SegmentString5printERSo@Base 3.4.2
 _ZNK4geos6noding15NodingValidator13checkCollapseERKNS_4geom10CoordinateES5_S5_@Base 3.4.2
 _ZNK4geos6noding15NodingValidator14checkCollapsesERKNS0_13SegmentStringE@Base 3.4.2
 _ZNK4geos6noding15NodingValidator14checkCollapsesEv@Base 3.4.2
 _ZNK4geos6noding15NodingValidator23hasInteriorIntersectionERKNS_9algorithm15LineIntersectorERKNS_4geom10CoordinateES9_@Base 3.4.2
 _ZNK4geos6noding15NodingValidator29checkEndPtVertexIntersectionsERKNS_4geom10CoordinateERKSt6vectorIPNS0_13SegmentStringESaIS8_EE@Base 3.4.2
 _ZNK4geos6noding15NodingValidator29checkEndPtVertexIntersectionsEv@Base 3.4.2
 _ZNK4geos6noding17IntersectionAdder6isDoneEv@Base 3.4.2
 _ZNK4geos6noding18BasicSegmentString13getCoordinateEj@Base 3.4.2
 _ZNK4geos6noding18BasicSegmentString14getCoordinatesEv@Base 3.4.2
 _ZNK4geos6noding18BasicSegmentString16getSegmentOctantEj@Base 3.4.2
 _ZNK4geos6noding18BasicSegmentString4sizeEv@Base 3.4.2
 _ZNK4geos6noding18BasicSegmentString5printERSo@Base 3.4.2
 _ZNK4geos6noding18BasicSegmentString8isClosedEv@Base 3.4.2
 _ZNK4geos6noding18NodedSegmentString11getNodeListEv@Base 3.4.2
 _ZNK4geos6noding18NodedSegmentString13getCoordinateEj@Base 3.4.2
 _ZNK4geos6noding18NodedSegmentString14getCoordinatesEv@Base 3.4.2
 _ZNK4geos6noding18NodedSegmentString16getSegmentOctantEj@Base 3.4.2
 _ZNK4geos6noding18NodedSegmentString4sizeEv@Base 3.4.2
 _ZNK4geos6noding18NodedSegmentString5printERSo@Base 3.4.2
 _ZNK4geos6noding18NodedSegmentString8isClosedEv@Base 3.4.2
 _ZNK4geos6noding18SegmentIntersector6isDoneEv@Base 3.4.2
 _ZNK4geos6noding19FastNodingValidator15getErrorMessageB5cxx11Ev@Base 3.4.2
 _ZNK4geos6noding23IntersectionFinderAdder6isDoneEv@Base 3.4.2
 _ZNK4geos6noding23OrientedCoordinateArray9compareToERKS1_@Base 3.4.2
 _ZNK4geos6noding27SegmentIntersectionDetector6isDoneEv@Base 3.4.2
 _ZNK4geos6noding32SingleInteriorIntersectionFinder6isDoneEv@Base 3.4.2
 _ZNK4geos6noding9snapround17SimpleSnapRounder18getNodedSubstringsEv@Base 3.4.2
 _ZNK4geos6noding9snapround18MCIndexSnapRounder18getNodedSubstringsEv@Base 3.4.2
 _ZNK4geos6noding9snapround8HotPixel10copyScaledERKNS_4geom10CoordinateERS4_@Base 3.4.2
 _ZNK4geos6noding9snapround8HotPixel10intersectsERKNS_4geom10CoordinateES6_@Base 3.4.2
 _ZNK4geos6noding9snapround8HotPixel15getSafeEnvelopeEv@Base 3.4.2
 _ZNK4geos6noding9snapround8HotPixel16intersectsScaledERKNS_4geom10CoordinateES6_@Base 3.4.2
 _ZNK4geos6noding9snapround8HotPixel25intersectsToleranceSquareERKNS_4geom10CoordinateES6_@Base 3.4.2
 _ZNK4geos6noding9snapround8HotPixel5scaleEd@Base 3.4.2
 _ZNK4geos8simplify16LineSegmentIndex5queryEPKNS_4geom11LineSegmentE@Base 3.4.2
 _ZNK4geos8simplify16TaggedLineString10getSegmentEm@Base 3.5.0
 _ZNK4geos8simplify16TaggedLineString11getSegmentsEv@Base 3.4.2
 _ZNK4geos8simplify16TaggedLineString12asLineStringEv@Base 3.4.2
 _ZNK4geos8simplify16TaggedLineString12asLinearRingEv@Base 3.4.2
 _ZNK4geos8simplify16TaggedLineString13getResultSizeEv@Base 3.4.2
 _ZNK4geos8simplify16TaggedLineString14getMinimumSizeEv@Base 3.4.2
 _ZNK4geos8simplify16TaggedLineString20getParentCoordinatesEv@Base 3.4.2
 _ZNK4geos8simplify16TaggedLineString20getResultCoordinatesEv@Base 3.4.2
 _ZNK4geos8simplify16TaggedLineString9getParentEv@Base 3.4.2
 _ZNK4geos8simplify17TaggedLineSegment8getIndexEv@Base 3.4.2
 _ZNK4geos8simplify17TaggedLineSegment9getParentEv@Base 3.4.2
 _ZNK4geos8simplify26TaggedLineStringSimplifier23hasInteriorIntersectionERKNS_4geom11LineSegmentES5_@Base 3.4.2
 _ZNK4geos9algorithm11HCoordinate13getCoordinateERNS_4geom10CoordinateE@Base 3.4.2
 _ZNK4geos9algorithm11HCoordinate4getXEv@Base 3.4.2
 _ZNK4geos9algorithm11HCoordinate4getYEv@Base 3.4.2
 _ZNK4geos9algorithm12CentroidArea11getCentroidERNS_4geom10CoordinateE@Base 3.4.2
 _ZNK4geos9algorithm12CentroidArea11getCentroidEv@Base 3.4.2
 _ZNK4geos9algorithm12CentroidLine11getCentroidERNS_4geom10CoordinateE@Base 3.4.2
 _ZNK4geos9algorithm12CentroidLine11getCentroidEv@Base 3.4.2
 _ZNK4geos9algorithm13CentroidPoint11getCentroidERNS_4geom10CoordinateE@Base 3.4.2
 _ZNK4geos9algorithm13CentroidPoint11getCentroidEv@Base 3.4.2
 _ZNK4geos9algorithm15LineIntersector12intersectionERKNS_4geom10CoordinateES5_S5_S5_RS3_@Base 3.4.2
 _ZNK4geos9algorithm15LineIntersector14isIntersectionERKNS_4geom10CoordinateE@Base 3.4.2
 _ZNK4geos9algorithm15LineIntersector15getEdgeDistanceEii@Base 3.4.2
 _ZNK4geos9algorithm15LineIntersector18smallestInAbsValueEdddd@Base 3.4.2
 _ZNK4geos9algorithm15LineIntersector20isInSegmentEnvelopesERKNS_4geom10CoordinateE@Base 3.4.2
 _ZNK4geos9algorithm15LineIntersector20normalizeToEnvCentreERNS_4geom10CoordinateES4_S4_S4_S4_@Base 3.4.2
 _ZNK4geos9algorithm15LineIntersector27safeHCoordinateIntersectionERKNS_4geom10CoordinateES5_S5_S5_RS3_@Base 3.4.2
 _ZNK4geos9algorithm15LineIntersector29intersectionWithNormalizationERKNS_4geom10CoordinateES5_S5_S5_RS3_@Base 3.4.2
 _ZNK4geos9algorithm15LineIntersector8toStringB5cxx11Ev@Base 3.4.2
 _ZNK4geos9algorithm17InteriorPointArea16getInteriorPointERNS_4geom10CoordinateE@Base 3.4.2
 _ZNK4geos9algorithm17InteriorPointLine16getInteriorPointERNS_4geom10CoordinateE@Base 3.4.2
 _ZNK4geos9algorithm18InteriorPointPoint16getInteriorPointERNS_4geom10CoordinateE@Base 3.4.2
 _ZNK4geos9algorithm8Centroid11getCentroidERNS_4geom10CoordinateE@Base 3.4.2
 _ZNK4geos9algorithm8distance25DiscreteHausdorffDistance36MaxDensifiedByFractionDistanceFilter17isGeometryChangedEv@Base 3.4.2
 _ZNK4geos9algorithm8distance25DiscreteHausdorffDistance36MaxDensifiedByFractionDistanceFilter6isDoneEv@Base 3.4.2
 _ZNK4geos9geomgraph11NodeFactory10createNodeERKNS_4geom10CoordinateE@Base 3.4.2
 _ZNK4geos9geomgraph14GraphComponent10isInResultEv@Base 3.4.2
 _ZNK4geos9geomgraph14GraphComponent12isCoveredSetEv@Base 3.4.2
 _ZNK4geos9geomgraph14GraphComponent9isCoveredEv@Base 3.4.2
 _ZNK4geos9geomgraph14GraphComponent9isVisitedEv@Base 3.4.2
 _ZNK4geos9geomgraph16TopologyLocation12getLocationsEv@Base 3.4.2
 _ZNK4geos9geomgraph16TopologyLocation13isEqualOnSideERKS1_i@Base 3.4.2
 _ZNK4geos9geomgraph16TopologyLocation17allPositionsEqualEi@Base 3.4.2
 _ZNK4geos9geomgraph16TopologyLocation3getEm@Base 3.5.0
 _ZNK4geos9geomgraph16TopologyLocation6isAreaEv@Base 3.4.2
 _ZNK4geos9geomgraph16TopologyLocation6isLineEv@Base 3.4.2
 _ZNK4geos9geomgraph16TopologyLocation6isNullEv@Base 3.4.2
 _ZNK4geos9geomgraph16TopologyLocation8toStringB5cxx11Ev@Base 3.4.2
 _ZNK4geos9geomgraph16TopologyLocation9isAnyNullEv@Base 3.4.2
 _ZNK4geos9geomgraph20EdgeIntersectionList14isIntersectionERKNS_4geom10CoordinateE@Base 3.4.2
 _ZNK4geos9geomgraph20EdgeIntersectionList5printB5cxx11Ev@Base 3.4.2
 _ZNK4geos9geomgraph20EdgeIntersectionList7isEmptyEv@Base 3.4.2
 _ZNK4geos9geomgraph4Edge10isIsolatedEv@Base 3.4.2
 _ZNK4geos9geomgraph4Edge11isCollapsedEv@Base 3.4.2
 _ZNK4geos9geomgraph4Edge12getNumPointsEv@Base 3.4.2
 _ZNK4geos9geomgraph4Edge12printReverseB5cxx11Ev@Base 3.4.2
 _ZNK4geos9geomgraph4Edge13getCoordinateEi@Base 3.4.2
 _ZNK4geos9geomgraph4Edge13getCoordinateEv@Base 3.4.2
 _ZNK4geos9geomgraph4Edge13getDepthDeltaEv@Base 3.4.2
 _ZNK4geos9geomgraph4Edge14getCoordinatesEv@Base 3.4.2
 _ZNK4geos9geomgraph4Edge16isPointwiseEqualEPKS1_@Base 3.4.2
 _ZNK4geos9geomgraph4Edge22getMaximumSegmentIndexEv@Base 3.4.2
 _ZNK4geos9geomgraph4Edge5printB5cxx11Ev@Base 3.4.2
 _ZNK4geos9geomgraph4Edge6equalsEPKS1_@Base 3.4.2
 _ZNK4geos9geomgraph4Edge6equalsERKS1_@Base 3.4.2
 _ZNK4geos9geomgraph4Edge8isClosedEv@Base 3.4.2
 _ZNK4geos9geomgraph4Node10isIsolatedEv@Base 3.4.2
 _ZNK4geos9geomgraph4Node13getCoordinateEv@Base 3.4.2
 _ZNK4geos9geomgraph4Node22isIncidentEdgeInResultEv@Base 3.4.2
 _ZNK4geos9geomgraph4Node4getZEv@Base 3.4.2
 _ZNK4geos9geomgraph5Depth11getLocationEii@Base 3.4.2
 _ZNK4geos9geomgraph5Depth6isNullEi@Base 3.4.2
 _ZNK4geos9geomgraph5Depth6isNullEii@Base 3.4.2
 _ZNK4geos9geomgraph5Depth6isNullEv@Base 3.4.2
 _ZNK4geos9geomgraph5Depth8getDeltaEi@Base 3.4.2
 _ZNK4geos9geomgraph5Depth8getDepthEii@Base 3.4.2
 _ZNK4geos9geomgraph5Depth8toStringB5cxx11Ev@Base 3.4.2
 _ZNK4geos9geomgraph5Label11getLocationEi@Base 3.4.2
 _ZNK4geos9geomgraph5Label11getLocationEii@Base 3.4.2
 _ZNK4geos9geomgraph5Label13isEqualOnSideERKS1_i@Base 3.4.2
 _ZNK4geos9geomgraph5Label16getGeometryCountEv@Base 3.4.2
 _ZNK4geos9geomgraph5Label17allPositionsEqualEii@Base 3.4.2
 _ZNK4geos9geomgraph5Label6isAreaEi@Base 3.4.2
 _ZNK4geos9geomgraph5Label6isAreaEv@Base 3.4.2
 _ZNK4geos9geomgraph5Label6isLineEi@Base 3.4.2
 _ZNK4geos9geomgraph5Label6isNullEi@Base 3.4.2
 _ZNK4geos9geomgraph5Label6isNullEv@Base 3.4.2
 _ZNK4geos9geomgraph5Label8toStringB5cxx11Ev@Base 3.4.2
 _ZNK4geos9geomgraph5Label9isAnyNullEi@Base 3.4.2
 _ZNK4geos9geomgraph7EdgeEnd16compareDirectionEPKS1_@Base 3.4.2
 _ZNK4geos9geomgraph7EdgeEnd9compareToEPKS1_@Base 3.4.2
 _ZNK4geos9geomgraph7NodeMap16getBoundaryNodesEiRSt6vectorIPNS0_4NodeESaIS4_EE@Base 3.4.2
 _ZNK4geos9geomgraph7NodeMap4findERKNS_4geom10CoordinateE@Base 3.4.2
 _ZNK4geos9geomgraph7NodeMap5printB5cxx11Ev@Base 3.4.2
 _ZNK4geos9linearref14LinearIterator11isEndOfLineEv@Base 3.4.2
 _ZNK4geos9linearref14LinearIterator13getSegmentEndEv@Base 3.4.2
 _ZNK4geos9linearref14LinearIterator14getVertexIndexEv@Base 3.4.2
 _ZNK4geos9linearref14LinearIterator15getSegmentStartEv@Base 3.4.2
 _ZNK4geos9linearref14LinearIterator17getComponentIndexEv@Base 3.4.2
 _ZNK4geos9linearref14LinearIterator7getLineEv@Base 3.4.2
 _ZNK4geos9linearref14LinearIterator7hasNextEv@Base 3.4.2
 _ZNK4geos9linearref14LinearLocation10getSegmentEPKNS_4geom8GeometryE@Base 3.4.2
 _ZNK4geos9linearref14LinearLocation10isEndpointERKNS_4geom8GeometryE@Base 3.4.2
 _ZNK4geos9linearref14LinearLocation13getCoordinateEPKNS_4geom8GeometryE@Base 3.4.2
 _ZNK4geos9linearref14LinearLocation15getSegmentIndexEv@Base 3.4.2
 _ZNK4geos9linearref14LinearLocation15isOnSameSegmentERKS1_@Base 3.4.2
 _ZNK4geos9linearref14LinearLocation16getSegmentLengthEPKNS_4geom8GeometryE@Base 3.4.2
 _ZNK4geos9linearref14LinearLocation17getComponentIndexEv@Base 3.4.2
 _ZNK4geos9linearref14LinearLocation18getSegmentFractionEv@Base 3.4.2
 _ZNK4geos9linearref14LinearLocation21compareLocationValuesEjjd@Base 3.4.2
 _ZNK4geos9linearref14LinearLocation7isValidEPKNS_4geom8GeometryE@Base 3.4.2
 _ZNK4geos9linearref14LinearLocation8isVertexEv@Base 3.4.2
 _ZNK4geos9linearref14LinearLocation9compareToERKS1_@Base 3.4.2
 _ZNK4geos9linearref17LengthIndexedLine10clampIndexEd@Base 3.4.2
 _ZNK4geos9linearref17LengthIndexedLine10locationOfEd@Base 3.4.2
 _ZNK4geos9linearref17LengthIndexedLine10locationOfEdb@Base 3.4.2
 _ZNK4geos9linearref17LengthIndexedLine11extractLineEdd@Base 3.4.2
 _ZNK4geos9linearref17LengthIndexedLine11getEndIndexEv@Base 3.4.2
 _ZNK4geos9linearref17LengthIndexedLine12extractPointEd@Base 3.4.2
 _ZNK4geos9linearref17LengthIndexedLine12extractPointEdd@Base 3.4.2
 _ZNK4geos9linearref17LengthIndexedLine12indexOfAfterERKNS_4geom10CoordinateEd@Base 3.4.2
 _ZNK4geos9linearref17LengthIndexedLine12isValidIndexEd@Base 3.4.2
 _ZNK4geos9linearref17LengthIndexedLine13getStartIndexEv@Base 3.4.2
 _ZNK4geos9linearref17LengthIndexedLine13positiveIndexEd@Base 3.4.2
 _ZNK4geos9linearref17LengthIndexedLine7indexOfERKNS_4geom10CoordinateE@Base 3.4.2
 _ZNK4geos9linearref17LengthIndexedLine7projectERKNS_4geom10CoordinateE@Base 3.4.2
 _ZNK4geos9linearref17LengthIndexedLine9indicesOfEPKNS_4geom8GeometryE@Base 3.4.2
 _ZNK4geos9linearref17LengthLocationMap11getLocationEd@Base 3.4.2
 _ZNK4geos9linearref17LengthLocationMap11getLocationEdb@Base 3.4.2
 _ZNK4geos9linearref17LengthLocationMap13resolveHigherERKNS0_14LinearLocationE@Base 3.4.2
 _ZNK4geos9linearref17LengthLocationMap18getLocationForwardEd@Base 3.4.2
 _ZNK4geos9linearref17LengthLocationMap9getLengthERKNS0_14LinearLocationE@Base 3.4.2
 _ZNK4geos9linearref18LengthIndexOfPoint12indexOfAfterERKNS_4geom10CoordinateEd@Base 3.4.2
 _ZNK4geos9linearref18LengthIndexOfPoint16indexOfFromStartERKNS_4geom10CoordinateEd@Base 3.4.2
 _ZNK4geos9linearref18LengthIndexOfPoint21segmentNearestMeasureEPKNS_4geom11LineSegmentERKNS2_10CoordinateEd@Base 3.4.2
 _ZNK4geos9linearref18LengthIndexOfPoint7indexOfERKNS_4geom10CoordinateE@Base 3.4.2
 _ZNK4geos9linearref19LocationIndexOfLine9indicesOfEPKNS_4geom8GeometryE@Base 3.4.2
 _ZNK4geos9linearref20LocationIndexOfPoint12indexOfAfterERKNS_4geom10CoordinateEPKNS0_14LinearLocationE@Base 3.4.2
 _ZNK4geos9linearref20LocationIndexOfPoint16indexOfFromStartERKNS_4geom10CoordinateEPKNS0_14LinearLocationE@Base 3.4.2
 _ZNK4geos9linearref20LocationIndexOfPoint7indexOfERKNS_4geom10CoordinateE@Base 3.4.2
 _ZNK4geos9linearref21LinearGeometryBuilder17getLastCoordinateEv@Base 3.4.2
 _ZNK4geos9operation10polygonize22PolygonizeDirectedEdge7getNextEv@Base 3.4.2
 _ZNK4geos9operation10polygonize22PolygonizeDirectedEdge8getLabelEv@Base 3.4.2
 _ZNK4geos9operation10polygonize22PolygonizeDirectedEdge8isInRingEv@Base 3.4.2
 _ZNK4geos9operation12intersection28RectangleIntersectionBuilder5emptyEv@Base 3.5.0
 _ZNK4geos9operation12intersection9Rectangle12toLinearRingERKNS_4geom15GeometryFactoryE@Base 3.5.0
 _ZNK4geos9operation12intersection9Rectangle9toPolygonERKNS_4geom15GeometryFactoryE@Base 3.5.0
 _ZNK4geos9operation22GeometryGraphOperation14getArgGeometryEj@Base 3.4.2
 _ZNK4geos9operation6buffer13BufferBuilder25createEmptyResultGeometryEv@Base 3.4.2
 _ZNK4geos9operation6buffer25BufferInputLineSimplifier11isDeletableEiiid@Base 3.4.2
 _ZNK4geos9operation6buffer25BufferInputLineSimplifier12collapseLineEv@Base 3.4.2
 _ZNK4geos9operation6buffer25BufferInputLineSimplifier16isShallowSampledERKNS_4geom10CoordinateES6_iid@Base 3.4.2
 _ZNK4geos9operation6buffer25BufferInputLineSimplifier18isShallowConcavityERKNS_4geom10CoordinateES6_S6_d@Base 3.4.2
 _ZNK4geos9operation6buffer25BufferInputLineSimplifier23findNextNonDeletedIndexEj@Base 3.4.2
 _ZNK4geos9operation6buffer25BufferInputLineSimplifier9isConcaveERKNS_4geom10CoordinateES6_S6_@Base 3.4.2
 _ZNK4geos9operation6buffer25BufferInputLineSimplifier9isShallowERKNS_4geom10CoordinateES6_S6_d@Base 3.4.2
 _ZNK4geos9operation6relate17RelateNodeFactory10createNodeERKNS_4geom10CoordinateE@Base 3.4.2
 _ZNK4geos9operation7overlay15ElevationMatrix15getAvgElevationEv@Base 3.4.2
 _ZNK4geos9operation7overlay15ElevationMatrix5printB5cxx11Ev@Base 3.4.2
 _ZNK4geos9operation7overlay15ElevationMatrix7elevateEPNS_4geom8GeometryE@Base 3.4.2
 _ZNK4geos9operation7overlay15ElevationMatrix7getCellERKNS_4geom10CoordinateE@Base 3.4.2
 _ZNK4geos9operation7overlay18OverlayNodeFactory10createNodeERKNS_4geom10CoordinateE@Base 3.4.2
 _ZNK4geos9operation7overlay19ElevationMatrixCell5printB5cxx11Ev@Base 3.4.2
 _ZNK4geos9operation7overlay19ElevationMatrixCell6getAvgEv@Base 3.4.2
 _ZNK4geos9operation7overlay19ElevationMatrixCell8getTotalEv@Base 3.4.2
 _ZNK4geos9operation7overlay21ElevationMatrixFilter9filter_rwEPNS_4geom10CoordinateE@Base 3.4.2
 _ZNK4geos9operation7overlay9OverlayOp6mergeZEPNS_9geomgraph4NodeEPKNS_4geom10LineStringE@Base 3.4.2
 _ZNK4geos9operation7overlay9OverlayOp6mergeZEPNS_9geomgraph4NodeEPKNS_4geom7PolygonE@Base 3.4.2
 _ZNK4geos9operation8geounion18PointGeometryUnion5UnionEv@Base 3.4.2
 _ZNK4geos9operation9linemerge13LineMergeEdge7getLineEv@Base 3.4.2
 _ZNK4geos9precision10Translater9filter_rwEPNS_4geom10CoordinateE@Base 3.4.2
 _ZNK4geos9precision22CommonCoordinateFilter9filter_rwEPNS_4geom10CoordinateE@Base 3.4.2
 _ZNKSt5ctypeIcE8do_widenEc@Base 3.4.2
 _ZNKSt8_Rb_treeIPN4geos4geom10CoordinateESt4pairIKS3_PNS0_9geomgraph4NodeEESt10_Select1stIS9_ENS1_18CoordinateLessThenESaIS9_EE4findERS5_@Base 3.4.2
 _ZNSt11_Deque_baseIPN4geos11planargraph4NodeESaIS3_EE17_M_initialize_mapEm@Base 3.4.2
 _ZNSt11_Deque_baseIPN4geos11planargraph4NodeESaIS3_EED1Ev@Base 3.4.2
 _ZNSt11_Deque_baseIPN4geos11planargraph4NodeESaIS3_EED2Ev@Base 3.4.2
 _ZNSt11_Deque_baseIPN4geos11triangulate8quadedge8QuadEdgeESaIS4_EE17_M_initialize_mapEm@Base 3.4.2
 _ZNSt11_Deque_baseIPN4geos11triangulate8quadedge8QuadEdgeESaIS4_EED1Ev@Base 3.4.2
 _ZNSt11_Deque_baseIPN4geos11triangulate8quadedge8QuadEdgeESaIS4_EED2Ev@Base 3.4.2
 _ZNSt5dequeIPN4geos11planargraph4NodeESaIS3_EE16_M_push_back_auxERKS3_@Base 3.4.2
 _ZNSt5dequeIPN4geos11triangulate8quadedge8QuadEdgeESaIS4_EE16_M_push_back_auxERKS4_@Base 3.4.2
 _ZNSt6vectorIN4geos4geom10CoordinateESaIS2_EE13_M_assign_auxIN9__gnu_cxx17__normal_iteratorIPKS2_S4_EEEEvT_SB_St20forward_iterator_tag@Base 3.4.2
 _ZNSt6vectorIN4geos4geom10CoordinateESaIS2_EE13_M_assign_auxISt20_List_const_iteratorIS2_EEEvT_S8_St20forward_iterator_tag@Base 3.4.2
 _ZNSt6vectorIN4geos4geom10CoordinateESaIS2_EE13_M_insert_auxEN9__gnu_cxx17__normal_iteratorIPS2_S4_EERKS2_@Base 3.4.2
 _ZNSt6vectorIN4geos4geom10CoordinateESaIS2_EE14_M_fill_insertEN9__gnu_cxx17__normal_iteratorIPS2_S4_EEmRKS2_@Base 3.4.2
 _ZNSt6vectorIN4geos4geom10CoordinateESaIS2_EE15_M_range_insertIN9__gnu_cxx17__normal_iteratorIPKS2_S4_EEEEvNS7_IPS2_S4_EET_SD_St20forward_iterator_tag@Base 3.4.2
 _ZNSt6vectorIN4geos4geom10CoordinateESaIS2_EE15_M_range_insertIN9__gnu_cxx17__normal_iteratorIPS2_S4_EEEEvS9_T_SA_St20forward_iterator_tag@Base 3.4.2
 _ZNSt6vectorIN4geos5index7strtree13ItemsListItemESaIS3_EE13_M_insert_auxEN9__gnu_cxx17__normal_iteratorIPS3_S5_EERKS3_@Base 3.4.2
 _ZNSt6vectorINSt7__cxx1112basic_stringIcSt11char_traitsIcESaIcEEESaIS5_EE13_M_insert_auxEN9__gnu_cxx17__normal_iteratorIPS5_S7_EERKS5_@Base 3.4.2
 _ZNSt6vectorINSt7__cxx1112basic_stringIcSt11char_traitsIcESaIcEEESaIS5_EED1Ev@Base 3.4.2
 _ZNSt6vectorINSt7__cxx1112basic_stringIcSt11char_traitsIcESaIcEEESaIS5_EED2Ev@Base 3.4.2
 _ZNSt6vectorIPKN4geos11planargraph12DirectedEdgeESaIS4_EE13_M_insert_auxEN9__gnu_cxx17__normal_iteratorIPS4_S6_EERKS4_@Base 3.4.2
 _ZNSt6vectorIPKN4geos4geom10CoordinateESaIS4_EE13_M_assign_auxISt23_Rb_tree_const_iteratorIS4_EEEvT_SA_St20forward_iterator_tag@Base 3.4.2
 _ZNSt6vectorIPKN4geos4geom10CoordinateESaIS4_EE13_M_insert_auxEN9__gnu_cxx17__normal_iteratorIPS4_S6_EERKS4_@Base 3.4.2
 _ZNSt6vectorIPKN4geos4geom10CoordinateESaIS4_EE14_M_fill_insertEN9__gnu_cxx17__normal_iteratorIPS4_S6_EEmRKS4_@Base 3.4.2
 _ZNSt6vectorIPKN4geos4geom10CoordinateESaIS4_EEaSERKS6_@Base 3.4.2
 _ZNSt6vectorIPKN4geos4geom10LineStringESaIS4_EE13_M_insert_auxEN9__gnu_cxx17__normal_iteratorIPS4_S6_EERKS4_@Base 3.4.2
 _ZNSt6vectorIPKN4geos4geom10LinearRingESaIS4_EE13_M_insert_auxEN9__gnu_cxx17__normal_iteratorIPS4_S6_EERKS4_@Base 3.4.2
 _ZNSt6vectorIPKN4geos4geom5PointESaIS4_EE13_M_insert_auxEN9__gnu_cxx17__normal_iteratorIPS4_S6_EERKS4_@Base 3.4.2
 _ZNSt6vectorIPKN4geos4geom7PolygonESaIS4_EE13_M_insert_auxEN9__gnu_cxx17__normal_iteratorIPS4_S6_EERKS4_@Base 3.4.2
 _ZNSt6vectorIPKN4geos5index13intervalrtree17IntervalRTreeNodeESaIS5_EE13_M_insert_auxEN9__gnu_cxx17__normal_iteratorIPS5_S7_EERKS5_@Base 3.4.2
 _ZNSt6vectorIPKN4geos6noding13SegmentStringESaIS4_EE13_M_insert_auxEN9__gnu_cxx17__normal_iteratorIPS4_S6_EERKS4_@Base 3.4.2
 _ZNSt6vectorIPN4geos11planargraph12DirectedEdgeESaIS3_EE13_M_insert_auxEN9__gnu_cxx17__normal_iteratorIPS3_S5_EERKS3_@Base 3.4.2
 _ZNSt6vectorIPN4geos11planargraph12DirectedEdgeESaIS3_EE8_M_eraseEN9__gnu_cxx17__normal_iteratorIPS3_S5_EE@Base 3.4.2
 _ZNSt6vectorIPN4geos11planargraph4EdgeESaIS3_EE13_M_insert_auxEN9__gnu_cxx17__normal_iteratorIPS3_S5_EERKS3_@Base 3.4.2
 _ZNSt6vectorIPN4geos11planargraph4EdgeESaIS3_EE8_M_eraseEN9__gnu_cxx17__normal_iteratorIPS3_S5_EE@Base 3.4.2
 _ZNSt6vectorIPN4geos11planargraph4NodeESaIS3_EE13_M_insert_auxEN9__gnu_cxx17__normal_iteratorIPS3_S5_EERKS3_@Base 3.4.2
 _ZNSt6vectorIPN4geos11planargraph8SubgraphESaIS3_EE13_M_insert_auxEN9__gnu_cxx17__normal_iteratorIPS3_S5_EERKS3_@Base 3.4.2
 _ZNSt6vectorIPN4geos4geom10CoordinateESaIS3_EE13_M_insert_auxEN9__gnu_cxx17__normal_iteratorIPS3_S5_EERKS3_@Base 3.4.2
 _ZNSt6vectorIPN4geos4geom10LineStringESaIS3_EE13_M_insert_auxEN9__gnu_cxx17__normal_iteratorIPS3_S5_EERKS3_@Base 3.4.2
 _ZNSt6vectorIPN4geos4geom11LineSegmentESaIS3_EE13_M_insert_auxEN9__gnu_cxx17__normal_iteratorIPS3_S5_EERKS3_@Base 3.4.2
 _ZNSt6vectorIPN4geos4geom18CoordinateSequenceESaIS3_EE13_M_insert_auxEN9__gnu_cxx17__normal_iteratorIPS3_S5_EERKS3_@Base 3.4.2
 _ZNSt6vectorIPN4geos4geom5PointESaIS3_EE13_M_insert_auxEN9__gnu_cxx17__normal_iteratorIPS3_S5_EERKS3_@Base 3.4.2
 _ZNSt6vectorIPN4geos4geom7PolygonESaIS3_EE13_M_insert_auxEN9__gnu_cxx17__normal_iteratorIPS3_S5_EERKS3_@Base 3.4.2
 _ZNSt6vectorIPN4geos4geom8EnvelopeESaIS3_EE13_M_insert_auxEN9__gnu_cxx17__normal_iteratorIPS3_S5_EERKS3_@Base 3.4.2
 _ZNSt6vectorIPN4geos4geom8GeometryESaIS3_EE13_M_insert_auxEN9__gnu_cxx17__normal_iteratorIPS3_S5_EERKS3_@Base 3.4.2
 _ZNSt6vectorIPN4geos4geom8GeometryESaIS3_EE15_M_range_insertIN9__gnu_cxx17__normal_iteratorIPPNS1_10LineStringES_ISA_SaISA_EEEEEEvNS8_IPS3_S5_EET_SH_St20forward_iterator_tag@Base 3.4.2
 _ZNSt6vectorIPN4geos4geom8GeometryESaIS3_EE15_M_range_insertIN9__gnu_cxx17__normal_iteratorIPPNS1_5PointES_ISA_SaISA_EEEEEEvNS8_IPS3_S5_EET_SH_St20forward_iterator_tag@Base 3.4.2
 _ZNSt6vectorIPN4geos4geom8GeometryESaIS3_EE15_M_range_insertIN9__gnu_cxx17__normal_iteratorIPPNS1_7PolygonES_ISA_SaISA_EEEEEEvNS8_IPS3_S5_EET_SH_St20forward_iterator_tag@Base 3.4.2
 _ZNSt6vectorIPN4geos4geom8GeometryESaIS3_EE15_M_range_insertIN9__gnu_cxx17__normal_iteratorIPS3_S5_EEEEvSA_T_SB_St20forward_iterator_tag@Base 3.4.2
 _ZNSt6vectorIPN4geos4geom8GeometryESaIS3_EE7reserveEm@Base 3.4.2
 _ZNSt6vectorIPN4geos5index5chain13MonotoneChainESaIS4_EE13_M_insert_auxEN9__gnu_cxx17__normal_iteratorIPS4_S6_EERKS4_@Base 3.4.2
 _ZNSt6vectorIPN4geos5index5chain13MonotoneChainESaIS4_EE7reserveEm@Base 3.4.2
 _ZNSt6vectorIPN4geos5index7bintree8IntervalESaIS4_EE13_M_insert_auxEN9__gnu_cxx17__normal_iteratorIPS4_S6_EERKS4_@Base 3.4.2
 _ZNSt6vectorIPN4geos5index7strtree12AbstractNodeESaIS4_EE13_M_insert_auxEN9__gnu_cxx17__normal_iteratorIPS4_S6_EERKS4_@Base 3.4.2
 _ZNSt6vectorIPN4geos5index7strtree9BoundableESaIS4_EE13_M_insert_auxEN9__gnu_cxx17__normal_iteratorIPS4_S6_EERKS4_@Base 3.4.2
 _ZNSt6vectorIPN4geos5index7strtree9BoundableESaIS4_EE15_M_range_insertIN9__gnu_cxx17__normal_iteratorIPS4_S6_EEEEvSB_T_SC_St20forward_iterator_tag@Base 3.4.2
 _ZNSt6vectorIPN4geos5index7strtree9BoundableESaIS4_EE8_M_eraseEN9__gnu_cxx17__normal_iteratorIPS4_S6_EE@Base 3.4.2
 _ZNSt6vectorIPN4geos5index9sweepline14SweepLineEventESaIS4_EE13_M_insert_auxEN9__gnu_cxx17__normal_iteratorIPS4_S6_EERKS4_@Base 3.4.2
 _ZNSt6vectorIPN4geos6noding13SegmentStringESaIS3_EE13_M_insert_auxEN9__gnu_cxx17__normal_iteratorIPS3_S5_EERKS3_@Base 3.4.2
 _ZNSt6vectorIPN4geos8simplify17TaggedLineSegmentESaIS3_EE13_M_insert_auxEN9__gnu_cxx17__normal_iteratorIPS3_S5_EERKS3_@Base 3.4.2
 _ZNSt6vectorIPN4geos9geomgraph12DirectedEdgeESaIS3_EE13_M_insert_auxEN9__gnu_cxx17__normal_iteratorIPS3_S5_EERKS3_@Base 3.4.2
 _ZNSt6vectorIPN4geos9geomgraph4EdgeESaIS3_EE13_M_insert_auxEN9__gnu_cxx17__normal_iteratorIPS3_S5_EERKS3_@Base 3.4.2
 _ZNSt6vectorIPN4geos9geomgraph4EdgeESaIS3_EE15_M_range_insertIN9__gnu_cxx17__normal_iteratorIPS3_S5_EEEEvSA_T_SB_St20forward_iterator_tag@Base 3.4.2
 _ZNSt6vectorIPN4geos9geomgraph4NodeESaIS3_EE13_M_insert_auxEN9__gnu_cxx17__normal_iteratorIPS3_S5_EERKS3_@Base 3.4.2
 _ZNSt6vectorIPN4geos9geomgraph5LabelESaIS3_EE13_M_insert_auxEN9__gnu_cxx17__normal_iteratorIPS3_S5_EERKS3_@Base 3.4.2
 _ZNSt6vectorIPN4geos9geomgraph5index14SweepLineEventESaIS4_EE13_M_insert_auxEN9__gnu_cxx17__normal_iteratorIPS4_S6_EERKS4_@Base 3.4.2
 _ZNSt6vectorIPN4geos9geomgraph7EdgeEndESaIS3_EE13_M_insert_auxEN9__gnu_cxx17__normal_iteratorIPS3_S5_EERKS3_@Base 3.4.2
 _ZNSt6vectorIPN4geos9geomgraph8EdgeRingESaIS3_EE13_M_insert_auxEN9__gnu_cxx17__normal_iteratorIPS3_S5_EERKS3_@Base 3.4.2
 _ZNSt6vectorIPN4geos9geomgraph8EdgeRingESaIS3_EE15_M_range_insertIN9__gnu_cxx17__normal_iteratorIPPNS0_9operation7overlay15MinimalEdgeRingES_ISC_SaISC_EEEEEEvNS8_IPS3_S5_EET_SJ_St20forward_iterator_tag@Base 3.4.2
 _ZNSt6vectorIPN4geos9operation10polygonize8EdgeRingESaIS4_EE13_M_insert_auxEN9__gnu_cxx17__normal_iteratorIPS4_S6_EERKS4_@Base 3.4.2
 _ZNSt6vectorIPN4geos9operation6buffer12DepthSegmentESaIS4_EE13_M_insert_auxEN9__gnu_cxx17__normal_iteratorIPS4_S6_EERKS4_@Base 3.4.2
 _ZNSt6vectorIPN4geos9operation6buffer14BufferSubgraphESaIS4_EE13_M_insert_auxEN9__gnu_cxx17__normal_iteratorIPS4_S6_EERKS4_@Base 3.4.2
 _ZNSt6vectorIPN4geos9operation7overlay15MaximalEdgeRingESaIS4_EE13_M_insert_auxEN9__gnu_cxx17__normal_iteratorIPS4_S6_EERKS4_@Base 3.4.2
 _ZNSt6vectorIPN4geos9operation7overlay15MinimalEdgeRingESaIS4_EE13_M_insert_auxEN9__gnu_cxx17__normal_iteratorIPS4_S6_EERKS4_@Base 3.4.2
 _ZNSt6vectorIPN4geos9operation8distance16GeometryLocationESaIS4_EE13_M_insert_auxEN9__gnu_cxx17__normal_iteratorIPS4_S6_EERKS4_@Base 3.4.2
 _ZNSt6vectorIPN4geos9operation9linemerge10EdgeStringESaIS4_EE13_M_insert_auxEN9__gnu_cxx17__normal_iteratorIPS4_S6_EERKS4_@Base 3.4.2
 _ZNSt6vectorIPN4geos9operation9linemerge21LineMergeDirectedEdgeESaIS4_EE13_M_insert_auxEN9__gnu_cxx17__normal_iteratorIPS4_S6_EERKS4_@Base 3.4.2
 _ZNSt6vectorIPvSaIS0_EE13_M_insert_auxEN9__gnu_cxx17__normal_iteratorIPS0_S2_EERKS0_@Base 3.4.2
 _ZNSt6vectorIPvSaIS0_EE15_M_range_insertIN9__gnu_cxx17__normal_iteratorIPKS0_S2_EEEEvNS5_IPS0_S2_EET_SB_St20forward_iterator_tag@Base 3.4.2
 _ZNSt6vectorIPvSaIS0_EE15_M_range_insertIN9__gnu_cxx17__normal_iteratorIPS0_S2_EEEEvS7_T_S8_St20forward_iterator_tag@Base 3.4.2
 _ZNSt6vectorIdSaIdEE13_M_insert_auxEN9__gnu_cxx17__normal_iteratorIPdS1_EERKd@Base 3.4.2
 _ZNSt6vectorIdSaIdEE14_M_fill_insertEN9__gnu_cxx17__normal_iteratorIPdS1_EEmRKd@Base 3.4.2
 _ZNSt6vectorIiSaIiEE13_M_insert_auxEN9__gnu_cxx17__normal_iteratorIPiS1_EERKi@Base 3.4.2
 _ZNSt6vectorIiSaIiEE14_M_fill_insertEN9__gnu_cxx17__normal_iteratorIPiS1_EEmRKi@Base 3.4.2
 _ZNSt6vectorIiSaIiEEaSERKS1_@Base 3.4.2
 _ZNSt6vectorImSaImEE13_M_insert_auxEN9__gnu_cxx17__normal_iteratorIPmS1_EERKm@Base 3.4.2
 _ZNSt7__cxx1115basic_stringbufIcSt11char_traitsIcESaIcEED0Ev@Base 3.4.2
 _ZNSt7__cxx1115basic_stringbufIcSt11char_traitsIcESaIcEED1Ev@Base 3.4.2
 _ZNSt7__cxx1115basic_stringbufIcSt11char_traitsIcESaIcEED2Ev@Base 3.4.2
 _ZNSt7__cxx114listIPN4geos4geom10LineStringESaIS4_EEaSERKS6_@Base 3.5.0
 _ZNSt7__cxx114listIPN4geos4geom7PolygonESaIS4_EEaSERKS6_@Base 3.5.0
 _ZNSt8_Rb_treeIN4geos11triangulate8quadedge6VertexES3_St9_IdentityIS3_ESt4lessIS3_ESaIS3_EE16_M_insert_uniqueERKS3_@Base 3.5.0
 _ZNSt8_Rb_treeIN4geos11triangulate8quadedge6VertexES3_St9_IdentityIS3_ESt4lessIS3_ESaIS3_EE4findERKS3_@Base 3.5.0
 _ZNSt8_Rb_treeIN4geos11triangulate8quadedge6VertexES3_St9_IdentityIS3_ESt4lessIS3_ESaIS3_EE8_M_eraseEPSt13_Rb_tree_nodeIS3_E@Base 3.5.0
 _ZNSt8_Rb_treeIN4geos4geom10CoordinateES2_St9_IdentityIS2_ESt4lessIS2_ESaIS2_EE8_M_eraseEPSt13_Rb_tree_nodeIS2_E@Base 3.4.2
 _ZNSt8_Rb_treeIN4geos4geom10CoordinateESt4pairIKS2_PNS0_11planargraph4NodeEESt10_Select1stIS8_ENS1_18CoordinateLessThenESaIS8_EE11equal_rangeERS4_@Base 3.4.2
 _ZNSt8_Rb_treeIN4geos4geom10CoordinateESt4pairIKS2_PNS0_11planargraph4NodeEESt10_Select1stIS8_ENS1_18CoordinateLessThenESaIS8_EE8_M_eraseEPSt13_Rb_tree_nodeIS8_E@Base 3.4.2
 _ZNSt8_Rb_treeIN4geos6noding23OrientedCoordinateArrayES2_St9_IdentityIS2_ESt4lessIS2_ESaIS2_EE8_M_eraseEPSt13_Rb_tree_nodeIS2_E@Base 3.4.2
 _ZNSt8_Rb_treeINSt7__cxx1112basic_stringIcSt11char_traitsIcESaIcEEESt4pairIKS5_PN4geos4util7ProfileEESt10_Select1stISC_ESt4lessIS5_ESaISC_EE16_M_insert_uniqueERKSC_@Base 3.4.2
 _ZNSt8_Rb_treeINSt7__cxx1112basic_stringIcSt11char_traitsIcESaIcEEESt4pairIKS5_PN4geos4util7ProfileEESt10_Select1stISC_ESt4lessIS5_ESaISC_EE4findERS7_@Base 3.4.2
 _ZNSt8_Rb_treeINSt7__cxx1112basic_stringIcSt11char_traitsIcESaIcEEESt4pairIKS5_PN4geos4util7ProfileEESt10_Select1stISC_ESt4lessIS5_ESaISC_EE8_M_eraseEPSt13_Rb_tree_nodeISC_E@Base 3.4.2
 _ZNSt8_Rb_treeIPKN4geos4geom10CoordinateES4_St9_IdentityIS4_ENS1_18CoordinateLessThenESaIS4_EE10_M_insert_INS9_11_Alloc_nodeEEESt17_Rb_tree_iteratorIS4_EPSt18_Rb_tree_node_baseSF_RKS4_RT_@Base 3.4.2
 _ZNSt8_Rb_treeIPKN4geos4geom10CoordinateES4_St9_IdentityIS4_ENS1_18CoordinateLessThenESaIS4_EE24_M_get_insert_unique_posERKS4_@Base 3.4.2
 _ZNSt8_Rb_treeIPKN4geos4geom10CoordinateES4_St9_IdentityIS4_ENS1_18CoordinateLessThenESaIS4_EE29_M_get_insert_hint_unique_posESt23_Rb_tree_const_iteratorIS4_ERKS4_@Base 3.4.2
 _ZNSt8_Rb_treeIPKN4geos4geom10CoordinateES4_St9_IdentityIS4_ENS1_18CoordinateLessThenESaIS4_EE4findERKS4_@Base 3.4.2
 _ZNSt8_Rb_treeIPKN4geos4geom10CoordinateES4_St9_IdentityIS4_ENS1_18CoordinateLessThenESaIS4_EE8_M_eraseEPSt13_Rb_tree_nodeIS4_E@Base 3.4.2
 _ZNSt8_Rb_treeIPKN4geos4geom10CoordinateESt4pairIKS4_PNS0_9operation12EndpointInfoEESt10_Select1stISA_ENS1_18CoordinateLessThenESaISA_EE24_M_get_insert_unique_posERS6_@Base 3.4.2
 _ZNSt8_Rb_treeIPKN4geos4geom10CoordinateESt4pairIKS4_PNS0_9operation12EndpointInfoEESt10_Select1stISA_ENS1_18CoordinateLessThenESaISA_EE29_M_get_insert_hint_unique_posESt23_Rb_tree_const_iteratorISA_ERS6_@Base 3.4.2
 _ZNSt8_Rb_treeIPKN4geos4geom10CoordinateESt4pairIKS4_PNS0_9operation12EndpointInfoEESt10_Select1stISA_ENS1_18CoordinateLessThenESaISA_EE8_M_eraseEPSt13_Rb_tree_nodeISA_E@Base 3.4.2
 _ZNSt8_Rb_treeIPKN4geos4geom10LineStringES4_St9_IdentityIS4_ESt4lessIS4_ESaIS4_EE8_M_eraseEPSt13_Rb_tree_nodeIS4_E@Base 3.4.2
 _ZNSt8_Rb_treeIPKN4geos4geom10LineStringESt4pairIKS4_PNS0_9geomgraph4EdgeEESt10_Select1stISA_ESt4lessIS4_ESaISA_EE24_M_get_insert_unique_posERS6_@Base 3.4.2
 _ZNSt8_Rb_treeIPKN4geos4geom10LineStringESt4pairIKS4_PNS0_9geomgraph4EdgeEESt10_Select1stISA_ESt4lessIS4_ESaISA_EE29_M_get_insert_hint_unique_posESt23_Rb_tree_const_iteratorISA_ERS6_@Base 3.4.2
 _ZNSt8_Rb_treeIPKN4geos4geom10LineStringESt4pairIKS4_PNS0_9geomgraph4EdgeEESt10_Select1stISA_ESt4lessIS4_ESaISA_EE8_M_eraseEPSt13_Rb_tree_nodeISA_E@Base 3.4.2
 _ZNSt8_Rb_treeIPKN4geos4geom8GeometryESt4pairIKS4_PNS0_8simplify16TaggedLineStringEESt10_Select1stISA_ESt4lessIS4_ESaISA_EE16_M_insert_uniqueERKSA_@Base 3.4.2
 _ZNSt8_Rb_treeIPKN4geos4geom8GeometryESt4pairIKS4_PNS0_8simplify16TaggedLineStringEESt10_Select1stISA_ESt4lessIS4_ESaISA_EE8_M_eraseEPSt13_Rb_tree_nodeISA_E@Base 3.4.2
 _ZNSt8_Rb_treeIPN4geos11planargraph4EdgeES3_St9_IdentityIS3_ESt4lessIS3_ESaIS3_EE16_M_insert_uniqueERKS3_@Base 3.4.2
 _ZNSt8_Rb_treeIPN4geos11planargraph4EdgeES3_St9_IdentityIS3_ESt4lessIS3_ESaIS3_EE8_M_eraseEPSt13_Rb_tree_nodeIS3_E@Base 3.4.2
 _ZNSt8_Rb_treeIPN4geos11triangulate8quadedge8QuadEdgeES4_St9_IdentityIS4_ESt4lessIS4_ESaIS4_EE16_M_insert_uniqueERKS4_@Base 3.4.2
 _ZNSt8_Rb_treeIPN4geos11triangulate8quadedge8QuadEdgeES4_St9_IdentityIS4_ESt4lessIS4_ESaIS4_EE8_M_eraseEPSt13_Rb_tree_nodeIS4_E@Base 3.4.2
 _ZNSt8_Rb_treeIPN4geos4geom10CoordinateESt4pairIKS3_PNS0_9geomgraph4NodeEESt10_Select1stIS9_ENS1_18CoordinateLessThenESaIS9_EE17_M_insert_unique_INSE_11_Alloc_nodeEEESt17_Rb_tree_iteratorIS9_ESt23_Rb_tree_const_iteratorIS9_ERKS9_RT_@Base 3.4.2
 _ZNSt8_Rb_treeIPN4geos4geom10CoordinateESt4pairIKS3_PNS0_9geomgraph4NodeEESt10_Select1stIS9_ENS1_18CoordinateLessThenESaIS9_EE24_M_get_insert_unique_posERS5_@Base 3.4.2
 _ZNSt8_Rb_treeIPN4geos4geom10CoordinateESt4pairIKS3_PNS0_9geomgraph4NodeEESt10_Select1stIS9_ENS1_18CoordinateLessThenESaIS9_EE29_M_get_insert_hint_unique_posESt23_Rb_tree_const_iteratorIS9_ERS5_@Base 3.4.2
 _ZNSt8_Rb_treeIPN4geos4geom10CoordinateESt4pairIKS3_PNS0_9geomgraph4NodeEESt10_Select1stIS9_ENS1_18CoordinateLessThenESaIS9_EE8_M_eraseEPSt13_Rb_tree_nodeIS9_E@Base 3.4.2
 _ZNSt8_Rb_treeIPN4geos6noding11SegmentNodeES3_St9_IdentityIS3_ENS1_13SegmentNodeLTESaIS3_EE8_M_eraseEPSt13_Rb_tree_nodeIS3_E@Base 3.4.2
 _ZNSt8_Rb_treeIPN4geos6noding23OrientedCoordinateArrayESt4pairIKS3_PNS0_9geomgraph4EdgeEESt10_Select1stIS9_ENS6_8EdgeList6OcaCmpESaIS9_EE24_M_get_insert_unique_posERS5_@Base 3.4.2
 _ZNSt8_Rb_treeIPN4geos6noding23OrientedCoordinateArrayESt4pairIKS3_PNS0_9geomgraph4EdgeEESt10_Select1stIS9_ENS6_8EdgeList6OcaCmpESaIS9_EE29_M_get_insert_hint_unique_posESt23_Rb_tree_const_iteratorIS9_ERS5_@Base 3.4.2
 _ZNSt8_Rb_treeIPN4geos6noding23OrientedCoordinateArrayESt4pairIKS3_PNS0_9geomgraph4EdgeEESt10_Select1stIS9_ENS6_8EdgeList6OcaCmpESaIS9_EE8_M_eraseEPSt13_Rb_tree_nodeIS9_E@Base 3.4.2
 _ZNSt8_Rb_treeIPN4geos9geomgraph16EdgeIntersectionES3_St9_IdentityIS3_ENS1_24EdgeIntersectionLessThenESaIS3_EE8_M_eraseEPSt13_Rb_tree_nodeIS3_E@Base 3.4.2
 _ZNSt8_Rb_treeIPN4geos9geomgraph4NodeES3_St9_IdentityIS3_ESt4lessIS3_ESaIS3_EE16_M_insert_uniqueERKS3_@Base 3.4.2
 _ZNSt8_Rb_treeIPN4geos9geomgraph4NodeES3_St9_IdentityIS3_ESt4lessIS3_ESaIS3_EE8_M_eraseEPSt13_Rb_tree_nodeIS3_E@Base 3.4.2
 _ZNSt8_Rb_treeIPN4geos9geomgraph7EdgeEndES3_St9_IdentityIS3_ENS1_9EdgeEndLTESaIS3_EE16_M_insert_uniqueERKS3_@Base 3.4.2
 _ZNSt8_Rb_treeIPN4geos9geomgraph7EdgeEndES3_St9_IdentityIS3_ENS1_9EdgeEndLTESaIS3_EE4findERKS3_@Base 3.4.2
 _ZNSt8_Rb_treeIPN4geos9geomgraph7EdgeEndES3_St9_IdentityIS3_ENS1_9EdgeEndLTESaIS3_EE8_M_eraseEPSt13_Rb_tree_nodeIS3_E@Base 3.4.2
 _ZNSt8_Rb_treeIddSt9_IdentityIdESt4lessIdESaIdEE16_M_insert_uniqueERKd@Base 3.4.2
 _ZNSt8_Rb_treeIddSt9_IdentityIdESt4lessIdESaIdEE7_M_copyINS5_11_Alloc_nodeEEEPSt13_Rb_tree_nodeIdEPKS9_SA_RT_@Base 3.4.2
 _ZNSt8_Rb_treeIddSt9_IdentityIdESt4lessIdESaIdEE8_M_eraseEPSt13_Rb_tree_nodeIdE@Base 3.4.2
 _ZNSt8auto_ptrIN4geos4geom8EnvelopeEED1Ev@Base 3.4.2
 _ZNSt8auto_ptrIN4geos4geom8EnvelopeEED2Ev@Base 3.4.2
 _ZNSt8auto_ptrIN4geos4geom8GeometryEE5resetEPS2_@Base 3.4.2
 _ZNSt8auto_ptrIN4geos5index7strtree9ItemsListEED1Ev@Base 3.4.2
 _ZNSt8auto_ptrIN4geos5index7strtree9ItemsListEED2Ev@Base 3.4.2
 _ZNSt8auto_ptrIN4geos8simplify16LineSegmentIndexEED1Ev@Base 3.4.2
 _ZNSt8auto_ptrIN4geos8simplify16LineSegmentIndexEED2Ev@Base 3.4.2
 _ZNSt8auto_ptrIN4geos8simplify21TaggedLinesSimplifierEED1Ev@Base 3.4.2
 _ZNSt8auto_ptrIN4geos8simplify21TaggedLinesSimplifierEED2Ev@Base 3.4.2
 _ZNSt8auto_ptrIN4geos9operation6buffer22OffsetSegmentGeneratorEED1Ev@Base 3.4.2
 _ZNSt8auto_ptrIN4geos9operation6buffer22OffsetSegmentGeneratorEED2Ev@Base 3.4.2
 _ZNSt8auto_ptrIN4geos9operation8geounion18GeometryListHolderEED1Ev@Base 3.4.2
 _ZNSt8auto_ptrIN4geos9operation8geounion18GeometryListHolderEED2Ev@Base 3.4.2
 _ZNSt8auto_ptrIN4geos9precision17CommonBitsRemoverEED1Ev@Base 3.4.2
 _ZNSt8auto_ptrIN4geos9precision17CommonBitsRemoverEED2Ev@Base 3.4.2
 _ZNSt8auto_ptrINSt7__cxx114listIPN4geos11triangulate8quadedge8QuadEdgeESaIS6_EEEED1Ev@Base 3.5.0
 _ZNSt8auto_ptrINSt7__cxx114listIPN4geos11triangulate8quadedge8QuadEdgeESaIS6_EEEED2Ev@Base 3.5.0
 _ZNSt8auto_ptrISt6vectorIN4geos4geom10CoordinateESaIS3_EEED1Ev@Base 3.4.2
 _ZNSt8auto_ptrISt6vectorIN4geos4geom10CoordinateESaIS3_EEED2Ev@Base 3.4.2
 _ZNSt8auto_ptrISt6vectorIPKN4geos4geom10CoordinateESaIS5_EEED1Ev@Base 3.4.2
 _ZNSt8auto_ptrISt6vectorIPKN4geos4geom10CoordinateESaIS5_EEED2Ev@Base 3.4.2
 _ZNSt8auto_ptrISt6vectorIPN4geos4geom11LineSegmentESaIS4_EEED1Ev@Base 3.4.2
 _ZNSt8auto_ptrISt6vectorIPN4geos4geom11LineSegmentESaIS4_EEED2Ev@Base 3.4.2
 _ZNSt8auto_ptrISt6vectorIPN4geos4geom8GeometryESaIS4_EEED1Ev@Base 3.5.0
 _ZNSt8auto_ptrISt6vectorIPN4geos4geom8GeometryESaIS4_EEED2Ev@Base 3.5.0
 _ZNSt8auto_ptrISt6vectorIPN4geos5index7strtree9BoundableESaIS5_EEED1Ev@Base 3.4.2
 _ZNSt8auto_ptrISt6vectorIPN4geos5index7strtree9BoundableESaIS5_EEED2Ev@Base 3.4.2
 _ZNSt8auto_ptrISt6vectorIPN4geos9geomgraph4NodeESaIS4_EEED1Ev@Base 3.4.2
 _ZNSt8auto_ptrISt6vectorIPN4geos9geomgraph4NodeESaIS4_EEED2Ev@Base 3.4.2
 _ZNSt8auto_ptrISt6vectorIPN4geos9geomgraph7EdgeEndESaIS4_EEED1Ev@Base 3.4.2
 _ZNSt8auto_ptrISt6vectorIPN4geos9geomgraph7EdgeEndESaIS4_EEED2Ev@Base 3.4.2
 _ZSt13__adjust_heapIN9__gnu_cxx17__normal_iteratorIPN4geos4geom10CoordinateESt6vectorIS4_SaIS4_EEEElS4_NS0_5__ops15_Iter_comp_iterINS3_18CoordinateLessThenEEEEvT_T0_SF_T1_T2_@Base 3.4.2
 _ZSt13__adjust_heapIN9__gnu_cxx17__normal_iteratorIPPKN4geos5index13intervalrtree17IntervalRTreeNodeESt6vectorIS7_SaIS7_EEEElS7_NS0_5__ops15_Iter_comp_iterIPFbS7_S7_EEEEvT_T0_SJ_T1_T2_@Base 3.4.2
 _ZSt13__adjust_heapIN9__gnu_cxx17__normal_iteratorIPPN4geos11planargraph12DirectedEdgeESt6vectorIS5_SaIS5_EEEElS5_NS0_5__ops15_Iter_comp_iterIPFbS5_S5_EEEEvT_T0_SH_T1_T2_@Base 3.4.2
 _ZSt13__adjust_heapIN9__gnu_cxx17__normal_iteratorIPPN4geos11planargraph4EdgeESt6vectorIS5_SaIS5_EEEElS5_NS0_5__ops15_Iter_less_iterEEvT_T0_SE_T1_T2_@Base 3.4.2
 _ZSt13__adjust_heapIN9__gnu_cxx17__normal_iteratorIPPN4geos4geom8GeometryESt6vectorIS5_SaIS5_EEEElS5_NS0_5__ops15_Iter_comp_iterINS3_19GeometryGreaterThenEEEEvT_T0_SG_T1_T2_@Base 3.4.2
 _ZSt13__adjust_heapIN9__gnu_cxx17__normal_iteratorIPPN4geos5index7strtree9BoundableESt6vectorIS6_SaIS6_EEEElS6_NS0_5__ops15_Iter_comp_iterIPFbS6_S6_EEEEvT_T0_SI_T1_T2_@Base 3.4.2
 _ZSt13__adjust_heapIN9__gnu_cxx17__normal_iteratorIPPN4geos5index9sweepline14SweepLineEventESt6vectorIS6_SaIS6_EEEElS6_NS0_5__ops15_Iter_comp_iterINS4_22SweepLineEventLessThenEEEEvT_T0_SH_T1_T2_@Base 3.4.2
 _ZSt13__adjust_heapIN9__gnu_cxx17__normal_iteratorIPPN4geos9geomgraph5index14SweepLineEventESt6vectorIS6_SaIS6_EEEElS6_NS0_5__ops15_Iter_comp_iterINS4_22SweepLineEventLessThenEEEEvT_T0_SH_T1_T2_@Base 3.4.2
 _ZSt13__adjust_heapIN9__gnu_cxx17__normal_iteratorIPPN4geos9operation6buffer12DepthSegmentESt6vectorIS6_SaIS6_EEEElS6_NS0_5__ops15_Iter_comp_iterINS4_20DepthSegmentLessThenEEEEvT_T0_SH_T1_T2_@Base 3.4.2
 _ZSt13__adjust_heapIN9__gnu_cxx17__normal_iteratorIPPN4geos9operation6buffer14BufferSubgraphESt6vectorIS6_SaIS6_EEEElS6_NS0_5__ops15_Iter_comp_iterIPFbS6_S6_EEEEvT_T0_SI_T1_T2_@Base 3.4.2
 _ZSt16__insertion_sortIN9__gnu_cxx17__normal_iteratorIPN4geos4geom10CoordinateESt6vectorIS4_SaIS4_EEEENS0_5__ops15_Iter_comp_iterINS3_18CoordinateLessThenEEEEvT_SE_T0_@Base 3.4.2
 _ZSt16__insertion_sortIN9__gnu_cxx17__normal_iteratorIPPKN4geos5index13intervalrtree17IntervalRTreeNodeESt6vectorIS7_SaIS7_EEEENS0_5__ops15_Iter_comp_iterIPFbS7_S7_EEEEvT_SI_T0_@Base 3.4.2
 _ZSt16__insertion_sortIN9__gnu_cxx17__normal_iteratorIPPN4geos11planargraph12DirectedEdgeESt6vectorIS5_SaIS5_EEEENS0_5__ops15_Iter_comp_iterIPFbS5_S5_EEEEvT_SG_T0_@Base 3.4.2
 _ZSt16__insertion_sortIN9__gnu_cxx17__normal_iteratorIPPN4geos11planargraph4EdgeESt6vectorIS5_SaIS5_EEEENS0_5__ops15_Iter_less_iterEEvT_SD_T0_@Base 3.4.2
 _ZSt16__insertion_sortIN9__gnu_cxx17__normal_iteratorIPPN4geos4geom8GeometryESt6vectorIS5_SaIS5_EEEENS0_5__ops15_Iter_comp_iterINS3_19GeometryGreaterThenEEEEvT_SF_T0_@Base 3.4.2
 _ZSt16__insertion_sortIN9__gnu_cxx17__normal_iteratorIPPN4geos5index7strtree9BoundableESt6vectorIS6_SaIS6_EEEENS0_5__ops15_Iter_comp_iterIPFbS6_S6_EEEEvT_SH_T0_@Base 3.4.2
 _ZSt16__insertion_sortIN9__gnu_cxx17__normal_iteratorIPPN4geos5index9sweepline14SweepLineEventESt6vectorIS6_SaIS6_EEEENS0_5__ops15_Iter_comp_iterINS4_22SweepLineEventLessThenEEEEvT_SG_T0_@Base 3.4.2
 _ZSt16__insertion_sortIN9__gnu_cxx17__normal_iteratorIPPN4geos9geomgraph5index14SweepLineEventESt6vectorIS6_SaIS6_EEEENS0_5__ops15_Iter_comp_iterINS4_22SweepLineEventLessThenEEEEvT_SG_T0_@Base 3.4.2
 _ZSt16__insertion_sortIN9__gnu_cxx17__normal_iteratorIPPN4geos9operation6buffer14BufferSubgraphESt6vectorIS6_SaIS6_EEEENS0_5__ops15_Iter_comp_iterIPFbS6_S6_EEEEvT_SH_T0_@Base 3.4.2
 _ZSt16__introsort_loopIN9__gnu_cxx17__normal_iteratorIPN4geos4geom10CoordinateESt6vectorIS4_SaIS4_EEEElNS0_5__ops15_Iter_comp_iterINS3_18CoordinateLessThenEEEEvT_SE_T0_T1_@Base 3.4.2
 _ZSt16__introsort_loopIN9__gnu_cxx17__normal_iteratorIPPKN4geos5index13intervalrtree17IntervalRTreeNodeESt6vectorIS7_SaIS7_EEEElNS0_5__ops15_Iter_comp_iterIPFbS7_S7_EEEEvT_SI_T0_T1_@Base 3.4.2
 _ZSt16__introsort_loopIN9__gnu_cxx17__normal_iteratorIPPN4geos11planargraph12DirectedEdgeESt6vectorIS5_SaIS5_EEEElNS0_5__ops15_Iter_comp_iterIPFbS5_S5_EEEEvT_SG_T0_T1_@Base 3.4.2
 _ZSt16__introsort_loopIN9__gnu_cxx17__normal_iteratorIPPN4geos4geom8GeometryESt6vectorIS5_SaIS5_EEEElNS0_5__ops15_Iter_comp_iterINS3_19GeometryGreaterThenEEEEvT_SF_T0_T1_@Base 3.4.2
 _ZSt16__introsort_loopIN9__gnu_cxx17__normal_iteratorIPPN4geos5index7strtree9BoundableESt6vectorIS6_SaIS6_EEEElNS0_5__ops15_Iter_comp_iterIPFbS6_S6_EEEEvT_SH_T0_T1_@Base 3.4.2
 _ZSt16__introsort_loopIN9__gnu_cxx17__normal_iteratorIPPN4geos5index9sweepline14SweepLineEventESt6vectorIS6_SaIS6_EEEElNS0_5__ops15_Iter_comp_iterINS4_22SweepLineEventLessThenEEEEvT_SG_T0_T1_@Base 3.4.2
 _ZSt16__introsort_loopIN9__gnu_cxx17__normal_iteratorIPPN4geos9geomgraph5index14SweepLineEventESt6vectorIS6_SaIS6_EEEElNS0_5__ops15_Iter_comp_iterINS4_22SweepLineEventLessThenEEEEvT_SG_T0_T1_@Base 3.4.2
 _ZSt16__introsort_loopIN9__gnu_cxx17__normal_iteratorIPPN4geos9operation6buffer12DepthSegmentESt6vectorIS6_SaIS6_EEEElNS0_5__ops15_Iter_comp_iterINS4_20DepthSegmentLessThenEEEEvT_SG_T0_T1_@Base 3.4.2
 _ZSt16__introsort_loopIN9__gnu_cxx17__normal_iteratorIPPN4geos9operation6buffer14BufferSubgraphESt6vectorIS6_SaIS6_EEEElNS0_5__ops15_Iter_comp_iterIPFbS6_S6_EEEEvT_SH_T0_T1_@Base 3.4.2
 _ZSt22__move_median_to_firstIN9__gnu_cxx17__normal_iteratorIPN4geos4geom10CoordinateESt6vectorIS4_SaIS4_EEEENS0_5__ops15_Iter_comp_iterINS3_18CoordinateLessThenEEEEvT_SE_SE_SE_T0_@Base 3.4.2
 _ZSt25__unguarded_linear_insertIN9__gnu_cxx17__normal_iteratorIPN4geos4geom10CoordinateESt6vectorIS4_SaIS4_EEEENS0_5__ops14_Val_comp_iterINS3_18CoordinateLessThenEEEEvT_T0_@Base 3.4.2
 _ZSt25__unguarded_linear_insertIN9__gnu_cxx17__normal_iteratorIPPN4geos4geom8GeometryESt6vectorIS5_SaIS5_EEEENS0_5__ops14_Val_comp_iterINS3_19GeometryGreaterThenEEEEvT_T0_@Base 3.4.2
 _ZSt25__unguarded_linear_insertIN9__gnu_cxx17__normal_iteratorIPPN4geos5index9sweepline14SweepLineEventESt6vectorIS6_SaIS6_EEEENS0_5__ops14_Val_comp_iterINS4_22SweepLineEventLessThenEEEEvT_T0_@Base 3.4.2
 _ZStplIcSt11char_traitsIcESaIcEENSt7__cxx1112basic_stringIT_T0_T1_EEPKS5_RKS8_@Base 3.4.2
 _ZStplIcSt11char_traitsIcESaIcEENSt7__cxx1112basic_stringIT_T0_T1_EERKS8_PKS5_@Base 3.4.2
 _ZStplIcSt11char_traitsIcESaIcEENSt7__cxx1112basic_stringIT_T0_T1_EERKS8_SA_@Base 3.4.2
 _ZTIN4geos11planargraph11PlanarGraphE@Base 3.4.2
 _ZTIN4geos11planargraph12DirectedEdgeE@Base 3.4.2
 _ZTIN4geos11planargraph14GraphComponentE@Base 3.4.2
 _ZTIN4geos11planargraph16DirectedEdgeStarE@Base 3.4.2
 _ZTIN4geos11planargraph4EdgeE@Base 3.4.2
 _ZTIN4geos11planargraph4NodeE@Base 3.4.2
 _ZTIN4geos11planargraph7NodeMapE@Base 3.4.2
 _ZTIN4geos11triangulate8quadedge15QuadEdgeLocatorE@Base 3.4.2
 _ZTIN4geos11triangulate8quadedge15TriangleVisitorE@Base 3.4.2
 _ZTIN4geos11triangulate8quadedge19QuadEdgeSubdivision26TriangleCoordinatesVisitorE@Base 3.4.2
 _ZTIN4geos11triangulate8quadedge19QuadEdgeSubdivision27TriangleCircumcentreVisitorE@Base 3.5.0
 _ZTIN4geos11triangulate8quadedge19QuadEdgeSubdivisionE@Base 3.4.2
 _ZTIN4geos11triangulate8quadedge22LocateFailureExceptionE@Base 3.4.2
 _ZTIN4geos11triangulate8quadedge24LastFoundQuadEdgeLocatorE@Base 3.4.2
 _ZTIN4geos11triangulate8quadedge6VertexE@Base 3.4.2
 _ZTIN4geos11triangulate8quadedge8QuadEdgeE@Base 3.4.2
 _ZTIN4geos2io14ParseExceptionE@Base 3.4.2
 _ZTIN4geos2io9WKBWriterE@Base 3.4.2
 _ZTIN4geos4geom10LineStringE@Base 3.4.2
 _ZTIN4geos4geom10LinearRingE@Base 3.4.2
 _ZTIN4geos4geom10MultiPointE@Base 3.4.2
 _ZTIN4geos4geom11LineSegmentE@Base 3.4.2
 _ZTIN4geos4geom12MultiPolygonE@Base 3.4.2
 _ZTIN4geos4geom14GeometryFilterE@Base 3.4.2
 _ZTIN4geos4geom15GeometryFactoryE@Base 3.4.2
 _ZTIN4geos4geom15MultiLineStringE@Base 3.4.2
 _ZTIN4geos4geom16CoordinateFilterE@Base 3.4.2
 _ZTIN4geos4geom18CoordinateSequenceE@Base 3.4.2
 _ZTIN4geos4geom18GeometryCollectionE@Base 3.4.2
 _ZTIN4geos4geom23CoordinateArraySequenceE@Base 3.4.2
 _ZTIN4geos4geom23GeometryComponentFilterE@Base 3.4.2
 _ZTIN4geos4geom24CoordinateSequenceFilterE@Base 3.4.2
 _ZTIN4geos4geom25CoordinateSequenceFactoryE@Base 3.4.2
 _ZTIN4geos4geom30CoordinateArraySequenceFactoryE@Base 3.4.2
 _ZTIN4geos4geom4prep13PreparedPointE@Base 3.4.2
 _ZTIN4geos4geom4prep15PreparedPolygonE@Base 3.4.2
 _ZTIN4geos4geom4prep16PreparedGeometryE@Base 3.4.2
 _ZTIN4geos4geom4prep18PreparedLineStringE@Base 3.4.2
 _ZTIN4geos4geom4prep21BasicPreparedGeometryE@Base 3.4.2
 _ZTIN4geos4geom4prep21PreparedPolygonCoversE@Base 3.4.2
 _ZTIN4geos4geom4prep23PreparedPolygonContainsE@Base 3.4.2
 _ZTIN4geos4geom4prep24PreparedPolygonPredicateE@Base 3.4.2
 _ZTIN4geos4geom4prep25PreparedPolygonIntersectsE@Base 3.4.2
 _ZTIN4geos4geom4prep31AbstractPreparedPolygonContainsE@Base 3.4.2
 _ZTIN4geos4geom4prep31PreparedPolygonContainsProperlyE@Base 3.4.2
 _ZTIN4geos4geom4util14PointExtracterE@Base 3.4.2
 _ZTIN4geos4geom4util16PolygonExtracterE@Base 3.4.2
 _ZTIN4geos4geom4util17GeometryExtracter9ExtracterINS0_10LineStringESt6vectorIPKS4_SaIS7_EEEE@Base 3.4.2
 _ZTIN4geos4geom4util17GeometryExtracter9ExtracterINS0_5PointESt6vectorIPKS4_SaIS7_EEEE@Base 3.4.2
 _ZTIN4geos4geom4util17GeometryExtracter9ExtracterINS0_7PolygonESt6vectorIPKS4_SaIS7_EEEE@Base 3.4.2
 _ZTIN4geos4geom4util19CoordinateOperationE@Base 3.4.2
 _ZTIN4geos4geom4util19GeometryTransformerE@Base 3.4.2
 _ZTIN4geos4geom4util23GeometryEditorOperationE@Base 3.4.2
 _ZTIN4geos4geom4util24LinearComponentExtracterE@Base 3.4.2
 _ZTIN4geos4geom4util28ComponentCoordinateExtracterE@Base 3.4.2
 _ZTIN4geos4geom4util29ShortCircuitedGeometryVisitorE@Base 3.4.2
 _ZTIN4geos4geom5PointE@Base 3.4.2
 _ZTIN4geos4geom6LinealE@Base 3.4.2
 _ZTIN4geos4geom6PuntalE@Base 3.4.2
 _ZTIN4geos4geom7PolygonE@Base 3.4.2
 _ZTIN4geos4geom8Geometry21GeometryChangedFilterE@Base 3.4.2
 _ZTIN4geos4geom8GeometryE@Base 3.4.2
 _ZTIN4geos4geom9PolygonalE@Base 3.4.2
 _ZTIN4geos4util13GEOSExceptionE@Base 3.4.2
 _ZTIN4geos4util17TopologyExceptionE@Base 3.4.2
 _ZTIN4geos4util20InterruptedExceptionE@Base 3.4.2
 _ZTIN4geos4util21GeometricShapeFactoryE@Base 3.4.2
 _ZTIN4geos4util21IllegalStateExceptionE@Base 3.4.2
 _ZTIN4geos4util24AssertionFailedExceptionE@Base 3.4.2
 _ZTIN4geos4util24IllegalArgumentExceptionE@Base 3.4.2
 _ZTIN4geos4util27UniqueCoordinateArrayFilterE@Base 3.4.2
 _ZTIN4geos4util29UnsupportedOperationExceptionE@Base 3.4.2
 _ZTIN4geos5index11ItemVisitorE@Base 3.4.2
 _ZTIN4geos5index12SpatialIndexE@Base 3.4.2
 _ZTIN4geos5index13intervalrtree17IntervalRTreeNodeE@Base 3.4.2
 _ZTIN4geos5index13intervalrtree21IntervalRTreeLeafNodeE@Base 3.4.2
 _ZTIN4geos5index13intervalrtree23IntervalRTreeBranchNodeE@Base 3.4.2
 _ZTIN4geos5index5chain25MonotoneChainSelectActionE@Base 3.4.2
 _ZTIN4geos5index5chain26MonotoneChainOverlapActionE@Base 3.4.2
 _ZTIN4geos5index7bintree4NodeE@Base 3.4.2
 _ZTIN4geos5index7bintree4RootE@Base 3.4.2
 _ZTIN4geos5index7bintree8NodeBaseE@Base 3.4.2
 _ZTIN4geos5index7strtree12AbstractNodeE@Base 3.4.2
 _ZTIN4geos5index7strtree13ItemBoundableE@Base 3.4.2
 _ZTIN4geos5index7strtree15AbstractSTRtree12IntersectsOpE@Base 3.4.2
 _ZTIN4geos5index7strtree15AbstractSTRtreeE@Base 3.4.2
 _ZTIN4geos5index7strtree15SIRAbstractNodeE@Base 3.4.2
 _ZTIN4geos5index7strtree15STRAbstractNodeE@Base 3.4.2
 _ZTIN4geos5index7strtree7SIRtree15SIRIntersectsOpE@Base 3.4.2
 _ZTIN4geos5index7strtree7SIRtreeE@Base 3.4.2
 _ZTIN4geos5index7strtree7STRtree15STRIntersectsOpE@Base 3.4.2
 _ZTIN4geos5index7strtree7STRtreeE@Base 3.4.2
 _ZTIN4geos5index7strtree9BoundableE@Base 3.4.2
 _ZTIN4geos5index8quadtree4NodeE@Base 3.4.2
 _ZTIN4geos5index8quadtree4RootE@Base 3.4.2
 _ZTIN4geos5index8quadtree8NodeBaseE@Base 3.4.2
 _ZTIN4geos5index8quadtree8QuadtreeE@Base 3.4.2
 _ZTIN4geos5index9sweepline22SweepLineOverlapActionE@Base 3.4.2
 _ZTIN4geos6noding11ScaledNoder6ScalerE@Base 3.4.2
 _ZTIN4geos6noding11ScaledNoder8ReScalerE@Base 3.4.2
 _ZTIN4geos6noding11ScaledNoderE@Base 3.4.2
 _ZTIN4geos6noding11SimpleNoderE@Base 3.4.2
 _ZTIN4geos6noding12MCIndexNoder20SegmentOverlapActionE@Base 3.4.2
 _ZTIN4geos6noding12MCIndexNoderE@Base 3.4.2
 _ZTIN4geos6noding13IteratedNoderE@Base 3.4.2
 _ZTIN4geos6noding13SegmentStringE@Base 3.4.2
 _ZTIN4geos6noding15SegmentNodeListE@Base 3.4.2
 _ZTIN4geos6noding15SinglePassNoderE@Base 3.4.2
 _ZTIN4geos6noding17IntersectionAdderE@Base 3.4.2
 _ZTIN4geos6noding18BasicSegmentStringE@Base 3.4.2
 _ZTIN4geos6noding18NodedSegmentStringE@Base 3.4.2
 _ZTIN4geos6noding18SegmentIntersectorE@Base 3.4.2
 _ZTIN4geos6noding20NodableSegmentStringE@Base 3.4.2
 _ZTIN4geos6noding23IntersectionFinderAdderE@Base 3.4.2
 _ZTIN4geos6noding27SegmentIntersectionDetectorE@Base 3.4.2
 _ZTIN4geos6noding27SegmentSetMutualIntersectorE@Base 3.4.2
 _ZTIN4geos6noding32SingleInteriorIntersectionFinderE@Base 3.4.2
 _ZTIN4geos6noding34MCIndexSegmentSetMutualIntersector20SegmentOverlapActionE@Base 3.4.2
 _ZTIN4geos6noding34MCIndexSegmentSetMutualIntersectorE@Base 3.4.2
 _ZTIN4geos6noding5NoderE@Base 3.4.2
 _ZTIN4geos6noding9snapround17SimpleSnapRounderE@Base 3.4.2
 _ZTIN4geos6noding9snapround18HotPixelSnapActionE@Base 3.4.2
 _ZTIN4geos6noding9snapround18MCIndexSnapRounderE@Base 3.4.2
 _ZTIN4geos6noding9snapround26MCIndexPointSnapperVisitorE@Base 3.4.2
 _ZTIN4geos8simplify13DPTransformerE@Base 3.4.2
 _ZTIN4geos8simplify17TaggedLineSegmentE@Base 3.4.2
 _ZTIN4geos8simplify18LineSegmentVisitorE@Base 3.4.2
 _ZTIN4geos9algorithm11PointInRingE@Base 3.4.2
 _ZTIN4geos9algorithm13MCPointInRing10MCSelecterE@Base 3.4.2
 _ZTIN4geos9algorithm13MCPointInRingE@Base 3.4.2
 _ZTIN4geos9algorithm16BoundaryNodeRuleE@Base 3.4.2
 _ZTIN4geos9algorithm17SimplePointInRingE@Base 3.4.2
 _ZTIN4geos9algorithm18SIRtreePointInRingE@Base 3.4.2
 _ZTIN4geos9algorithm25NotRepresentableExceptionE@Base 3.4.2
 _ZTIN4geos9algorithm6locate22PointOnGeometryLocatorE@Base 3.4.2
 _ZTIN4geos9algorithm6locate25IndexedPointInAreaLocator14SegmentVisitorE@Base 3.4.2
 _ZTIN4geos9algorithm6locate25IndexedPointInAreaLocatorE@Base 3.4.2
 _ZTIN4geos9algorithm8distance25DiscreteHausdorffDistance22MaxPointDistanceFilterE@Base 3.4.2
 _ZTIN4geos9algorithm8distance25DiscreteHausdorffDistance36MaxDensifiedByFractionDistanceFilterE@Base 3.4.2
 _ZTIN4geos9geomgraph11EdgeEndStarE@Base 3.4.2
 _ZTIN4geos9geomgraph11NodeFactoryE@Base 3.4.2
 _ZTIN4geos9geomgraph11PlanarGraphE@Base 3.4.2
 _ZTIN4geos9geomgraph12DirectedEdgeE@Base 3.4.2
 _ZTIN4geos9geomgraph13GeometryGraphE@Base 3.4.2
 _ZTIN4geos9geomgraph14GraphComponentE@Base 3.4.2
 _ZTIN4geos9geomgraph16DirectedEdgeStarE@Base 3.4.2
 _ZTIN4geos9geomgraph4EdgeE@Base 3.4.2
 _ZTIN4geos9geomgraph4NodeE@Base 3.4.2
 _ZTIN4geos9geomgraph5DepthE@Base 3.4.2
 _ZTIN4geos9geomgraph5index13MonotoneChainE@Base 3.4.2
 _ZTIN4geos9geomgraph5index14SweepLineEventE@Base 3.4.2
 _ZTIN4geos9geomgraph5index16SweepLineSegmentE@Base 3.4.2
 _ZTIN4geos9geomgraph5index17SweepLineEventOBJE@Base 3.4.2
 _ZTIN4geos9geomgraph5index18EdgeSetIntersectorE@Base 3.4.2
 _ZTIN4geos9geomgraph5index18SegmentIntersectorE@Base 3.4.2
 _ZTIN4geos9geomgraph5index24SimpleEdgeSetIntersectorE@Base 3.4.2
 _ZTIN4geos9geomgraph5index26SimpleSweepLineIntersectorE@Base 3.4.2
 _ZTIN4geos9geomgraph5index28SimpleMCSweepLineIntersectorE@Base 3.4.2
 _ZTIN4geos9geomgraph7EdgeEndE@Base 3.4.2
 _ZTIN4geos9geomgraph7NodeMapE@Base 3.4.2
 _ZTIN4geos9geomgraph8EdgeListE@Base 3.4.2
 _ZTIN4geos9geomgraph8EdgeRingE@Base 3.4.2
 _ZTIN4geos9operation10polygonize11Polygonizer15LineStringAdderE@Base 3.4.2
 _ZTIN4geos9operation10polygonize14PolygonizeEdgeE@Base 3.4.2
 _ZTIN4geos9operation10polygonize15PolygonizeGraphE@Base 3.4.2
 _ZTIN4geos9operation10polygonize22PolygonizeDirectedEdgeE@Base 3.4.2
 _ZTIN4geos9operation22GeometryGraphOperationE@Base 3.4.2
 _ZTIN4geos9operation5valid25SweeplineNestedRingTester13OverlapActionE@Base 3.4.2
 _ZTIN4geos9operation5valid9IsValidOpE@Base 3.4.2
 _ZTIN4geos9operation6relate10RelateNodeE@Base 3.4.2
 _ZTIN4geos9operation6relate13EdgeEndBundleE@Base 3.4.2
 _ZTIN4geos9operation6relate15RelateNodeGraphE@Base 3.4.2
 _ZTIN4geos9operation6relate17EdgeEndBundleStarE@Base 3.4.2
 _ZTIN4geos9operation6relate17RelateNodeFactoryE@Base 3.4.2
 _ZTIN4geos9operation6relate8RelateOpE@Base 3.4.2
 _ZTIN4geos9operation7overlay15MaximalEdgeRingE@Base 3.4.2
 _ZTIN4geos9operation7overlay15MinimalEdgeRingE@Base 3.4.2
 _ZTIN4geos9operation7overlay18OverlayNodeFactoryE@Base 3.4.2
 _ZTIN4geos9operation7overlay21ElevationMatrixFilterE@Base 3.4.2
 _ZTIN4geos9operation7overlay4snap15SnapTransformerE@Base 3.4.2
 _ZTIN4geos9operation7overlay9OverlayOpE@Base 3.4.2
 _ZTIN4geos9operation8distance27ConnectedElementPointFilterE@Base 3.4.2
 _ZTIN4geos9operation8distance30ConnectedElementLocationFilterE@Base 3.4.2
 _ZTIN4geos9operation9linemerge13LineMergeEdgeE@Base 3.4.2
 _ZTIN4geos9operation9linemerge14LineMergeGraphE@Base 3.4.2
 _ZTIN4geos9operation9linemerge21LineMergeDirectedEdgeE@Base 3.4.2
 _ZTIN4geos9operation9predicate20ContainsPointVisitorE@Base 3.4.2
 _ZTIN4geos9operation9predicate21LineIntersectsVisitorE@Base 3.4.2
 _ZTIN4geos9operation9predicate25EnvelopeIntersectsVisitorE@Base 3.4.2
 _ZTIN4geos9precision10TranslaterE@Base 3.4.2
 _ZTIN4geos9precision22CommonCoordinateFilterE@Base 3.4.2
 _ZTIN4geos9precision35PrecisionReducerCoordinateOperationE@Base 3.4.2
 _ZTIPN4geos4util24IllegalArgumentExceptionE@Base 3.4.2
 _ZTIPN4geos4util29UnsupportedOperationExceptionE@Base 3.4.2
 _ZTSN4geos11planargraph11PlanarGraphE@Base 3.4.2
 _ZTSN4geos11planargraph12DirectedEdgeE@Base 3.4.2
 _ZTSN4geos11planargraph14GraphComponentE@Base 3.4.2
 _ZTSN4geos11planargraph16DirectedEdgeStarE@Base 3.4.2
 _ZTSN4geos11planargraph4EdgeE@Base 3.4.2
 _ZTSN4geos11planargraph4NodeE@Base 3.4.2
 _ZTSN4geos11planargraph7NodeMapE@Base 3.4.2
 _ZTSN4geos11triangulate8quadedge15QuadEdgeLocatorE@Base 3.4.2
 _ZTSN4geos11triangulate8quadedge15TriangleVisitorE@Base 3.4.2
 _ZTSN4geos11triangulate8quadedge19QuadEdgeSubdivision26TriangleCoordinatesVisitorE@Base 3.4.2
 _ZTSN4geos11triangulate8quadedge19QuadEdgeSubdivision27TriangleCircumcentreVisitorE@Base 3.5.0
 _ZTSN4geos11triangulate8quadedge19QuadEdgeSubdivisionE@Base 3.4.2
 _ZTSN4geos11triangulate8quadedge22LocateFailureExceptionE@Base 3.4.2
 _ZTSN4geos11triangulate8quadedge24LastFoundQuadEdgeLocatorE@Base 3.4.2
 _ZTSN4geos11triangulate8quadedge6VertexE@Base 3.4.2
 _ZTSN4geos11triangulate8quadedge8QuadEdgeE@Base 3.4.2
 _ZTSN4geos2io14ParseExceptionE@Base 3.4.2
 _ZTSN4geos2io9WKBWriterE@Base 3.4.2
 _ZTSN4geos4geom10LineStringE@Base 3.4.2
 _ZTSN4geos4geom10LinearRingE@Base 3.4.2
 _ZTSN4geos4geom10MultiPointE@Base 3.4.2
 _ZTSN4geos4geom11LineSegmentE@Base 3.4.2
 _ZTSN4geos4geom12MultiPolygonE@Base 3.4.2
 _ZTSN4geos4geom14GeometryFilterE@Base 3.4.2
 _ZTSN4geos4geom15GeometryFactoryE@Base 3.4.2
 _ZTSN4geos4geom15MultiLineStringE@Base 3.4.2
 _ZTSN4geos4geom16CoordinateFilterE@Base 3.4.2
 _ZTSN4geos4geom18CoordinateSequenceE@Base 3.4.2
 _ZTSN4geos4geom18GeometryCollectionE@Base 3.4.2
 _ZTSN4geos4geom23CoordinateArraySequenceE@Base 3.4.2
 _ZTSN4geos4geom23GeometryComponentFilterE@Base 3.4.2
 _ZTSN4geos4geom24CoordinateSequenceFilterE@Base 3.4.2
 _ZTSN4geos4geom25CoordinateSequenceFactoryE@Base 3.4.2
 _ZTSN4geos4geom30CoordinateArraySequenceFactoryE@Base 3.4.2
 _ZTSN4geos4geom4prep13PreparedPointE@Base 3.4.2
 _ZTSN4geos4geom4prep15PreparedPolygonE@Base 3.4.2
 _ZTSN4geos4geom4prep16PreparedGeometryE@Base 3.4.2
 _ZTSN4geos4geom4prep18PreparedLineStringE@Base 3.4.2
 _ZTSN4geos4geom4prep21BasicPreparedGeometryE@Base 3.4.2
 _ZTSN4geos4geom4prep21PreparedPolygonCoversE@Base 3.4.2
 _ZTSN4geos4geom4prep23PreparedPolygonContainsE@Base 3.4.2
 _ZTSN4geos4geom4prep24PreparedPolygonPredicateE@Base 3.4.2
 _ZTSN4geos4geom4prep25PreparedPolygonIntersectsE@Base 3.4.2
 _ZTSN4geos4geom4prep31AbstractPreparedPolygonContainsE@Base 3.4.2
 _ZTSN4geos4geom4prep31PreparedPolygonContainsProperlyE@Base 3.4.2
 _ZTSN4geos4geom4util14PointExtracterE@Base 3.4.2
 _ZTSN4geos4geom4util16PolygonExtracterE@Base 3.4.2
 _ZTSN4geos4geom4util17GeometryExtracter9ExtracterINS0_10LineStringESt6vectorIPKS4_SaIS7_EEEE@Base 3.4.2
 _ZTSN4geos4geom4util17GeometryExtracter9ExtracterINS0_5PointESt6vectorIPKS4_SaIS7_EEEE@Base 3.4.2
 _ZTSN4geos4geom4util17GeometryExtracter9ExtracterINS0_7PolygonESt6vectorIPKS4_SaIS7_EEEE@Base 3.4.2
 _ZTSN4geos4geom4util19CoordinateOperationE@Base 3.4.2
 _ZTSN4geos4geom4util19GeometryTransformerE@Base 3.4.2
 _ZTSN4geos4geom4util23GeometryEditorOperationE@Base 3.4.2
 _ZTSN4geos4geom4util24LinearComponentExtracterE@Base 3.4.2
 _ZTSN4geos4geom4util28ComponentCoordinateExtracterE@Base 3.4.2
 _ZTSN4geos4geom4util29ShortCircuitedGeometryVisitorE@Base 3.4.2
 _ZTSN4geos4geom5PointE@Base 3.4.2
 _ZTSN4geos4geom6LinealE@Base 3.4.2
 _ZTSN4geos4geom6PuntalE@Base 3.4.2
 _ZTSN4geos4geom7PolygonE@Base 3.4.2
 _ZTSN4geos4geom8Geometry21GeometryChangedFilterE@Base 3.4.2
 _ZTSN4geos4geom8GeometryE@Base 3.4.2
 _ZTSN4geos4geom9PolygonalE@Base 3.4.2
 _ZTSN4geos4util13GEOSExceptionE@Base 3.4.2
 _ZTSN4geos4util17TopologyExceptionE@Base 3.4.2
 _ZTSN4geos4util20InterruptedExceptionE@Base 3.4.2
 _ZTSN4geos4util21GeometricShapeFactoryE@Base 3.4.2
 _ZTSN4geos4util21IllegalStateExceptionE@Base 3.4.2
 _ZTSN4geos4util24AssertionFailedExceptionE@Base 3.4.2
 _ZTSN4geos4util24IllegalArgumentExceptionE@Base 3.4.2
 _ZTSN4geos4util27UniqueCoordinateArrayFilterE@Base 3.4.2
 _ZTSN4geos4util29UnsupportedOperationExceptionE@Base 3.4.2
 _ZTSN4geos5index11ItemVisitorE@Base 3.4.2
 _ZTSN4geos5index12SpatialIndexE@Base 3.4.2
 _ZTSN4geos5index13intervalrtree17IntervalRTreeNodeE@Base 3.4.2
 _ZTSN4geos5index13intervalrtree21IntervalRTreeLeafNodeE@Base 3.4.2
 _ZTSN4geos5index13intervalrtree23IntervalRTreeBranchNodeE@Base 3.4.2
 _ZTSN4geos5index5chain25MonotoneChainSelectActionE@Base 3.4.2
 _ZTSN4geos5index5chain26MonotoneChainOverlapActionE@Base 3.4.2
 _ZTSN4geos5index7bintree4NodeE@Base 3.4.2
 _ZTSN4geos5index7bintree4RootE@Base 3.4.2
 _ZTSN4geos5index7bintree8NodeBaseE@Base 3.4.2
 _ZTSN4geos5index7strtree12AbstractNodeE@Base 3.4.2
 _ZTSN4geos5index7strtree13ItemBoundableE@Base 3.4.2
 _ZTSN4geos5index7strtree15AbstractSTRtree12IntersectsOpE@Base 3.4.2
 _ZTSN4geos5index7strtree15AbstractSTRtreeE@Base 3.4.2
 _ZTSN4geos5index7strtree15SIRAbstractNodeE@Base 3.4.2
 _ZTSN4geos5index7strtree15STRAbstractNodeE@Base 3.4.2
 _ZTSN4geos5index7strtree7SIRtree15SIRIntersectsOpE@Base 3.4.2
 _ZTSN4geos5index7strtree7SIRtreeE@Base 3.4.2
 _ZTSN4geos5index7strtree7STRtree15STRIntersectsOpE@Base 3.4.2
 _ZTSN4geos5index7strtree7STRtreeE@Base 3.4.2
 _ZTSN4geos5index7strtree9BoundableE@Base 3.4.2
 _ZTSN4geos5index8quadtree4NodeE@Base 3.4.2
 _ZTSN4geos5index8quadtree4RootE@Base 3.4.2
 _ZTSN4geos5index8quadtree8NodeBaseE@Base 3.4.2
 _ZTSN4geos5index8quadtree8QuadtreeE@Base 3.4.2
 _ZTSN4geos5index9sweepline22SweepLineOverlapActionE@Base 3.4.2
 _ZTSN4geos6noding11ScaledNoder6ScalerE@Base 3.4.2
 _ZTSN4geos6noding11ScaledNoder8ReScalerE@Base 3.4.2
 _ZTSN4geos6noding11ScaledNoderE@Base 3.4.2
 _ZTSN4geos6noding11SimpleNoderE@Base 3.4.2
 _ZTSN4geos6noding12MCIndexNoder20SegmentOverlapActionE@Base 3.4.2
 _ZTSN4geos6noding12MCIndexNoderE@Base 3.4.2
 _ZTSN4geos6noding13IteratedNoderE@Base 3.4.2
 _ZTSN4geos6noding13SegmentStringE@Base 3.4.2
 _ZTSN4geos6noding15SegmentNodeListE@Base 3.4.2
 _ZTSN4geos6noding15SinglePassNoderE@Base 3.4.2
 _ZTSN4geos6noding17IntersectionAdderE@Base 3.4.2
 _ZTSN4geos6noding18BasicSegmentStringE@Base 3.4.2
 _ZTSN4geos6noding18NodedSegmentStringE@Base 3.4.2
 _ZTSN4geos6noding18SegmentIntersectorE@Base 3.4.2
 _ZTSN4geos6noding20NodableSegmentStringE@Base 3.4.2
 _ZTSN4geos6noding23IntersectionFinderAdderE@Base 3.4.2
 _ZTSN4geos6noding27SegmentIntersectionDetectorE@Base 3.4.2
 _ZTSN4geos6noding27SegmentSetMutualIntersectorE@Base 3.4.2
 _ZTSN4geos6noding32SingleInteriorIntersectionFinderE@Base 3.4.2
 _ZTSN4geos6noding34MCIndexSegmentSetMutualIntersector20SegmentOverlapActionE@Base 3.4.2
 _ZTSN4geos6noding34MCIndexSegmentSetMutualIntersectorE@Base 3.4.2
 _ZTSN4geos6noding5NoderE@Base 3.4.2
 _ZTSN4geos6noding9snapround17SimpleSnapRounderE@Base 3.4.2
 _ZTSN4geos6noding9snapround18HotPixelSnapActionE@Base 3.4.2
 _ZTSN4geos6noding9snapround18MCIndexSnapRounderE@Base 3.4.2
 _ZTSN4geos6noding9snapround26MCIndexPointSnapperVisitorE@Base 3.4.2
 _ZTSN4geos8simplify13DPTransformerE@Base 3.4.2
 _ZTSN4geos8simplify17TaggedLineSegmentE@Base 3.4.2
 _ZTSN4geos8simplify18LineSegmentVisitorE@Base 3.4.2
 _ZTSN4geos9algorithm11PointInRingE@Base 3.4.2
 _ZTSN4geos9algorithm13MCPointInRing10MCSelecterE@Base 3.4.2
 _ZTSN4geos9algorithm13MCPointInRingE@Base 3.4.2
 _ZTSN4geos9algorithm16BoundaryNodeRuleE@Base 3.4.2
 _ZTSN4geos9algorithm17SimplePointInRingE@Base 3.4.2
 _ZTSN4geos9algorithm18SIRtreePointInRingE@Base 3.4.2
 _ZTSN4geos9algorithm25NotRepresentableExceptionE@Base 3.4.2
 _ZTSN4geos9algorithm6locate22PointOnGeometryLocatorE@Base 3.4.2
 _ZTSN4geos9algorithm6locate25IndexedPointInAreaLocator14SegmentVisitorE@Base 3.4.2
 _ZTSN4geos9algorithm6locate25IndexedPointInAreaLocatorE@Base 3.4.2
 _ZTSN4geos9algorithm8distance25DiscreteHausdorffDistance22MaxPointDistanceFilterE@Base 3.4.2
 _ZTSN4geos9algorithm8distance25DiscreteHausdorffDistance36MaxDensifiedByFractionDistanceFilterE@Base 3.4.2
 _ZTSN4geos9geomgraph11EdgeEndStarE@Base 3.4.2
 _ZTSN4geos9geomgraph11NodeFactoryE@Base 3.4.2
 _ZTSN4geos9geomgraph11PlanarGraphE@Base 3.4.2
 _ZTSN4geos9geomgraph12DirectedEdgeE@Base 3.4.2
 _ZTSN4geos9geomgraph13GeometryGraphE@Base 3.4.2
 _ZTSN4geos9geomgraph14GraphComponentE@Base 3.4.2
 _ZTSN4geos9geomgraph16DirectedEdgeStarE@Base 3.4.2
 _ZTSN4geos9geomgraph4EdgeE@Base 3.4.2
 _ZTSN4geos9geomgraph4NodeE@Base 3.4.2
 _ZTSN4geos9geomgraph5DepthE@Base 3.4.2
 _ZTSN4geos9geomgraph5index13MonotoneChainE@Base 3.4.2
 _ZTSN4geos9geomgraph5index14SweepLineEventE@Base 3.4.2
 _ZTSN4geos9geomgraph5index16SweepLineSegmentE@Base 3.4.2
 _ZTSN4geos9geomgraph5index17SweepLineEventOBJE@Base 3.4.2
 _ZTSN4geos9geomgraph5index18EdgeSetIntersectorE@Base 3.4.2
 _ZTSN4geos9geomgraph5index18SegmentIntersectorE@Base 3.4.2
 _ZTSN4geos9geomgraph5index24SimpleEdgeSetIntersectorE@Base 3.4.2
 _ZTSN4geos9geomgraph5index26SimpleSweepLineIntersectorE@Base 3.4.2
 _ZTSN4geos9geomgraph5index28SimpleMCSweepLineIntersectorE@Base 3.4.2
 _ZTSN4geos9geomgraph7EdgeEndE@Base 3.4.2
 _ZTSN4geos9geomgraph7NodeMapE@Base 3.4.2
 _ZTSN4geos9geomgraph8EdgeListE@Base 3.4.2
 _ZTSN4geos9geomgraph8EdgeRingE@Base 3.4.2
 _ZTSN4geos9operation10polygonize11Polygonizer15LineStringAdderE@Base 3.4.2
 _ZTSN4geos9operation10polygonize14PolygonizeEdgeE@Base 3.4.2
 _ZTSN4geos9operation10polygonize15PolygonizeGraphE@Base 3.4.2
 _ZTSN4geos9operation10polygonize22PolygonizeDirectedEdgeE@Base 3.4.2
 _ZTSN4geos9operation22GeometryGraphOperationE@Base 3.4.2
 _ZTSN4geos9operation5valid25SweeplineNestedRingTester13OverlapActionE@Base 3.4.2
 _ZTSN4geos9operation5valid9IsValidOpE@Base 3.4.2
 _ZTSN4geos9operation6relate10RelateNodeE@Base 3.4.2
 _ZTSN4geos9operation6relate13EdgeEndBundleE@Base 3.4.2
 _ZTSN4geos9operation6relate15RelateNodeGraphE@Base 3.4.2
 _ZTSN4geos9operation6relate17EdgeEndBundleStarE@Base 3.4.2
 _ZTSN4geos9operation6relate17RelateNodeFactoryE@Base 3.4.2
 _ZTSN4geos9operation6relate8RelateOpE@Base 3.4.2
 _ZTSN4geos9operation7overlay15MaximalEdgeRingE@Base 3.4.2
 _ZTSN4geos9operation7overlay15MinimalEdgeRingE@Base 3.4.2
 _ZTSN4geos9operation7overlay18OverlayNodeFactoryE@Base 3.4.2
 _ZTSN4geos9operation7overlay21ElevationMatrixFilterE@Base 3.4.2
 _ZTSN4geos9operation7overlay4snap15SnapTransformerE@Base 3.4.2
 _ZTSN4geos9operation7overlay9OverlayOpE@Base 3.4.2
 _ZTSN4geos9operation8distance27ConnectedElementPointFilterE@Base 3.4.2
 _ZTSN4geos9operation8distance30ConnectedElementLocationFilterE@Base 3.4.2
 _ZTSN4geos9operation9linemerge13LineMergeEdgeE@Base 3.4.2
 _ZTSN4geos9operation9linemerge14LineMergeGraphE@Base 3.4.2
 _ZTSN4geos9operation9linemerge21LineMergeDirectedEdgeE@Base 3.4.2
 _ZTSN4geos9operation9predicate20ContainsPointVisitorE@Base 3.4.2
 _ZTSN4geos9operation9predicate21LineIntersectsVisitorE@Base 3.4.2
 _ZTSN4geos9operation9predicate25EnvelopeIntersectsVisitorE@Base 3.4.2
 _ZTSN4geos9precision10TranslaterE@Base 3.4.2
 _ZTSN4geos9precision22CommonCoordinateFilterE@Base 3.4.2
 _ZTSN4geos9precision35PrecisionReducerCoordinateOperationE@Base 3.4.2
 _ZTSPN4geos4util24IllegalArgumentExceptionE@Base 3.4.2
 _ZTSPN4geos4util29UnsupportedOperationExceptionE@Base 3.4.2
 _ZTTN4geos4geom10LineStringE@Base 3.4.2
 _ZTTN4geos4geom10LinearRingE@Base 3.4.2
 _ZTTN4geos4geom10MultiPointE@Base 3.4.2
 _ZTTN4geos4geom12MultiPolygonE@Base 3.4.2
 _ZTTN4geos4geom15MultiLineStringE@Base 3.4.2
 _ZTTN4geos4geom18GeometryCollectionE@Base 3.4.2
 _ZTTN4geos4geom5PointE@Base 3.4.2
 _ZTTN4geos4geom7PolygonE@Base 3.4.2
 _ZTVN4geos11planargraph11PlanarGraphE@Base 3.4.2
 _ZTVN4geos11planargraph12DirectedEdgeE@Base 3.4.2
 _ZTVN4geos11planargraph16DirectedEdgeStarE@Base 3.4.2
 _ZTVN4geos11planargraph4EdgeE@Base 3.4.2
 _ZTVN4geos11planargraph4NodeE@Base 3.4.2
 _ZTVN4geos11planargraph7NodeMapE@Base 3.4.2
 _ZTVN4geos11triangulate8quadedge19QuadEdgeSubdivision26TriangleCoordinatesVisitorE@Base 3.4.2
 _ZTVN4geos11triangulate8quadedge19QuadEdgeSubdivision27TriangleCircumcentreVisitorE@Base 3.5.0
 _ZTVN4geos11triangulate8quadedge19QuadEdgeSubdivisionE@Base 3.4.2
 _ZTVN4geos11triangulate8quadedge22LocateFailureExceptionE@Base 3.4.2
 _ZTVN4geos11triangulate8quadedge24LastFoundQuadEdgeLocatorE@Base 3.4.2
 _ZTVN4geos11triangulate8quadedge6VertexE@Base 3.4.2
 _ZTVN4geos11triangulate8quadedge8QuadEdgeE@Base 3.4.2
 _ZTVN4geos2io14ParseExceptionE@Base 3.4.2
 _ZTVN4geos2io9WKBWriterE@Base 3.4.2
 _ZTVN4geos4geom10LineStringE@Base 3.4.2
 _ZTVN4geos4geom10LinearRingE@Base 3.4.2
 _ZTVN4geos4geom10MultiPointE@Base 3.4.2
 _ZTVN4geos4geom11LineSegmentE@Base 3.4.2
 _ZTVN4geos4geom12MultiPolygonE@Base 3.4.2
 _ZTVN4geos4geom15GeometryFactoryE@Base 3.4.2
 _ZTVN4geos4geom15MultiLineStringE@Base 3.4.2
 _ZTVN4geos4geom18CoordinateSequenceE@Base 3.4.2
 _ZTVN4geos4geom18GeometryCollectionE@Base 3.4.2
 _ZTVN4geos4geom23CoordinateArraySequenceE@Base 3.4.2
 _ZTVN4geos4geom23GeometryComponentFilterE@Base 3.4.2
 _ZTVN4geos4geom25CoordinateSequenceFactoryE@Base 3.4.2
 _ZTVN4geos4geom30CoordinateArraySequenceFactoryE@Base 3.4.2
 _ZTVN4geos4geom4prep13PreparedPointE@Base 3.4.2
 _ZTVN4geos4geom4prep15PreparedPolygonE@Base 3.4.2
 _ZTVN4geos4geom4prep18PreparedLineStringE@Base 3.4.2
 _ZTVN4geos4geom4prep21BasicPreparedGeometryE@Base 3.4.2
 _ZTVN4geos4geom4prep21PreparedPolygonCoversE@Base 3.4.2
 _ZTVN4geos4geom4prep23PreparedPolygonContainsE@Base 3.4.2
 _ZTVN4geos4geom4prep25PreparedPolygonIntersectsE@Base 3.4.2
 _ZTVN4geos4geom4prep31PreparedPolygonContainsProperlyE@Base 3.4.2
 _ZTVN4geos4geom4util14PointExtracterE@Base 3.4.2
 _ZTVN4geos4geom4util16PolygonExtracterE@Base 3.4.2
 _ZTVN4geos4geom4util17GeometryExtracter9ExtracterINS0_10LineStringESt6vectorIPKS4_SaIS7_EEEE@Base 3.4.2
 _ZTVN4geos4geom4util17GeometryExtracter9ExtracterINS0_5PointESt6vectorIPKS4_SaIS7_EEEE@Base 3.4.2
 _ZTVN4geos4geom4util17GeometryExtracter9ExtracterINS0_7PolygonESt6vectorIPKS4_SaIS7_EEEE@Base 3.4.2
 _ZTVN4geos4geom4util19CoordinateOperationE@Base 3.4.2
 _ZTVN4geos4geom4util19GeometryTransformerE@Base 3.4.2
 _ZTVN4geos4geom4util24LinearComponentExtracterE@Base 3.4.2
 _ZTVN4geos4geom4util28ComponentCoordinateExtracterE@Base 3.4.2
 _ZTVN4geos4geom5PointE@Base 3.4.2
 _ZTVN4geos4geom7PolygonE@Base 3.4.2
 _ZTVN4geos4geom8Geometry21GeometryChangedFilterE@Base 3.4.2
 _ZTVN4geos4geom8GeometryE@Base 3.4.2
 _ZTVN4geos4util13GEOSExceptionE@Base 3.4.2
 _ZTVN4geos4util17TopologyExceptionE@Base 3.4.2
 _ZTVN4geos4util20InterruptedExceptionE@Base 3.4.2
 _ZTVN4geos4util21GeometricShapeFactoryE@Base 3.4.2
 _ZTVN4geos4util21IllegalStateExceptionE@Base 3.4.2
 _ZTVN4geos4util24AssertionFailedExceptionE@Base 3.4.2
 _ZTVN4geos4util24IllegalArgumentExceptionE@Base 3.4.2
 _ZTVN4geos4util27UniqueCoordinateArrayFilterE@Base 3.4.2
 _ZTVN4geos4util29UnsupportedOperationExceptionE@Base 3.4.2
 _ZTVN4geos5index13intervalrtree21IntervalRTreeLeafNodeE@Base 3.4.2
 _ZTVN4geos5index13intervalrtree23IntervalRTreeBranchNodeE@Base 3.4.2
 _ZTVN4geos5index5chain25MonotoneChainSelectActionE@Base 3.4.2
 _ZTVN4geos5index5chain26MonotoneChainOverlapActionE@Base 3.4.2
 _ZTVN4geos5index7bintree4NodeE@Base 3.4.2
 _ZTVN4geos5index7bintree4RootE@Base 3.4.2
 _ZTVN4geos5index7bintree8NodeBaseE@Base 3.4.2
 _ZTVN4geos5index7strtree12AbstractNodeE@Base 3.4.2
 _ZTVN4geos5index7strtree13ItemBoundableE@Base 3.4.2
 _ZTVN4geos5index7strtree15AbstractSTRtreeE@Base 3.4.2
 _ZTVN4geos5index7strtree15SIRAbstractNodeE@Base 3.4.2
 _ZTVN4geos5index7strtree15STRAbstractNodeE@Base 3.4.2
 _ZTVN4geos5index7strtree7SIRtree15SIRIntersectsOpE@Base 3.4.2
 _ZTVN4geos5index7strtree7SIRtreeE@Base 3.4.2
 _ZTVN4geos5index7strtree7STRtree15STRIntersectsOpE@Base 3.4.2
 _ZTVN4geos5index7strtree7STRtreeE@Base 3.4.2
 _ZTVN4geos5index8quadtree4NodeE@Base 3.4.2
 _ZTVN4geos5index8quadtree4RootE@Base 3.4.2
 _ZTVN4geos5index8quadtree8NodeBaseE@Base 3.4.2
 _ZTVN4geos5index8quadtree8QuadtreeE@Base 3.4.2
 _ZTVN4geos6noding11ScaledNoder6ScalerE@Base 3.4.2
 _ZTVN4geos6noding11ScaledNoder8ReScalerE@Base 3.4.2
 _ZTVN4geos6noding11ScaledNoderE@Base 3.4.2
 _ZTVN4geos6noding11SimpleNoderE@Base 3.4.2
 _ZTVN4geos6noding12MCIndexNoder20SegmentOverlapActionE@Base 3.4.2
 _ZTVN4geos6noding12MCIndexNoderE@Base 3.4.2
 _ZTVN4geos6noding13IteratedNoderE@Base 3.4.2
 _ZTVN4geos6noding13SegmentStringE@Base 3.4.2
 _ZTVN4geos6noding15SegmentNodeListE@Base 3.4.2
 _ZTVN4geos6noding17IntersectionAdderE@Base 3.4.2
 _ZTVN4geos6noding18BasicSegmentStringE@Base 3.4.2
 _ZTVN4geos6noding18NodedSegmentStringE@Base 3.4.2
 _ZTVN4geos6noding23IntersectionFinderAdderE@Base 3.4.2
 _ZTVN4geos6noding27SegmentIntersectionDetectorE@Base 3.4.2
 _ZTVN4geos6noding32SingleInteriorIntersectionFinderE@Base 3.4.2
 _ZTVN4geos6noding34MCIndexSegmentSetMutualIntersector20SegmentOverlapActionE@Base 3.4.2
 _ZTVN4geos6noding34MCIndexSegmentSetMutualIntersectorE@Base 3.4.2
 _ZTVN4geos6noding9snapround17SimpleSnapRounderE@Base 3.4.2
 _ZTVN4geos6noding9snapround18HotPixelSnapActionE@Base 3.4.2
 _ZTVN4geos6noding9snapround18MCIndexSnapRounderE@Base 3.4.2
 _ZTVN4geos6noding9snapround26MCIndexPointSnapperVisitorE@Base 3.4.2
 _ZTVN4geos8simplify13DPTransformerE@Base 3.4.2
 _ZTVN4geos8simplify17TaggedLineSegmentE@Base 3.4.2
 _ZTVN4geos8simplify18LineSegmentVisitorE@Base 3.4.2
 _ZTVN4geos9algorithm13MCPointInRing10MCSelecterE@Base 3.4.2
 _ZTVN4geos9algorithm13MCPointInRingE@Base 3.4.2
 _ZTVN4geos9algorithm17SimplePointInRingE@Base 3.4.2
 _ZTVN4geos9algorithm18SIRtreePointInRingE@Base 3.4.2
 _ZTVN4geos9algorithm25NotRepresentableExceptionE@Base 3.4.2
 _ZTVN4geos9algorithm6locate25IndexedPointInAreaLocator14SegmentVisitorE@Base 3.4.2
 _ZTVN4geos9algorithm6locate25IndexedPointInAreaLocatorE@Base 3.4.2
 _ZTVN4geos9algorithm8distance25DiscreteHausdorffDistance22MaxPointDistanceFilterE@Base 3.4.2
 _ZTVN4geos9algorithm8distance25DiscreteHausdorffDistance36MaxDensifiedByFractionDistanceFilterE@Base 3.4.2
 _ZTVN4geos9geomgraph11EdgeEndStarE@Base 3.4.2
 _ZTVN4geos9geomgraph11NodeFactoryE@Base 3.4.2
 _ZTVN4geos9geomgraph11PlanarGraphE@Base 3.4.2
 _ZTVN4geos9geomgraph12DirectedEdgeE@Base 3.4.2
 _ZTVN4geos9geomgraph13GeometryGraphE@Base 3.4.2
 _ZTVN4geos9geomgraph14GraphComponentE@Base 3.4.2
 _ZTVN4geos9geomgraph16DirectedEdgeStarE@Base 3.4.2
 _ZTVN4geos9geomgraph4EdgeE@Base 3.4.2
 _ZTVN4geos9geomgraph4NodeE@Base 3.4.2
 _ZTVN4geos9geomgraph5DepthE@Base 3.4.2
 _ZTVN4geos9geomgraph5index13MonotoneChainE@Base 3.4.2
 _ZTVN4geos9geomgraph5index14SweepLineEventE@Base 3.4.2
 _ZTVN4geos9geomgraph5index16SweepLineSegmentE@Base 3.4.2
 _ZTVN4geos9geomgraph5index18SegmentIntersectorE@Base 3.4.2
 _ZTVN4geos9geomgraph5index24SimpleEdgeSetIntersectorE@Base 3.4.2
 _ZTVN4geos9geomgraph5index26SimpleSweepLineIntersectorE@Base 3.4.2
 _ZTVN4geos9geomgraph5index28SimpleMCSweepLineIntersectorE@Base 3.4.2
 _ZTVN4geos9geomgraph7EdgeEndE@Base 3.4.2
 _ZTVN4geos9geomgraph7NodeMapE@Base 3.4.2
 _ZTVN4geos9geomgraph8EdgeListE@Base 3.4.2
 _ZTVN4geos9geomgraph8EdgeRingE@Base 3.4.2
 _ZTVN4geos9operation10polygonize11Polygonizer15LineStringAdderE@Base 3.4.2
 _ZTVN4geos9operation10polygonize14PolygonizeEdgeE@Base 3.4.2
 _ZTVN4geos9operation10polygonize15PolygonizeGraphE@Base 3.4.2
 _ZTVN4geos9operation10polygonize22PolygonizeDirectedEdgeE@Base 3.4.2
 _ZTVN4geos9operation22GeometryGraphOperationE@Base 3.4.2
 _ZTVN4geos9operation5valid25SweeplineNestedRingTester13OverlapActionE@Base 3.4.2
 _ZTVN4geos9operation5valid9IsValidOpE@Base 3.4.2
 _ZTVN4geos9operation6relate10RelateNodeE@Base 3.4.2
 _ZTVN4geos9operation6relate13EdgeEndBundleE@Base 3.4.2
 _ZTVN4geos9operation6relate15RelateNodeGraphE@Base 3.4.2
 _ZTVN4geos9operation6relate17EdgeEndBundleStarE@Base 3.4.2
 _ZTVN4geos9operation6relate17RelateNodeFactoryE@Base 3.4.2
 _ZTVN4geos9operation6relate8RelateOpE@Base 3.4.2
 _ZTVN4geos9operation7overlay15MaximalEdgeRingE@Base 3.4.2
 _ZTVN4geos9operation7overlay15MinimalEdgeRingE@Base 3.4.2
 _ZTVN4geos9operation7overlay18OverlayNodeFactoryE@Base 3.4.2
 _ZTVN4geos9operation7overlay21ElevationMatrixFilterE@Base 3.4.2
 _ZTVN4geos9operation7overlay4snap15SnapTransformerE@Base 3.4.2
 _ZTVN4geos9operation7overlay9OverlayOpE@Base 3.4.2
 _ZTVN4geos9operation8distance27ConnectedElementPointFilterE@Base 3.4.2
 _ZTVN4geos9operation8distance30ConnectedElementLocationFilterE@Base 3.4.2
 _ZTVN4geos9operation9linemerge13LineMergeEdgeE@Base 3.4.2
 _ZTVN4geos9operation9linemerge14LineMergeGraphE@Base 3.4.2
 _ZTVN4geos9operation9linemerge21LineMergeDirectedEdgeE@Base 3.4.2
 _ZTVN4geos9operation9predicate20ContainsPointVisitorE@Base 3.4.2
 _ZTVN4geos9operation9predicate21LineIntersectsVisitorE@Base 3.4.2
 _ZTVN4geos9operation9predicate25EnvelopeIntersectsVisitorE@Base 3.4.2
 _ZTVN4geos9precision10TranslaterE@Base 3.4.2
 _ZTVN4geos9precision22CommonCoordinateFilterE@Base 3.4.2
 _ZTVN4geos9precision35PrecisionReducerCoordinateOperationE@Base 3.4.2
 _ZThn16_N4geos4geom10MultiPointD0Ev@Base 3.4.2
 _ZThn16_N4geos4geom10MultiPointD1Ev@Base 3.4.2
 _ZThn16_N4geos4geom12MultiPolygonD0Ev@Base 3.4.2
 _ZThn16_N4geos4geom12MultiPolygonD1Ev@Base 3.4.2
 _ZThn16_N4geos4geom15MultiLineStringD0Ev@Base 3.4.2
 _ZThn16_N4geos4geom15MultiLineStringD1Ev@Base 3.4.2
 _ZThn48_N4geos5index7strtree7STRtree5queryEPKNS_4geom8EnvelopeERNS0_11ItemVisitorE@Base 3.4.2
 _ZThn48_N4geos5index7strtree7STRtree5queryEPKNS_4geom8EnvelopeERSt6vectorIPvSaIS8_EE@Base 3.4.2
 _ZThn48_N4geos5index7strtree7STRtree6insertEPKNS_4geom8EnvelopeEPv@Base 3.4.2
 _ZThn48_N4geos5index7strtree7STRtree6removeEPKNS_4geom8EnvelopeEPv@Base 3.4.2
 _ZThn48_N4geos5index7strtree7STRtreeD0Ev@Base 3.4.2
 _ZThn48_N4geos5index7strtree7STRtreeD1Ev@Base 3.4.2
 _ZTv0_n104_NK4geos4geom18GeometryCollection16getNumGeometriesEv@Base 3.4.2
 _ZTv0_n112_NK4geos4geom18GeometryCollection12getGeometryNEm@Base 3.5.0
 _ZTv0_n128_NK4geos4geom10LineString7isEmptyEv@Base 3.4.2
 _ZTv0_n128_NK4geos4geom18GeometryCollection7isEmptyEv@Base 3.4.2
 _ZTv0_n128_NK4geos4geom5Point7isEmptyEv@Base 3.4.2
 _ZTv0_n128_NK4geos4geom7Polygon7isEmptyEv@Base 3.4.2
 _ZTv0_n136_NK4geos4geom7Polygon11isRectangleEv@Base 3.4.2
 _ZTv0_n144_NK4geos4geom10LineString12getDimensionEv@Base 3.4.2
 _ZTv0_n144_NK4geos4geom10MultiPoint12getDimensionEv@Base 3.4.2
 _ZTv0_n144_NK4geos4geom12MultiPolygon12getDimensionEv@Base 3.4.2
 _ZTv0_n144_NK4geos4geom15MultiLineString12getDimensionEv@Base 3.4.2
 _ZTv0_n144_NK4geos4geom18GeometryCollection12getDimensionEv@Base 3.4.2
 _ZTv0_n144_NK4geos4geom5Point12getDimensionEv@Base 3.4.2
 _ZTv0_n144_NK4geos4geom7Polygon12getDimensionEv@Base 3.4.2
 _ZTv0_n152_NK4geos4geom10LineString22getCoordinateDimensionEv@Base 3.4.2
 _ZTv0_n152_NK4geos4geom18GeometryCollection22getCoordinateDimensionEv@Base 3.4.2
 _ZTv0_n152_NK4geos4geom5Point22getCoordinateDimensionEv@Base 3.4.2
 _ZTv0_n152_NK4geos4geom7Polygon22getCoordinateDimensionEv@Base 3.4.2
 _ZTv0_n160_NK4geos4geom10LineString11getBoundaryEv@Base 3.4.2
 _ZTv0_n160_NK4geos4geom10MultiPoint11getBoundaryEv@Base 3.4.2
 _ZTv0_n160_NK4geos4geom12MultiPolygon11getBoundaryEv@Base 3.4.2
 _ZTv0_n160_NK4geos4geom15MultiLineString11getBoundaryEv@Base 3.4.2
 _ZTv0_n160_NK4geos4geom18GeometryCollection11getBoundaryEv@Base 3.4.2
 _ZTv0_n160_NK4geos4geom5Point11getBoundaryEv@Base 3.4.2
 _ZTv0_n160_NK4geos4geom7Polygon11getBoundaryEv@Base 3.4.2
 _ZTv0_n168_NK4geos4geom10LineString20getBoundaryDimensionEv@Base 3.4.2
 _ZTv0_n168_NK4geos4geom10LinearRing20getBoundaryDimensionEv@Base 3.4.2
 _ZTv0_n168_NK4geos4geom10MultiPoint20getBoundaryDimensionEv@Base 3.4.2
 _ZTv0_n168_NK4geos4geom12MultiPolygon20getBoundaryDimensionEv@Base 3.4.2
 _ZTv0_n168_NK4geos4geom15MultiLineString20getBoundaryDimensionEv@Base 3.4.2
 _ZTv0_n168_NK4geos4geom18GeometryCollection20getBoundaryDimensionEv@Base 3.4.2
 _ZTv0_n168_NK4geos4geom5Point20getBoundaryDimensionEv@Base 3.4.2
 _ZTv0_n168_NK4geos4geom7Polygon20getBoundaryDimensionEv@Base 3.4.2
 _ZTv0_n24_NK4geos4geom10LineString5cloneEv@Base 3.4.2
 _ZTv0_n24_NK4geos4geom10LinearRing5cloneEv@Base 3.4.2
 _ZTv0_n24_NK4geos4geom10MultiPoint5cloneEv@Base 3.4.2
 _ZTv0_n24_NK4geos4geom12MultiPolygon5cloneEv@Base 3.4.2
 _ZTv0_n24_NK4geos4geom15MultiLineString5cloneEv@Base 3.4.2
 _ZTv0_n24_NK4geos4geom18GeometryCollection5cloneEv@Base 3.4.2
 _ZTv0_n24_NK4geos4geom5Point5cloneEv@Base 3.4.2
 _ZTv0_n24_NK4geos4geom7Polygon5cloneEv@Base 3.4.2
 _ZTv0_n312_NK4geos4geom7Polygon10convexHullEv@Base 3.4.2
 _ZTv0_n32_N4geos4geom10LineStringD0Ev@Base 3.4.2
 _ZTv0_n32_N4geos4geom10LineStringD1Ev@Base 3.4.2
 _ZTv0_n32_N4geos4geom10LinearRingD0Ev@Base 3.4.2
 _ZTv0_n32_N4geos4geom10LinearRingD1Ev@Base 3.4.2
 _ZTv0_n32_N4geos4geom10MultiPointD0Ev@Base 3.4.2
 _ZTv0_n32_N4geos4geom10MultiPointD1Ev@Base 3.4.2
 _ZTv0_n32_N4geos4geom12MultiPolygonD0Ev@Base 3.4.2
 _ZTv0_n32_N4geos4geom12MultiPolygonD1Ev@Base 3.4.2
 _ZTv0_n32_N4geos4geom15MultiLineStringD0Ev@Base 3.4.2
 _ZTv0_n32_N4geos4geom15MultiLineStringD1Ev@Base 3.4.2
 _ZTv0_n32_N4geos4geom18GeometryCollectionD0Ev@Base 3.4.2
 _ZTv0_n32_N4geos4geom18GeometryCollectionD1Ev@Base 3.4.2
 _ZTv0_n32_N4geos4geom5PointD0Ev@Base 3.4.2
 _ZTv0_n32_N4geos4geom5PointD1Ev@Base 3.4.2
 _ZTv0_n32_N4geos4geom7PolygonD0Ev@Base 3.4.2
 _ZTv0_n32_N4geos4geom7PolygonD1Ev@Base 3.4.2
 _ZTv0_n344_NK4geos4geom10LineString11equalsExactEPKNS0_8GeometryEd@Base 3.4.2
 _ZTv0_n344_NK4geos4geom10MultiPoint11equalsExactEPKNS0_8GeometryEd@Base 3.4.2
 _ZTv0_n344_NK4geos4geom12MultiPolygon11equalsExactEPKNS0_8GeometryEd@Base 3.4.2
 _ZTv0_n344_NK4geos4geom15MultiLineString11equalsExactEPKNS0_8GeometryEd@Base 3.4.2
 _ZTv0_n344_NK4geos4geom18GeometryCollection11equalsExactEPKNS0_8GeometryEd@Base 3.4.2
 _ZTv0_n344_NK4geos4geom5Point11equalsExactEPKNS0_8GeometryEd@Base 3.4.2
 _ZTv0_n344_NK4geos4geom7Polygon11equalsExactEPKNS0_8GeometryEd@Base 3.4.2
 _ZTv0_n352_N4geos4geom10LineString8apply_rwEPKNS0_16CoordinateFilterE@Base 3.4.2
 _ZTv0_n352_N4geos4geom18GeometryCollection8apply_rwEPKNS0_16CoordinateFilterE@Base 3.4.2
 _ZTv0_n352_N4geos4geom5Point8apply_rwEPKNS0_16CoordinateFilterE@Base 3.4.2
 _ZTv0_n352_N4geos4geom7Polygon8apply_rwEPKNS0_16CoordinateFilterE@Base 3.4.2
 _ZTv0_n360_NK4geos4geom10LineString8apply_roEPNS0_16CoordinateFilterE@Base 3.4.2
 _ZTv0_n360_NK4geos4geom18GeometryCollection8apply_roEPNS0_16CoordinateFilterE@Base 3.4.2
 _ZTv0_n360_NK4geos4geom5Point8apply_roEPNS0_16CoordinateFilterE@Base 3.4.2
 _ZTv0_n360_NK4geos4geom7Polygon8apply_roEPNS0_16CoordinateFilterE@Base 3.4.2
 _ZTv0_n368_N4geos4geom10LineString8apply_rwEPNS0_14GeometryFilterE@Base 3.4.2
 _ZTv0_n368_N4geos4geom18GeometryCollection8apply_rwEPNS0_14GeometryFilterE@Base 3.4.2
 _ZTv0_n368_N4geos4geom5Point8apply_rwEPNS0_14GeometryFilterE@Base 3.4.2
 _ZTv0_n368_N4geos4geom7Polygon8apply_rwEPNS0_14GeometryFilterE@Base 3.4.2
 _ZTv0_n376_NK4geos4geom10LineString8apply_roEPNS0_14GeometryFilterE@Base 3.4.2
 _ZTv0_n376_NK4geos4geom18GeometryCollection8apply_roEPNS0_14GeometryFilterE@Base 3.4.2
 _ZTv0_n376_NK4geos4geom5Point8apply_roEPNS0_14GeometryFilterE@Base 3.4.2
 _ZTv0_n376_NK4geos4geom7Polygon8apply_roEPNS0_14GeometryFilterE@Base 3.4.2
 _ZTv0_n384_N4geos4geom10LineString8apply_rwEPNS0_23GeometryComponentFilterE@Base 3.4.2
 _ZTv0_n384_N4geos4geom18GeometryCollection8apply_rwEPNS0_23GeometryComponentFilterE@Base 3.4.2
 _ZTv0_n384_N4geos4geom5Point8apply_rwEPNS0_23GeometryComponentFilterE@Base 3.4.2
 _ZTv0_n384_N4geos4geom7Polygon8apply_rwEPNS0_23GeometryComponentFilterE@Base 3.4.2
 _ZTv0_n392_NK4geos4geom10LineString8apply_roEPNS0_23GeometryComponentFilterE@Base 3.4.2
 _ZTv0_n392_NK4geos4geom18GeometryCollection8apply_roEPNS0_23GeometryComponentFilterE@Base 3.4.2
 _ZTv0_n392_NK4geos4geom5Point8apply_roEPNS0_23GeometryComponentFilterE@Base 3.4.2
 _ZTv0_n392_NK4geos4geom7Polygon8apply_roEPNS0_23GeometryComponentFilterE@Base 3.4.2
 _ZTv0_n400_N4geos4geom10LineString8apply_rwERNS0_24CoordinateSequenceFilterE@Base 3.4.2
 _ZTv0_n400_N4geos4geom18GeometryCollection8apply_rwERNS0_24CoordinateSequenceFilterE@Base 3.4.2
 _ZTv0_n400_N4geos4geom5Point8apply_rwERNS0_24CoordinateSequenceFilterE@Base 3.4.2
 _ZTv0_n400_N4geos4geom7Polygon8apply_rwERNS0_24CoordinateSequenceFilterE@Base 3.4.2
 _ZTv0_n408_NK4geos4geom10LineString8apply_roERNS0_24CoordinateSequenceFilterE@Base 3.4.2
 _ZTv0_n408_NK4geos4geom18GeometryCollection8apply_roERNS0_24CoordinateSequenceFilterE@Base 3.4.2
 _ZTv0_n408_NK4geos4geom5Point8apply_roERNS0_24CoordinateSequenceFilterE@Base 3.4.2
 _ZTv0_n408_NK4geos4geom7Polygon8apply_roERNS0_24CoordinateSequenceFilterE@Base 3.4.2
 _ZTv0_n416_N4geos4geom10LineString9normalizeEv@Base 3.4.2
 _ZTv0_n416_N4geos4geom18GeometryCollection9normalizeEv@Base 3.4.2
 _ZTv0_n416_N4geos4geom5Point9normalizeEv@Base 3.4.2
 _ZTv0_n416_N4geos4geom7Polygon9normalizeEv@Base 3.4.2
 _ZTv0_n440_NK4geos4geom18GeometryCollection7getAreaEv@Base 3.4.2
 _ZTv0_n440_NK4geos4geom7Polygon7getAreaEv@Base 3.4.2
 _ZTv0_n448_NK4geos4geom10LineString9getLengthEv@Base 3.4.2
 _ZTv0_n448_NK4geos4geom18GeometryCollection9getLengthEv@Base 3.4.2
 _ZTv0_n448_NK4geos4geom7Polygon9getLengthEv@Base 3.4.2
 _ZTv0_n504_NK4geos4geom10LineString23computeEnvelopeInternalEv@Base 3.4.2
 _ZTv0_n504_NK4geos4geom18GeometryCollection23computeEnvelopeInternalEv@Base 3.4.2
 _ZTv0_n504_NK4geos4geom5Point23computeEnvelopeInternalEv@Base 3.4.2
 _ZTv0_n504_NK4geos4geom7Polygon23computeEnvelopeInternalEv@Base 3.4.2
 _ZTv0_n512_NK4geos4geom10LineString18compareToSameClassEPKNS0_8GeometryE@Base 3.4.2
 _ZTv0_n512_NK4geos4geom18GeometryCollection18compareToSameClassEPKNS0_8GeometryE@Base 3.4.2
 _ZTv0_n512_NK4geos4geom5Point18compareToSameClassEPKNS0_8GeometryE@Base 3.4.2
 _ZTv0_n512_NK4geos4geom7Polygon18compareToSameClassEPKNS0_8GeometryE@Base 3.4.2
 _ZTv0_n56_NK4geos4geom10LineString13getCoordinateEv@Base 3.4.2
 _ZTv0_n56_NK4geos4geom18GeometryCollection13getCoordinateEv@Base 3.4.2
 _ZTv0_n56_NK4geos4geom5Point13getCoordinateEv@Base 3.4.2
 _ZTv0_n56_NK4geos4geom7Polygon13getCoordinateEv@Base 3.4.2
 _ZTv0_n64_NK4geos4geom10LineString14getCoordinatesEv@Base 3.4.2
 _ZTv0_n64_NK4geos4geom18GeometryCollection14getCoordinatesEv@Base 3.4.2
 _ZTv0_n64_NK4geos4geom5Point14getCoordinatesEv@Base 3.4.2
 _ZTv0_n64_NK4geos4geom7Polygon14getCoordinatesEv@Base 3.4.2
 _ZTv0_n72_NK4geos4geom10LineString12getNumPointsEv@Base 3.4.2
 _ZTv0_n72_NK4geos4geom18GeometryCollection12getNumPointsEv@Base 3.4.2
 _ZTv0_n72_NK4geos4geom5Point12getNumPointsEv@Base 3.4.2
 _ZTv0_n72_NK4geos4geom7Polygon12getNumPointsEv@Base 3.4.2
 _ZTv0_n80_NK4geos4geom10LinearRing8isSimpleEv@Base 3.4.2
 _ZTv0_n80_NK4geos4geom12MultiPolygon8isSimpleEv@Base 3.4.2
 _ZTv0_n80_NK4geos4geom5Point8isSimpleEv@Base 3.4.2
 _ZTv0_n80_NK4geos4geom7Polygon8isSimpleEv@Base 3.4.2
 _ZTv0_n88_NK4geos4geom10LineString15getGeometryTypeEv@Base 3.4.2
 _ZTv0_n88_NK4geos4geom10LinearRing15getGeometryTypeEv@Base 3.4.2
 _ZTv0_n88_NK4geos4geom10MultiPoint15getGeometryTypeEv@Base 3.4.2
 _ZTv0_n88_NK4geos4geom12MultiPolygon15getGeometryTypeEv@Base 3.4.2
 _ZTv0_n88_NK4geos4geom15MultiLineString15getGeometryTypeEv@Base 3.4.2
 _ZTv0_n88_NK4geos4geom18GeometryCollection15getGeometryTypeEv@Base 3.4.2
 _ZTv0_n88_NK4geos4geom5Point15getGeometryTypeEv@Base 3.4.2
 _ZTv0_n88_NK4geos4geom7Polygon15getGeometryTypeEv@Base 3.4.2
 _ZTv0_n96_NK4geos4geom10LineString17getGeometryTypeIdEv@Base 3.4.2
 _ZTv0_n96_NK4geos4geom10LinearRing17getGeometryTypeIdEv@Base 3.4.2
 _ZTv0_n96_NK4geos4geom10MultiPoint17getGeometryTypeIdEv@Base 3.4.2
 _ZTv0_n96_NK4geos4geom12MultiPolygon17getGeometryTypeIdEv@Base 3.4.2
 _ZTv0_n96_NK4geos4geom15MultiLineString17getGeometryTypeIdEv@Base 3.4.2
 _ZTv0_n96_NK4geos4geom18GeometryCollection17getGeometryTypeIdEv@Base 3.4.2
 _ZTv0_n96_NK4geos4geom5Point17getGeometryTypeIdEv@Base 3.4.2
 _ZTv0_n96_NK4geos4geom7Polygon17getGeometryTypeIdEv@Base 3.4.2
 _ZZ19getMachineByteOrdervE12endian_check@Base 3.4.2
