libkmlengine.so.1 libkmlengine1 #MINVER#
 _ZN5boost10scoped_ptrIN7kmlbase9UriParserEED1Ev@Base 1.3.0~r864
 _ZN5boost10scoped_ptrIN7kmlbase9UriParserEED2Ev@Base 1.3.0~r864
 _ZN5boost10scoped_ptrIN9kmlengine6KmlUriEED1Ev@Base 1.3.0~r864
 _ZN5boost10scoped_ptrIN9kmlengine6KmlUriEED2Ev@Base 1.3.0~r864
 _ZN6kmldom10Serializer11SaveContentERKNSt7__cxx1112basic_stringIcSt11char_traitsIcESaIcEEEb@Base 1.3.0~r864
 _ZN6kmldom10Serializer13SaveFieldByIdINSt7__cxx1112basic_stringIcSt11char_traitsIcESaIcEEEEEviT_@Base 1.3.0~r864
 _ZN6kmldom10Serializer15EndElementArrayEi@Base 1.3.0~r864
 _ZN6kmldom10Serializer16SaveElementGroupERKN5boost13intrusive_ptrINS_7ElementEEEi@Base 1.3.0~r864
 _ZN6kmldom10Serializer17BeginElementArrayEim@Base 1.3.0
 _ZN6kmldom10Serializer19SaveStringFieldByIdEiNSt7__cxx1112basic_stringIcSt11char_traitsIcESaIcEEE@Base 1.3.0~r864
 _ZN6kmldom10Serializer20EndElementGroupArrayEi@Base 1.3.0~r864
 _ZN6kmldom10Serializer22BeginElementGroupArrayEim@Base 1.3.0
 _ZN6kmldom10Serializer3EndEv@Base 1.3.0~r864
 _ZN6kmldom10Serializer6IndentEv@Base 1.3.0~r864
 _ZN6kmldom10Serializer9BeginByIdEiRKN7kmlbase10AttributesE@Base 1.3.0~r864
 _ZN6kmldom10Serializer9SaveColorEiRKN7kmlbase7Color32E@Base 1.3.0~r864
 _ZN6kmldom13XmlSerializerINS_13StringAdapterEE11SaveContentERKNSt7__cxx1112basic_stringIcSt11char_traitsIcESaIcEEEb@Base 1.3.0~r864
 _ZN6kmldom13XmlSerializerINS_13StringAdapterEE19SaveStringFieldByIdEiNSt7__cxx1112basic_stringIcSt11char_traitsIcESaIcEEE@Base 1.3.0~r864
 _ZN6kmldom13XmlSerializerINS_13StringAdapterEE3EndEv@Base 1.3.0~r864
 _ZN6kmldom13XmlSerializerINS_13StringAdapterEE6IndentEv@Base 1.3.0~r864
 _ZN6kmldom13XmlSerializerINS_13StringAdapterEE8SaveVec3ERKN7kmlbase4Vec3E@Base 1.3.0~r864
 _ZN6kmldom13XmlSerializerINS_13StringAdapterEE9BeginByIdEiRKN7kmlbase10AttributesE@Base 1.3.0~r864
 _ZN6kmldom13XmlSerializerINS_13StringAdapterEE9SaveColorEiRKN7kmlbase7Color32E@Base 1.3.0~r864
 _ZN6kmldom13XmlSerializerINS_13StringAdapterEED0Ev@Base 1.3.0~r864
 _ZN6kmldom13XmlSerializerINS_13StringAdapterEED1Ev@Base 1.3.0~r864
 _ZN6kmldom13XmlSerializerINS_13StringAdapterEED2Ev@Base 1.3.0~r864
 _ZN6kmldom13XmlSerializerISoE11SaveContentERKNSt7__cxx1112basic_stringIcSt11char_traitsIcESaIcEEEb@Base 1.3.0~r864
 _ZN6kmldom13XmlSerializerISoE19SaveStringFieldByIdEiNSt7__cxx1112basic_stringIcSt11char_traitsIcESaIcEEE@Base 1.3.0~r864
 _ZN6kmldom13XmlSerializerISoE3EndEv@Base 1.3.0~r864
 _ZN6kmldom13XmlSerializerISoE6IndentEv@Base 1.3.0~r864
 _ZN6kmldom13XmlSerializerISoE8SaveVec3ERKN7kmlbase4Vec3E@Base 1.3.0~r864
 _ZN6kmldom13XmlSerializerISoE9BeginByIdEiRKN7kmlbase10AttributesE@Base 1.3.0~r864
 _ZN6kmldom13XmlSerializerISoE9SaveColorEiRKN7kmlbase7Color32E@Base 1.3.0~r864
 _ZN6kmldom13XmlSerializerISoED0Ev@Base 1.3.0~r864
 _ZN6kmldom13XmlSerializerISoED1Ev@Base 1.3.0~r864
 _ZN6kmldom13XmlSerializerISoED2Ev@Base 1.3.0~r864
 _ZN6kmldom14ParserObserver10EndElementERKN5boost13intrusive_ptrINS_7ElementEEES6_@Base 1.3.0~r864
 _ZN6kmldom14ParserObserver10NewElementERKN5boost13intrusive_ptrINS_7ElementEEE@Base 1.3.0~r864
 _ZN6kmldom14ParserObserver8AddChildERKN5boost13intrusive_ptrINS_7ElementEEES6_@Base 1.3.0~r864
 _ZN6kmldom14ParserObserverD0Ev@Base 1.3.0~r864
 _ZN6kmldom14ParserObserverD1Ev@Base 1.3.0~r864
 _ZN6kmldom14ParserObserverD2Ev@Base 1.3.0~r864
 _ZN7kmlbase10Attributes8SetValueINSt7__cxx1112basic_stringIcSt11char_traitsIcESaIcEEEEEvRKS7_RKT_@Base 1.3.0~r864
 _ZN7kmlbase10MemoryFileD0Ev@Base 1.3.0~r864
 _ZN7kmlbase10MemoryFileD1Ev@Base 1.3.0~r864
 _ZN7kmlbase10MemoryFileD2Ev@Base 1.3.0~r864
 _ZN7kmlbase7XmlFileD0Ev@Base 1.3.0~r864
 _ZN7kmlbase7XmlFileD1Ev@Base 1.3.0~r864
 _ZN7kmlbase7XmlFileD2Ev@Base 1.3.0~r864
 _ZN7kmlbase8ReferentD0Ev@Base 1.3.0~r864
 _ZN7kmlbase8ReferentD1Ev@Base 1.3.0~r864
 _ZN7kmlbase8ReferentD2Ev@Base 1.3.0~r864
 _ZN9kmlengine10ResolveUriERKNSt7__cxx1112basic_stringIcSt11char_traitsIcESaIcEEES7_PS5_@Base 1.3.0~r864
 _ZN9kmlengine11FieldMerger11SaveElementERKN5boost13intrusive_ptrIN6kmldom7ElementEEE@Base 1.3.0~r864
 _ZN9kmlengine11FieldMerger19SaveStringFieldByIdEiNSt7__cxx1112basic_stringIcSt11char_traitsIcESaIcEEE@Base 1.3.0~r864
 _ZN9kmlengine11FieldMerger8SaveVec3ERKN7kmlbase4Vec3E@Base 1.3.0~r864
 _ZN9kmlengine11FieldMerger9BeginByIdEiRKN7kmlbase10AttributesE@Base 1.3.0~r864
 _ZN9kmlengine11FieldMerger9SaveColorEiRKN7kmlbase7Color32E@Base 1.3.0~r864
 _ZN9kmlengine11FieldMergerD0Ev@Base 1.3.0~r864
 _ZN9kmlengine11FieldMergerD1Ev@Base 1.3.0~r864
 _ZN9kmlengine11FieldMergerD2Ev@Base 1.3.0~r864
 _ZN9kmlengine11MergeFieldsERKN5boost13intrusive_ptrIN6kmldom7ElementEEES4_@Base 1.3.0~r864
 _ZN9kmlengine11SplitStylesERKNSt7__cxx1112basic_stringIcSt11char_traitsIcESaIcEEEPS5_@Base 1.3.0~r864
 _ZN9kmlengine11StyleMerger10MergeStyleERKNSt7__cxx1112basic_stringIcSt11char_traitsIcESaIcEEERKN5boost13intrusive_ptrIN6kmldom13StyleSelectorEEE@Base 1.3.0~r864
 _ZN9kmlengine11StyleMerger13MergeStyleMapERKN5boost13intrusive_ptrIN6kmldom8StyleMapEEE@Base 1.3.0~r864
 _ZN9kmlengine11StyleMerger13MergeStyleUrlERKNSt7__cxx1112basic_stringIcSt11char_traitsIcESaIcEEE@Base 1.3.0~r864
 _ZN9kmlengine11StyleMerger17CreateFromKmlFileERKNS_7KmlFileEN6kmldom14StyleStateEnumE@Base 1.3.0~r864
 _ZN9kmlengine11StyleMerger18MergeStyleSelectorERKN5boost13intrusive_ptrIN6kmldom13StyleSelectorEEE@Base 1.3.0~r864
 _ZN9kmlengine11StyleMergerC1ERKSt3mapINSt7__cxx1112basic_stringIcSt11char_traitsIcESaIcEEEN5boost13intrusive_ptrIN6kmldom13StyleSelectorEEESt4lessIS7_ESaISt4pairIKS7_SC_EEEPNS_8KmlCacheERSG_NSA_14StyleStateEnumE@Base 1.3.0~r864
 _ZN9kmlengine11StyleMergerC1ERKSt3mapINSt7__cxx1112basic_stringIcSt11char_traitsIcESaIcEEEN5boost13intrusive_ptrIN6kmldom13StyleSelectorEEESt4lessIS7_ESaISt4pairIKS7_SC_EEEPNS_8KmlCacheERSG_NSA_14StyleStateEnumEj@Base 1.3.0~r864
 _ZN9kmlengine11StyleMergerC2ERKSt3mapINSt7__cxx1112basic_stringIcSt11char_traitsIcESaIcEEEN5boost13intrusive_ptrIN6kmldom13StyleSelectorEEESt4lessIS7_ESaISt4pairIKS7_SC_EEEPNS_8KmlCacheERSG_NSA_14StyleStateEnumE@Base 1.3.0~r864
 _ZN9kmlengine11StyleMergerC2ERKSt3mapINSt7__cxx1112basic_stringIcSt11char_traitsIcESaIcEEEN5boost13intrusive_ptrIN6kmldom13StyleSelectorEEESt4lessIS7_ESaISt4pairIKS7_SC_EEEPNS_8KmlCacheERSG_NSA_14StyleStateEnumEj@Base 1.3.0~r864
 _ZN9kmlengine12CopyFeaturesERKN5boost13intrusive_ptrIN6kmldom9ContainerEEES4_@Base 1.3.0~r864
 _ZN9kmlengine12EntityMapper15GetEntityFieldsERKN5boost13intrusive_ptrIN6kmldom7FeatureEEE@Base 1.3.0~r864
 _ZN9kmlengine12EntityMapper16GatherDataFieldsERKN5boost13intrusive_ptrIN6kmldom4DataEEE@Base 1.3.0~r864
 _ZN9kmlengine12EntityMapper18GatherObjectFieldsERKN5boost13intrusive_ptrIN6kmldom7FeatureEEE@Base 1.3.0~r864
 _ZN9kmlengine12EntityMapper19GatherFeatureFieldsERKN5boost13intrusive_ptrIN6kmldom7FeatureEEE@Base 1.3.0~r864
 _ZN9kmlengine12EntityMapper22GatherSchemaDataFieldsERKN5boost13intrusive_ptrIN6kmldom10SchemaDataEEE@Base 1.3.0~r864
 _ZN9kmlengine12EntityMapper22GatherSimpleDataFieldsERKN5boost13intrusive_ptrIN6kmldom10SimpleDataEEE@Base 1.3.0~r864
 _ZN9kmlengine12EntityMapper23GatherSimpleFieldFieldsERKN5boost13intrusive_ptrIN6kmldom11SimpleFieldEEERKNS2_INS3_6SchemaEEE@Base 1.3.0~r864
 _ZN9kmlengine12EntityMapper24GatherExtendedDataFieldsERKN5boost13intrusive_ptrIN6kmldom7FeatureEEE@Base 1.3.0~r864
 _ZN9kmlengine12EntityMapper26PopulateSimpleFieldNameMapERKN5boost13intrusive_ptrIN6kmldom6SchemaEEE@Base 1.3.0~r864
 _ZN9kmlengine12EntityMapperC1ERKN5boost13intrusive_ptrINS_7KmlFileEEEPSt3mapINSt7__cxx1112basic_stringIcSt11char_traitsIcESaIcEEESD_St4lessISD_ESaISt4pairIKSD_SD_EEE@Base 1.3.0~r864
 _ZN9kmlengine12EntityMapperC1ERKN5boost13intrusive_ptrINS_7KmlFileEEEPSt3mapINSt7__cxx1112basic_stringIcSt11char_traitsIcESaIcEEESD_St4lessISD_ESaISt4pairIKSD_SD_EEEPSt6vectorISG_ISD_SD_ESaISN_EE@Base 1.3.0~r864
 _ZN9kmlengine12EntityMapperC2ERKN5boost13intrusive_ptrINS_7KmlFileEEEPSt3mapINSt7__cxx1112basic_stringIcSt11char_traitsIcESaIcEEESD_St4lessISD_ESaISt4pairIKSD_SD_EEE@Base 1.3.0~r864
 _ZN9kmlengine12EntityMapperC2ERKN5boost13intrusive_ptrINS_7KmlFileEEEPSt3mapINSt7__cxx1112basic_stringIcSt11char_traitsIcESaIcEEESD_St4lessISD_ESaISt4pairIKSD_SD_EEEPSt6vectorISG_ISD_SD_ESaISN_EE@Base 1.3.0~r864
 _ZN9kmlengine12EntityMapperD1Ev@Base 1.3.0~r864
 _ZN9kmlengine12EntityMapperD2Ev@Base 1.3.0~r864
 _ZN9kmlengine12InlineStylesERKNSt7__cxx1112basic_stringIcSt11char_traitsIcESaIcEEEPS5_@Base 1.3.0~r864
 _ZN9kmlengine12IsIconParentERKN5boost13intrusive_ptrIN6kmldom7ElementEEE@Base 1.3.0~r864
 _ZN9kmlengine12IsLinkParentERKN5boost13intrusive_ptrIN6kmldom7ElementEEE@Base 1.3.0~r864
 _ZN9kmlengine12NormalizeUriERKNSt7__cxx1112basic_stringIcSt11char_traitsIcESaIcEEEPS5_@Base 1.3.0~r864
 _ZN9kmlengine12SplitUriPathERKNSt7__cxx1112basic_stringIcSt11char_traitsIcESaIcEEEPS5_@Base 1.3.0~r864
 _ZN9kmlengine12StyleInliner10EndElementERKN5boost13intrusive_ptrIN6kmldom7ElementEEES7_@Base 1.3.0~r864
 _ZN9kmlengine12StyleInliner10NewElementERKN5boost13intrusive_ptrIN6kmldom7ElementEEE@Base 1.3.0~r864
 _ZN9kmlengine12StyleInliner20AsNonDocumentFeatureERKN5boost13intrusive_ptrIN6kmldom7ElementEEE@Base 1.3.0~r864
 _ZN9kmlengine12StyleInliner8AddChildERKN5boost13intrusive_ptrIN6kmldom7ElementEEES7_@Base 1.3.0~r864
 _ZN9kmlengine12StyleInlinerC1Ev@Base 1.3.0~r864
 _ZN9kmlengine12StyleInlinerC2Ev@Base 1.3.0~r864
 _ZN9kmlengine12StyleInlinerD0Ev@Base 1.3.0~r864
 _ZN9kmlengine12StyleInlinerD1Ev@Base 1.3.0~r864
 _ZN9kmlengine12StyleInlinerD2Ev@Base 1.3.0~r864
 _ZN9kmlengine13FilenameToUriERKNSt7__cxx1112basic_stringIcSt11char_traitsIcESaIcEEEPS5_@Base 1.3.0~r864
 _ZN9kmlengine13MergeElementsERKN5boost13intrusive_ptrIN6kmldom7ElementEEES4_@Base 1.3.0~r864
 _ZN9kmlengine13NormalizeHrefERKNSt7__cxx1112basic_stringIcSt11char_traitsIcESaIcEEEPS5_@Base 1.3.0~r864
 _ZN9kmlengine13ProcessUpdateERKN5boost13intrusive_ptrIN6kmldom6UpdateEEENS1_INS_7KmlFileEEE@Base 1.3.0~r864
 _ZN9kmlengine13StyleResolver19CreateResolvedStyleERKNSt7__cxx1112basic_stringIcSt11char_traitsIcESaIcEEERKN5boost13intrusive_ptrIN6kmldom13StyleSelectorEEERKSt3mapIS6_SD_St4lessIS6_ESaISt4pairIS7_SD_EEES8_PNS_8KmlCacheENSB_14StyleStateEnumE@Base 1.3.0~r864
 _ZN9kmlengine13StyleResolver27CreateResolvedStyleSelectorERKNSt7__cxx1112basic_stringIcSt11char_traitsIcESaIcEEERKSt3mapIS6_N5boost13intrusive_ptrIN6kmldom13StyleSelectorEEESt4lessIS6_ESaISt4pairIS7_SE_EEE@Base 1.3.0~r864
 _ZN9kmlengine13StyleSplitter10EndElementERKN5boost13intrusive_ptrIN6kmldom7ElementEEES7_@Base 1.3.0~r864
 _ZN9kmlengine13StyleSplitter10NewElementERKN5boost13intrusive_ptrIN6kmldom7ElementEEE@Base 1.3.0~r864
 _ZN9kmlengine13StyleSplitter14CreateUniqueIdERKSt3mapINSt7__cxx1112basic_stringIcSt11char_traitsIcESaIcEEEN5boost13intrusive_ptrIN6kmldom13StyleSelectorEEESt4lessIS7_ESaISt4pairIKS7_SC_EEEj@Base 1.3.0~r864
 _ZN9kmlengine13StyleSplitter19CreateStyleSelectorEN6kmldom10KmlDomTypeE@Base 1.3.0~r864
 _ZN9kmlengine13StyleSplitter20AsNonDocumentFeatureERKN5boost13intrusive_ptrIN6kmldom7ElementEEE@Base 1.3.0~r864
 _ZN9kmlengine13StyleSplitterD0Ev@Base 1.3.0~r864
 _ZN9kmlengine13StyleSplitterD1Ev@Base 1.3.0~r864
 _ZN9kmlengine13StyleSplitterD2Ev@Base 1.3.0~r864
 _ZN9kmlengine13UriToFilenameERKNSt7__cxx1112basic_stringIcSt11char_traitsIcESaIcEEEPS5_@Base 1.3.0~r864
 _ZN9kmlengine14FeatureVisitor12VisitFeatureERKN5boost13intrusive_ptrIN6kmldom7FeatureEEE@Base 1.3.0~r864
 _ZN9kmlengine14GetLinkParentsERKNSt7__cxx1112basic_stringIcSt11char_traitsIcESaIcEEEPSt6vectorIN5boost13intrusive_ptrIN6kmldom7ElementEEESaISD_EE@Base 1.3.0~r864
 _ZN9kmlengine14GetModelBoundsERKN5boost13intrusive_ptrIN6kmldom5ModelEEEPNS_4BboxE@Base 1.3.0~r864
 _ZN9kmlengine14GetModelLatLonERKN5boost13intrusive_ptrIN6kmldom5ModelEEEPdS7_@Base 1.3.0~r864
 _ZN9kmlengine14GetPointLatLonERKN5boost13intrusive_ptrIN6kmldom5PointEEEPdS7_@Base 1.3.0~r864
 _ZN9kmlengine14GetRootFeatureERKN5boost13intrusive_ptrIN6kmldom7ElementEEE@Base 1.3.0~r864
 _ZN9kmlengine14ParseOldSchemaERKNSt7__cxx1112basic_stringIcSt11char_traitsIcESaIcEEERKSt3mapIS5_N5boost13intrusive_ptrIN6kmldom6SchemaEEESt4lessIS5_ESaISt4pairIS6_SD_EEEPS5_@Base 1.3.0~r864
 _ZN9kmlengine15GetElementsByIdERKN5boost13intrusive_ptrIN6kmldom7ElementEEENS2_10KmlDomTypeEPSt6vectorIS4_SaIS4_EE@Base 1.3.0~r864
 _ZN9kmlengine15GetFetchableUriERKNSt7__cxx1112basic_stringIcSt11char_traitsIcESaIcEEEPS5_@Base 1.3.0~r864
 _ZN9kmlengine15UpdateProcessor13ProcessUpdateERKN5boost13intrusive_ptrIN6kmldom6UpdateEEE@Base 1.3.0~r864
 _ZN9kmlengine15UpdateProcessor17DeleteFeatureByIdERKNSt7__cxx1112basic_stringIcSt11char_traitsIcESaIcEEE@Base 1.3.0~r864
 _ZN9kmlengine15UpdateProcessor19ProcessUpdateChangeERKN5boost13intrusive_ptrIN6kmldom6ChangeEEE@Base 1.3.0~r864
 _ZN9kmlengine15UpdateProcessor19ProcessUpdateCreateERKN5boost13intrusive_ptrIN6kmldom6CreateEEE@Base 1.3.0~r864
 _ZN9kmlengine15UpdateProcessor19ProcessUpdateDeleteERKN5boost13intrusive_ptrIN6kmldom6DeleteEEE@Base 1.3.0~r864
 _ZN9kmlengine16AllElementFinder11SaveElementERKN5boost13intrusive_ptrIN6kmldom7ElementEEE@Base 1.3.0~r864
 _ZN9kmlengine16AllElementFinderD0Ev@Base 1.3.0~r864
 _ZN9kmlengine16AllElementFinderD1Ev@Base 1.3.0~r864
 _ZN9kmlengine16AllElementFinderD2Ev@Base 1.3.0~r864
 _ZN9kmlengine16ConvertOldSchemaERKNSt7__cxx1112basic_stringIcSt11char_traitsIcESaIcEEERKSt3mapIS5_N5boost13intrusive_ptrIN6kmldom6SchemaEEESt4lessIS5_ESaISt4pairIS6_SD_EEEPS5_@Base 1.3.0~r864
 _ZN9kmlengine16GetChildElementsERKN5boost13intrusive_ptrIN6kmldom7ElementEEEbPSt6vectorIS4_SaIS4_EE@Base 1.3.0~r864
 _ZN9kmlengine16GetFeatureBoundsERKN5boost13intrusive_ptrIN6kmldom7FeatureEEEPNS_4BboxE@Base 1.3.0~r864
 _ZN9kmlengine16GetFeatureLatLonERKN5boost13intrusive_ptrIN6kmldom7FeatureEEEPdS7_@Base 1.3.0~r864
 _ZN9kmlengine16GetRelativeLinksERKNSt7__cxx1112basic_stringIcSt11char_traitsIcESaIcEEEPSt6vectorIS5_SaIS5_EE@Base 1.3.0~r864
 _ZN9kmlengine16SplitUriFragmentERKNSt7__cxx1112basic_stringIcSt11char_traitsIcESaIcEEEPS5_@Base 1.3.0~r864
 _ZN9kmlengine17ComputeBboxLookAtERKNS_4BboxE@Base 1.3.0~r864
 _ZN9kmlengine17CreateBalloonTextB5cxx11ERKN5boost13intrusive_ptrINS_7KmlFileEEERKNS1_IN6kmldom7FeatureEEE@Base 1.3.0~r864
 _ZN9kmlengine17ElementReplicator11SaveContentERKNSt7__cxx1112basic_stringIcSt11char_traitsIcESaIcEEEb@Base 1.3.0~r864
 _ZN9kmlengine17ElementReplicator15EndElementArrayEi@Base 1.3.0~r864
 _ZN9kmlengine17ElementReplicator17BeginElementArrayEim@Base 1.3.0
 _ZN9kmlengine17ElementReplicator19SaveStringFieldByIdEiNSt7__cxx1112basic_stringIcSt11char_traitsIcESaIcEEE@Base 1.3.0~r864
 _ZN9kmlengine17ElementReplicator3EndEv@Base 1.3.0~r864
 _ZN9kmlengine17ElementReplicator8SaveVec3ERKN7kmlbase4Vec3E@Base 1.3.0~r864
 _ZN9kmlengine17ElementReplicator9BeginByIdEiRKN7kmlbase10AttributesE@Base 1.3.0~r864
 _ZN9kmlengine17ElementReplicator9SaveColorEiRKN7kmlbase7Color32E@Base 1.3.0~r864
 _ZN9kmlengine17ElementReplicatorD0Ev@Base 1.3.0~r864
 _ZN9kmlengine17ElementReplicatorD1Ev@Base 1.3.0~r864
 _ZN9kmlengine17ElementReplicatorD2Ev@Base 1.3.0~r864
 _ZN9kmlengine17ElementTypeFinder11SaveElementERKN5boost13intrusive_ptrIN6kmldom7ElementEEE@Base 1.3.0~r864
 _ZN9kmlengine17ElementTypeFinderD0Ev@Base 1.3.0~r864
 _ZN9kmlengine17ElementTypeFinderD1Ev@Base 1.3.0~r864
 _ZN9kmlengine17ElementTypeFinderD2Ev@Base 1.3.0~r864
 _ZN9kmlengine17FindXmlNamespacesERKN5boost13intrusive_ptrIN6kmldom7ElementEEEPN7kmlbase10AttributesE@Base 1.3.0~r864
 _ZN9kmlengine17GetGeometryBoundsERKN5boost13intrusive_ptrIN6kmldom8GeometryEEEPNS_4BboxE@Base 1.3.0~r864
 _ZN9kmlengine17GetGeometryLatLonERKN5boost13intrusive_ptrIN6kmldom8GeometryEEEPdS7_@Base 1.3.0~r864
 _ZN9kmlengine18GetPlacemarkLatLonERKN5boost13intrusive_ptrIN6kmldom9PlacemarkEEEPdS7_@Base 1.3.0~r864
 _ZN9kmlengine18XmlNamespaceFinder11SaveElementERKN5boost13intrusive_ptrIN6kmldom7ElementEEE@Base 1.3.0~r864
 _ZN9kmlengine18XmlNamespaceFinderD0Ev@Base 1.3.0~r864
 _ZN9kmlengine18XmlNamespaceFinderD1Ev@Base 1.3.0~r864
 _ZN9kmlengine18XmlNamespaceFinderD2Ev@Base 1.3.0~r864
 _ZN9kmlengine19CreateResolvedStyleERKN5boost13intrusive_ptrIN6kmldom7FeatureEEERKNS1_INS_7KmlFileEEENS2_14StyleStateEnumE@Base 1.3.0~r864
 _ZN9kmlengine20ComputeFeatureLookAtERKN5boost13intrusive_ptrIN6kmldom7FeatureEEE@Base 1.3.0~r864
 _ZN9kmlengine20GetCoordinatesBoundsERKN5boost13intrusive_ptrIN6kmldom11CoordinatesEEEPNS_4BboxE@Base 1.3.0~r864
 _ZN9kmlengine21VisitFeatureHierarchyERKN5boost13intrusive_ptrIN6kmldom7FeatureEEERNS_14FeatureVisitorE@Base 1.3.0~r864
 _ZN9kmlengine22CreateExpandedEntitiesERKNSt7__cxx1112basic_stringIcSt11char_traitsIcESaIcEEERKSt3mapIS5_S5_St4lessIS5_ESaISt4pairIS6_S5_EEE@Base 1.3.0~r864
 _ZN9kmlengine22GetLinksParserObserver8AddChildERKN5boost13intrusive_ptrIN6kmldom7ElementEEES7_@Base 1.3.0~r864
 _ZN9kmlengine22GetLinksParserObserverD0Ev@Base 1.3.0~r864
 _ZN9kmlengine22GetLinksParserObserverD1Ev@Base 1.3.0~r864
 _ZN9kmlengine22GetLinksParserObserverD2Ev@Base 1.3.0~r864
 _ZN9kmlengine22ObjectIdParserObserver10NewElementERKN5boost13intrusive_ptrIN6kmldom7ElementEEE@Base 1.3.0~r864
 _ZN9kmlengine22ObjectIdParserObserverD0Ev@Base 1.3.0~r864
 _ZN9kmlengine22ObjectIdParserObserverD1Ev@Base 1.3.0~r864
 _ZN9kmlengine22ObjectIdParserObserverD2Ev@Base 1.3.0~r864
 _ZN9kmlengine22ProcessUpdateWithIdMapERKN5boost13intrusive_ptrIN6kmldom6UpdateEEEPKSt3mapINSt7__cxx1112basic_stringIcSt11char_traitsIcESaIcEEESD_St4lessISD_ESaISt4pairIKSD_SD_EEENS1_INS_7KmlFileEEE@Base 1.3.0~r864
 _ZN9kmlengine22ResolveModelTargetHrefERKNSt7__cxx1112basic_stringIcSt11char_traitsIcESaIcEEES7_S7_PS5_@Base 1.3.0~r864
 _ZN9kmlengine25SharedStyleParserObserver8AddChildERKN5boost13intrusive_ptrIN6kmldom7ElementEEES7_@Base 1.3.0~r864
 _ZN9kmlengine25SharedStyleParserObserverD0Ev@Base 1.3.0~r864
 _ZN9kmlengine25SharedStyleParserObserverD1Ev@Base 1.3.0~r864
 _ZN9kmlengine25SharedStyleParserObserverD2Ev@Base 1.3.0~r864
 _ZN9kmlengine26FindAndInsertXmlNamespacesEN5boost13intrusive_ptrIN6kmldom7ElementEEE@Base 1.3.0~r864
 _ZN9kmlengine26GetCoordinatesParentBoundsIN5boost13intrusive_ptrIN6kmldom10LinearRingEEEEEbRKT_PNS_4BboxE@Base 1.3.0~r864
 _ZN9kmlengine26GetCoordinatesParentBoundsIN5boost13intrusive_ptrIN6kmldom5PointEEEEEbRKT_PNS_4BboxE@Base 1.3.0~r864
 _ZN9kmlengine28GetLinkParentsParserObserver10NewElementERKN5boost13intrusive_ptrIN6kmldom7ElementEEE@Base 1.3.0~r864
 _ZN9kmlengine28GetLinkParentsParserObserverD0Ev@Base 1.3.0~r864
 _ZN9kmlengine28GetLinkParentsParserObserverD1Ev@Base 1.3.0~r864
 _ZN9kmlengine28GetLinkParentsParserObserverD2Ev@Base 1.3.0~r864
 _ZN9kmlengine4Href11ParseNetLocERKNSt7__cxx1112basic_stringIcSt11char_traitsIcESaIcEEE@Base 1.3.0~r864
 _ZN9kmlengine4Href11ParseSchemeERKNSt7__cxx1112basic_stringIcSt11char_traitsIcESaIcEEE@Base 1.3.0~r864
 _ZN9kmlengine4Href5ParseERKNSt7__cxx1112basic_stringIcSt11char_traitsIcESaIcEEE@Base 1.3.0~r864
 _ZN9kmlengine5CloneERKN5boost13intrusive_ptrIN6kmldom7ElementEEE@Base 1.3.0~r864
 _ZN9kmlengine6KmlUri14CreateRelativeERKNSt7__cxx1112basic_stringIcSt11char_traitsIcESaIcEEES8_@Base 1.3.0~r864
 _ZN9kmlengine6KmlUriC1ERKNSt7__cxx1112basic_stringIcSt11char_traitsIcESaIcEEES8_@Base 1.3.0~r864
 _ZN9kmlengine6KmlUriC2ERKNSt7__cxx1112basic_stringIcSt11char_traitsIcESaIcEEES8_@Base 1.3.0~r864
 _ZN9kmlengine6KmlUriD1Ev@Base 1.3.0~r864
 _ZN9kmlengine6KmlUriD2Ev@Base 1.3.0~r864
 _ZN9kmlengine6MapIdsERKN5boost13intrusive_ptrIN6kmldom7ElementEEEPSt3mapINSt7__cxx1112basic_stringIcSt11char_traitsIcESaIcEEENS1_INS2_6ObjectEEESt4lessISD_ESaISt4pairIKSD_SF_EEEPSt6vectorIS4_SaIS4_EE@Base 1.3.0~r864
 _ZN9kmlengine7KmlFile15CreateFromParseERKNSt7__cxx1112basic_stringIcSt11char_traitsIcESaIcEEEPS6_@Base 1.3.0~r864
 _ZN9kmlengine7KmlFile15OpenAndParseKmzERKNSt7__cxx1112basic_stringIcSt11char_traitsIcESaIcEEEPS6_@Base 1.3.0~r864
 _ZN9kmlengine7KmlFile15ParseFromStringERKNSt7__cxx1112basic_stringIcSt11char_traitsIcESaIcEEEPS6_@Base 1.3.0~r864
 _ZN9kmlengine7KmlFile16CreateFromImportERKN5boost13intrusive_ptrIN6kmldom7ElementEEE@Base 1.3.0~r864
 _ZN9kmlengine7KmlFile16_CreateFromParseERKNSt7__cxx1112basic_stringIcSt11char_traitsIcESaIcEEEPS6_@Base 1.3.0~r864
 _ZN9kmlengine7KmlFile19CreateFromImportLaxERKN5boost13intrusive_ptrIN6kmldom7ElementEEE@Base 1.3.0~r864
 _ZN9kmlengine7KmlFile23CreateFromStringWithUrlERKNSt7__cxx1112basic_stringIcSt11char_traitsIcESaIcEEES8_PNS_8KmlCacheE@Base 1.3.0~r864
 _ZN9kmlengine7KmlFile24CreateFromImportInternalERKN5boost13intrusive_ptrIN6kmldom7ElementEEEb@Base 1.3.0~r864
 _ZN9kmlengine7KmlFileC1Ev@Base 1.3.0~r864
 _ZN9kmlengine7KmlFileC2Ev@Base 1.3.0~r864
 _ZN9kmlengine7KmlFileD0Ev@Base 1.3.0~r864
 _ZN9kmlengine7KmlFileD1Ev@Base 1.3.0~r864
 _ZN9kmlengine7KmlFileD2Ev@Base 1.3.0~r864
 _ZN9kmlengine7KmzFile11AddFileListERKNSt7__cxx1112basic_stringIcSt11char_traitsIcESaIcEEERKSt6vectorIS6_SaIS6_EE@Base 1.3.0~r864
 _ZN9kmlengine7KmzFile12OpenFromFileEPKc@Base 1.3.0~r864
 _ZN9kmlengine7KmzFile12SaveToStringEPNSt7__cxx1112basic_stringIcSt11char_traitsIcESaIcEEE@Base 1.3.0~r864
 _ZN9kmlengine7KmzFile14OpenFromStringERKNSt7__cxx1112basic_stringIcSt11char_traitsIcESaIcEEE@Base 1.3.0~r864
 _ZN9kmlengine7KmzFile17CreateFromElementERKN5boost13intrusive_ptrIN6kmldom7ElementEEERKNSt7__cxx1112basic_stringIcSt11char_traitsIcESaIcEEESF_@Base 1.3.0~r864
 _ZN9kmlengine7KmzFile17CreateFromKmlFileERKN5boost13intrusive_ptrINS_7KmlFileEEERKNSt7__cxx1112basic_stringIcSt11char_traitsIcESaIcEEE@Base 1.3.0~r864
 _ZN9kmlengine7KmzFile21CreateFromKmlFilepathERKNSt7__cxx1112basic_stringIcSt11char_traitsIcESaIcEEES8_@Base 1.3.0~r864
 _ZN9kmlengine7KmzFile30get_max_uncompressed_file_sizeEv@Base 1.3.0~r864
 _ZN9kmlengine7KmzFile30set_max_uncompressed_file_sizeEj@Base 1.3.0~r864
 _ZN9kmlengine7KmzFile4ListEPSt6vectorINSt7__cxx1112basic_stringIcSt11char_traitsIcESaIcEEESaIS7_EE@Base 1.3.0~r864
 _ZN9kmlengine7KmzFile5IsKmzERKNSt7__cxx1112basic_stringIcSt11char_traitsIcESaIcEEE@Base 1.3.0~r864
 _ZN9kmlengine7KmzFile6CreateEPKc@Base 1.3.0~r864
 _ZN9kmlengine7KmzFile7AddFileERKNSt7__cxx1112basic_stringIcSt11char_traitsIcESaIcEEES8_@Base 1.3.0~r864
 _ZN9kmlengine7KmzFile8WriteKmzEPKcRKNSt7__cxx1112basic_stringIcSt11char_traitsIcESaIcEEE@Base 1.3.0~r864
 _ZN9kmlengine7KmzFileC1EPN7kmlbase7ZipFileE@Base 1.3.0~r864
 _ZN9kmlengine7KmzFileC2EPN7kmlbase7ZipFileE@Base 1.3.0~r864
 _ZN9kmlengine7KmzFileD0Ev@Base 1.3.0~r864
 _ZN9kmlengine7KmzFileD1Ev@Base 1.3.0~r864
 _ZN9kmlengine7KmzFileD2Ev@Base 1.3.0~r864
 _ZN9kmlengine8ClearIdsERKN5boost13intrusive_ptrIN6kmldom7ElementEEE@Base 1.3.0~r864
 _ZN9kmlengine8GetLinksERKNSt7__cxx1112basic_stringIcSt11char_traitsIcESaIcEEEPSt6vectorIS5_SaIS5_EE@Base 1.3.0~r864
 _ZN9kmlengine8IdMapper11SaveElementERKN5boost13intrusive_ptrIN6kmldom7ElementEEE@Base 1.3.0~r864
 _ZN9kmlengine8IdMapperD0Ev@Base 1.3.0~r864
 _ZN9kmlengine8IdMapperD1Ev@Base 1.3.0~r864
 _ZN9kmlengine8IdMapperD2Ev@Base 1.3.0~r864
 _ZN9kmlengine8KmlCache16FetchKmlAbsoluteERKNSt7__cxx1112basic_stringIcSt11char_traitsIcESaIcEEE@Base 1.3.0~r864
 _ZN9kmlengine8KmlCache16FetchKmlRelativeERKNSt7__cxx1112basic_stringIcSt11char_traitsIcESaIcEEES8_@Base 1.3.0~r864
 _ZN9kmlengine8KmlCache17FetchDataRelativeERKNSt7__cxx1112basic_stringIcSt11char_traitsIcESaIcEEES8_PS6_@Base 1.3.0~r864
 _ZN9kmlengine8KmlCacheC1EPN7kmlbase10NetFetcherEm@Base 1.3.0
 _ZN9kmlengine8KmlCacheC2EPN7kmlbase10NetFetcherEm@Base 1.3.0
 _ZN9kmlengine8KmzCache19DoFetchAndReturnUrlEPNS_6KmlUriEPNSt7__cxx1112basic_stringIcSt11char_traitsIcESaIcEEES9_@Base 1.3.0~r864
 _ZN9kmlengine8KmzSplitERKNSt7__cxx1112basic_stringIcSt11char_traitsIcESaIcEEEPS5_S8_@Base 1.3.0~r864
 _ZN9kmlengine8RemapIdsERKSt3mapINSt7__cxx1112basic_stringIcSt11char_traitsIcESaIcEEEN5boost13intrusive_ptrIN6kmldom6ObjectEEESt4lessIS6_ESaISt4pairIKS6_SB_EEERKS0_IS6_S6_SD_SaISE_ISF_S6_EEEPSI_@Base 1.3.0~r864
 _ZN9kmlengine8SplitUriERKNSt7__cxx1112basic_stringIcSt11char_traitsIcESaIcEEEPS5_S8_S8_S8_S8_S8_@Base 1.3.0~r864
 _ZN9kmlengine9FetchIconERKN5boost13intrusive_ptrINS_7KmlFileEEERKNS1_IN6kmldom7OverlayEEEPNSt7__cxx1112basic_stringIcSt11char_traitsIcESaIcEEE@Base 1.3.0~r864
 _ZN9kmlengine9FetchLinkERKN5boost13intrusive_ptrINS_7KmlFileEEERKNS1_IN6kmldom11NetworkLinkEEE@Base 1.3.0~r864
 _ZN9kmlengine9GetCenterERKN5boost13intrusive_ptrIN6kmldom17AbstractLatLonBoxEEEPdS7_@Base 1.3.0~r864
 _ZN9kmlengine9KmlStream16ParseFromIstreamEPSiPNSt7__cxx1112basic_stringIcSt11char_traitsIcESaIcEEEPN6kmldom14ParserObserverE@Base 1.3.0~r864
 _ZN9kmlengine9KmlStreamD0Ev@Base 1.3.0~r864
 _ZN9kmlengine9KmlStreamD1Ev@Base 1.3.0~r864
 _ZN9kmlengine9KmlStreamD2Ev@Base 1.3.0~r864
 _ZNK7kmlbase10NetFetcher8FetchUrlERKNSt7__cxx1112basic_stringIcSt11char_traitsIcESaIcEEEPS6_@Base 1.3.0~r864
 _ZNK9kmlengine15UpdateProcessor11GetTargetIdERKN5boost13intrusive_ptrIN6kmldom6ObjectEEEPNSt7__cxx1112basic_stringIcSt11char_traitsIcESaIcEEE@Base 1.3.0~r864
 _ZNK9kmlengine7KmlFile13GetObjectByIdERKNSt7__cxx1112basic_stringIcSt11char_traitsIcESaIcEEE@Base 1.3.0~r864
 _ZNK9kmlengine7KmlFile15CreateXmlHeaderB5cxx11Ev@Base 1.3.0~r864
 _ZNK9kmlengine7KmlFile17SerializeToStringEPNSt7__cxx1112basic_stringIcSt11char_traitsIcESaIcEEE@Base 1.3.0~r864
 _ZNK9kmlengine7KmlFile18GetSharedStyleByIdERKNSt7__cxx1112basic_stringIcSt11char_traitsIcESaIcEEE@Base 1.3.0~r864
 _ZNK9kmlengine7KmlFile18SerializeToOstreamEPSo@Base 1.3.0~r864
 _ZNK9kmlengine7KmzFile17ReadKmlAndGetPathEPNSt7__cxx1112basic_stringIcSt11char_traitsIcESaIcEEES7_@Base 1.3.0~r864
 _ZNK9kmlengine7KmzFile7ReadKmlEPNSt7__cxx1112basic_stringIcSt11char_traitsIcESaIcEEE@Base 1.3.0~r864
 _ZNK9kmlengine7KmzFile8ReadFileEPKcPNSt7__cxx1112basic_stringIcSt11char_traitsIcESaIcEEE@Base 1.3.0~r864
 _ZNK9kmlengine8KmzCache14FetchFromCacheEPNS_6KmlUriEPNSt7__cxx1112basic_stringIcSt11char_traitsIcESaIcEEE@Base 1.3.0~r864
 _ZNKSt8_Rb_treeINSt7__cxx1112basic_stringIcSt11char_traitsIcESaIcEEESt4pairIKS5_N5boost13intrusive_ptrIN6kmldom6SchemaEEEESt10_Select1stISD_ESt4lessIS5_ESaISD_EE4findERS7_@Base 1.3.0~r864
 _ZNSt11_Deque_baseIN5boost13intrusive_ptrIN6kmldom7ElementEEESaIS4_EE17_M_initialize_mapEm@Base 1.3.0~r864
 _ZNSt11_Deque_baseIN5boost13intrusive_ptrIN6kmldom7ElementEEESaIS4_EED1Ev@Base 1.3.0~r864
 _ZNSt11_Deque_baseIN5boost13intrusive_ptrIN6kmldom7ElementEEESaIS4_EED2Ev@Base 1.3.0~r864
 _ZNSt11_Deque_baseIiSaIiEE17_M_initialize_mapEm@Base 1.3.0~r864
 _ZNSt11_Deque_baseIiSaIiEED1Ev@Base 1.3.0~r864
 _ZNSt11_Deque_baseIiSaIiEED2Ev@Base 1.3.0~r864
 _ZNSt4pairIKNSt7__cxx1112basic_stringIcSt11char_traitsIcESaIcEEEN5boost13intrusive_ptrIN6kmldom13StyleSelectorEEEED1Ev@Base 1.3.0~r864
 _ZNSt4pairIKNSt7__cxx1112basic_stringIcSt11char_traitsIcESaIcEEEN5boost13intrusive_ptrIN6kmldom13StyleSelectorEEEED2Ev@Base 1.3.0~r864
 _ZNSt4pairIKNSt7__cxx1112basic_stringIcSt11char_traitsIcESaIcEEEN5boost13intrusive_ptrIN6kmldom6ObjectEEEED1Ev@Base 1.3.0~r864
 _ZNSt4pairIKNSt7__cxx1112basic_stringIcSt11char_traitsIcESaIcEEEN5boost13intrusive_ptrIN6kmldom6ObjectEEEED2Ev@Base 1.3.0~r864
 _ZNSt4pairIKNSt7__cxx1112basic_stringIcSt11char_traitsIcESaIcEEES5_ED1Ev@Base 1.3.0~r864
 _ZNSt4pairIKNSt7__cxx1112basic_stringIcSt11char_traitsIcESaIcEEES5_ED2Ev@Base 1.3.0~r864
 _ZNSt4pairINSt7__cxx1112basic_stringIcSt11char_traitsIcESaIcEEES5_ED1Ev@Base 1.3.0~r864
 _ZNSt4pairINSt7__cxx1112basic_stringIcSt11char_traitsIcESaIcEEES5_ED2Ev@Base 1.3.0~r864
 _ZNSt5dequeIN5boost13intrusive_ptrIN6kmldom7ElementEEESaIS4_EE16_M_push_back_auxERKS4_@Base 1.3.0~r864
 _ZNSt5dequeIN5boost13intrusive_ptrIN6kmldom7ElementEEESaIS4_EED1Ev@Base 1.3.0~r864
 _ZNSt5dequeIN5boost13intrusive_ptrIN6kmldom7ElementEEESaIS4_EED2Ev@Base 1.3.0~r864
 _ZNSt5dequeIiSaIiEE16_M_push_back_auxERKi@Base 1.3.0~r864
 _ZNSt6vectorIN5boost13intrusive_ptrIN6kmldom13StyleSelectorEEESaIS4_EE13_M_insert_auxEN9__gnu_cxx17__normal_iteratorIPS4_S6_EERKS4_@Base 1.3.0~r864
 _ZNSt6vectorIN5boost13intrusive_ptrIN6kmldom4PairEEESaIS4_EE13_M_insert_auxEN9__gnu_cxx17__normal_iteratorIPS4_S6_EERKS4_@Base 1.3.0~r864
 _ZNSt6vectorIN5boost13intrusive_ptrIN6kmldom7ElementEEESaIS4_EE13_M_insert_auxEN9__gnu_cxx17__normal_iteratorIPS4_S6_EERKS4_@Base 1.3.0~r864
 _ZNSt6vectorIN5boost13intrusive_ptrIN6kmldom7ElementEEESaIS4_EED1Ev@Base 1.3.0~r864
 _ZNSt6vectorIN5boost13intrusive_ptrIN6kmldom7ElementEEESaIS4_EED2Ev@Base 1.3.0~r864
 _ZNSt6vectorIN7kmlbase4Vec3ESaIS1_EE13_M_insert_auxEN9__gnu_cxx17__normal_iteratorIPS1_S3_EERKS1_@Base 1.3.0~r864
 _ZNSt6vectorINSt7__cxx1112basic_stringIcSt11char_traitsIcESaIcEEESaIS5_EE13_M_insert_auxEN9__gnu_cxx17__normal_iteratorIPS5_S7_EERKS5_@Base 1.3.0~r864
 _ZNSt6vectorIPN6kmldom14ParserObserverESaIS2_EE13_M_insert_auxEN9__gnu_cxx17__normal_iteratorIPS2_S4_EERKS2_@Base 1.3.0~r864
 _ZNSt6vectorISt4pairINSt7__cxx1112basic_stringIcSt11char_traitsIcESaIcEEES6_ESaIS7_EE13_M_insert_auxEN9__gnu_cxx17__normal_iteratorIPS7_S9_EERKS7_@Base 1.3.0~r864
 _ZNSt7__cxx1115basic_stringbufIcSt11char_traitsIcESaIcEED0Ev@Base 1.3.0~r864
 _ZNSt7__cxx1115basic_stringbufIcSt11char_traitsIcESaIcEED1Ev@Base 1.3.0~r864
 _ZNSt7__cxx1115basic_stringbufIcSt11char_traitsIcESaIcEED2Ev@Base 1.3.0~r864
 _ZNSt8_Rb_treeIN7kmlbase7XmlnsIdES1_St9_IdentityIS1_ESt4lessIS1_ESaIS1_EE16_M_insert_uniqueERKS1_@Base 1.3.0~r864
 _ZNSt8_Rb_treeIN7kmlbase7XmlnsIdES1_St9_IdentityIS1_ESt4lessIS1_ESaIS1_EE8_M_eraseEPSt13_Rb_tree_nodeIS1_E@Base 1.3.0~r864
 _ZNSt8_Rb_treeINSt7__cxx1112basic_stringIcSt11char_traitsIcESaIcEEES5_St9_IdentityIS5_ESt4lessIS5_ESaIS5_EE16_M_insert_uniqueERKS5_@Base 1.3.0~r864
 _ZNSt8_Rb_treeINSt7__cxx1112basic_stringIcSt11char_traitsIcESaIcEEES5_St9_IdentityIS5_ESt4lessIS5_ESaIS5_EE8_M_eraseEPSt13_Rb_tree_nodeIS5_E@Base 1.3.0~r864
 _ZNSt8_Rb_treeINSt7__cxx1112basic_stringIcSt11char_traitsIcESaIcEEESt4pairIKS5_N5boost13intrusive_ptrIN6kmldom13StyleSelectorEEEESt10_Select1stISD_ESt4lessIS5_ESaISD_EE24_M_get_insert_unique_posERS7_@Base 1.3.0~r864
 _ZNSt8_Rb_treeINSt7__cxx1112basic_stringIcSt11char_traitsIcESaIcEEESt4pairIKS5_N5boost13intrusive_ptrIN6kmldom13StyleSelectorEEEESt10_Select1stISD_ESt4lessIS5_ESaISD_EE29_M_get_insert_hint_unique_posESt23_Rb_tree_const_iteratorISD_ERS7_@Base 1.3.0~r864
 _ZNSt8_Rb_treeINSt7__cxx1112basic_stringIcSt11char_traitsIcESaIcEEESt4pairIKS5_N5boost13intrusive_ptrIN6kmldom13StyleSelectorEEEESt10_Select1stISD_ESt4lessIS5_ESaISD_EE8_M_eraseEPSt13_Rb_tree_nodeISD_E@Base 1.3.0~r864
 _ZNSt8_Rb_treeINSt7__cxx1112basic_stringIcSt11char_traitsIcESaIcEEESt4pairIKS5_N5boost13intrusive_ptrIN6kmldom6ObjectEEEESt10_Select1stISD_ESt4lessIS5_ESaISD_EE24_M_get_insert_unique_posERS7_@Base 1.3.0~r864
 _ZNSt8_Rb_treeINSt7__cxx1112basic_stringIcSt11char_traitsIcESaIcEEESt4pairIKS5_N5boost13intrusive_ptrIN6kmldom6ObjectEEEESt10_Select1stISD_ESt4lessIS5_ESaISD_EE29_M_get_insert_hint_unique_posESt23_Rb_tree_const_iteratorISD_ERS7_@Base 1.3.0~r864
 _ZNSt8_Rb_treeINSt7__cxx1112basic_stringIcSt11char_traitsIcESaIcEEESt4pairIKS5_N5boost13intrusive_ptrIN6kmldom6ObjectEEEESt10_Select1stISD_ESt4lessIS5_ESaISD_EE8_M_eraseEPSt13_Rb_tree_nodeISD_E@Base 1.3.0~r864
 _ZNSt8_Rb_treeINSt7__cxx1112basic_stringIcSt11char_traitsIcESaIcEEESt4pairIKS5_N5boost13intrusive_ptrIN7kmlbase10XmlElementEEEESt10_Select1stISD_ESt4lessIS5_ESaISD_EE8_M_eraseEPSt13_Rb_tree_nodeISD_E@Base 1.3.0~r864
 _ZNSt8_Rb_treeINSt7__cxx1112basic_stringIcSt11char_traitsIcESaIcEEESt4pairIKS5_S5_ESt10_Select1stIS8_ESt4lessIS5_ESaIS8_EE11equal_rangeERS7_@Base 1.3.0~r864
 _ZNSt8_Rb_treeINSt7__cxx1112basic_stringIcSt11char_traitsIcESaIcEEESt4pairIKS5_S5_ESt10_Select1stIS8_ESt4lessIS5_ESaIS8_EE24_M_get_insert_unique_posERS7_@Base 1.3.0~r864
 _ZNSt8_Rb_treeINSt7__cxx1112basic_stringIcSt11char_traitsIcESaIcEEESt4pairIKS5_S5_ESt10_Select1stIS8_ESt4lessIS5_ESaIS8_EE29_M_get_insert_hint_unique_posESt23_Rb_tree_const_iteratorIS8_ERS7_@Base 1.3.0~r864
 _ZNSt8_Rb_treeINSt7__cxx1112basic_stringIcSt11char_traitsIcESaIcEEESt4pairIKS5_S5_ESt10_Select1stIS8_ESt4lessIS5_ESaIS8_EE5eraseERS7_@Base 1.3.0~r864
 _ZNSt8_Rb_treeINSt7__cxx1112basic_stringIcSt11char_traitsIcESaIcEEESt4pairIKS5_S5_ESt10_Select1stIS8_ESt4lessIS5_ESaIS8_EE8_M_eraseEPSt13_Rb_tree_nodeIS8_E@Base 1.3.0~r864
 _ZNSt8_Rb_treeINSt7__cxx1112basic_stringIcSt11char_traitsIcESaIcEEESt4pairIKS5_S6_IN5boost13intrusive_ptrIN7kmlbase10MemoryFileEEEmEESt10_Select1stISE_ESt4lessIS5_ESaISE_EE24_M_get_insert_unique_posERS7_@Base 1.3.0~r864
 _ZNSt8_Rb_treeINSt7__cxx1112basic_stringIcSt11char_traitsIcESaIcEEESt4pairIKS5_S6_IN5boost13intrusive_ptrIN7kmlbase10MemoryFileEEEmEESt10_Select1stISE_ESt4lessIS5_ESaISE_EE29_M_get_insert_hint_unique_posESt23_Rb_tree_const_iteratorISE_ERS7_@Base 1.3.0~r864
 _ZNSt8_Rb_treeINSt7__cxx1112basic_stringIcSt11char_traitsIcESaIcEEESt4pairIKS5_S6_IN5boost13intrusive_ptrIN7kmlbase10MemoryFileEEEmEESt10_Select1stISE_ESt4lessIS5_ESaISE_EE8_M_eraseEPSt13_Rb_tree_nodeISE_E@Base 1.3.0~r864
 _ZNSt8_Rb_treeINSt7__cxx1112basic_stringIcSt11char_traitsIcESaIcEEESt4pairIKS5_S6_IN5boost13intrusive_ptrIN9kmlengine7KmlFileEEEmEESt10_Select1stISE_ESt4lessIS5_ESaISE_EE24_M_get_insert_unique_posERS7_@Base 1.3.0~r864
 _ZNSt8_Rb_treeINSt7__cxx1112basic_stringIcSt11char_traitsIcESaIcEEESt4pairIKS5_S6_IN5boost13intrusive_ptrIN9kmlengine7KmlFileEEEmEESt10_Select1stISE_ESt4lessIS5_ESaISE_EE29_M_get_insert_hint_unique_posESt23_Rb_tree_const_iteratorISE_ERS7_@Base 1.3.0~r864
 _ZNSt8_Rb_treeINSt7__cxx1112basic_stringIcSt11char_traitsIcESaIcEEESt4pairIKS5_S6_IN5boost13intrusive_ptrIN9kmlengine7KmlFileEEEmEESt10_Select1stISE_ESt4lessIS5_ESaISE_EE8_M_eraseEPSt13_Rb_tree_nodeISE_E@Base 1.3.0~r864
 _ZNSt8_Rb_treeINSt7__cxx1112basic_stringIcSt11char_traitsIcESaIcEEESt4pairIKS5_S6_IN5boost13intrusive_ptrIN9kmlengine7KmzFileEEEmEESt10_Select1stISE_ESt4lessIS5_ESaISE_EE24_M_get_insert_unique_posERS7_@Base 1.3.0~r864
 _ZNSt8_Rb_treeINSt7__cxx1112basic_stringIcSt11char_traitsIcESaIcEEESt4pairIKS5_S6_IN5boost13intrusive_ptrIN9kmlengine7KmzFileEEEmEESt10_Select1stISE_ESt4lessIS5_ESaISE_EE29_M_get_insert_hint_unique_posESt23_Rb_tree_const_iteratorISE_ERS7_@Base 1.3.0~r864
 _ZNSt8_Rb_treeINSt7__cxx1112basic_stringIcSt11char_traitsIcESaIcEEESt4pairIKS5_S6_IN5boost13intrusive_ptrIN9kmlengine7KmzFileEEEmEESt10_Select1stISE_ESt4lessIS5_ESaISE_EE8_M_eraseEPSt13_Rb_tree_nodeISE_E@Base 1.3.0~r864
 _ZStplIcSt11char_traitsIcESaIcEENSt7__cxx1112basic_stringIT_T0_T1_EEPKS5_RKS8_@Base 1.3.0~r864
 _ZStplIcSt11char_traitsIcESaIcEENSt7__cxx1112basic_stringIT_T0_T1_EERKS8_SA_@Base 1.3.0~r864
 _ZTVN6kmldom13XmlSerializerINS_13StringAdapterEEE@Base 1.3.0~r864
 _ZTVN6kmldom13XmlSerializerISoEE@Base 1.3.0~r864
 _ZTVN7kmlbase10MemoryFileE@Base 1.3.0~r864
 _ZTVN7kmlbase7XmlFileE@Base 1.3.0~r864
 _ZTVN9kmlengine11FieldMergerE@Base 1.3.0~r864
 _ZTVN9kmlengine12StyleInlinerE@Base 1.3.0~r864
 _ZTVN9kmlengine13StyleSplitterE@Base 1.3.0~r864
 _ZTVN9kmlengine16AllElementFinderE@Base 1.3.0~r864
 _ZTVN9kmlengine17ElementReplicatorE@Base 1.3.0~r864
 _ZTVN9kmlengine17ElementTypeFinderE@Base 1.3.0~r864
 _ZTVN9kmlengine18XmlNamespaceFinderE@Base 1.3.0~r864
 _ZTVN9kmlengine22GetLinksParserObserverE@Base 1.3.0~r864
 _ZTVN9kmlengine22ObjectIdParserObserverE@Base 1.3.0~r864
 _ZTVN9kmlengine25SharedStyleParserObserverE@Base 1.3.0~r864
 _ZTVN9kmlengine28GetLinkParentsParserObserverE@Base 1.3.0~r864
 _ZTVN9kmlengine7KmlFileE@Base 1.3.0~r864
 _ZTVN9kmlengine7KmzFileE@Base 1.3.0~r864
 _ZTVN9kmlengine8IdMapperE@Base 1.3.0~r864
 _ZTVN9kmlengine9KmlStreamE@Base 1.3.0~r864
